MPLINK 4.42, Linker
Linker Map File - Created Wed Feb 24 15:01:20 2016

                                 Section Info
                  Section       Type    Address   Location Size(Bytes)
                ---------  ---------  ---------  ---------  ---------
               _entry_scn       code   0x000000    program   0x000006
           .code___init.o       code   0x000006    program   0x000002
               highVector       code   0x000008    program   0x000006
.idata_UDPPerformanceTest.o_i    romdata   0x00000e    program   0x000000
           .idata_UDP.o_i    romdata   0x00000e    program   0x000002
          .idata_UART.o_i    romdata   0x000010    program   0x000000
.idata_UART2TCPBridge.o_i    romdata   0x000010    program   0x000000
          .idata_Tick.o_i    romdata   0x000010    program   0x000004
         .idata_TFTPc.o_i    romdata   0x000014    program   0x000000
        .idata_Telnet.o_i    romdata   0x000014    program   0x000000
.idata_TCPPerformanceTest.o_i    romdata   0x000014    program   0x000000
           .idata_TCP.o_i    romdata   0x000014    program   0x000002
      .idata_StackTsk.o_i    romdata   0x000016    program   0x000001
        .idata_SPIRAM.o_i    romdata   0x000017    program   0x000000
      .idata_SPIFlash.o_i    romdata   0x000017    program   0x000000
     .idata_SPIEEPROM.o_i    romdata   0x000017    program   0x000000
          .idata_SNTP.o_i    romdata   0x000017    program   0x000000
          .idata_SMTP.o_i    romdata   0x000017    program   0x000000
        .idata_Reboot.o_i    romdata   0x000017    program   0x000001
                lowVector       code   0x000018    program   0x000006
                   .cinit    romdata   0x00001e    program   0x0000da
              .code_TCP.o       code   0x0000f8    program   0x00477c
             .code_SNMP.o       code   0x004874    program   0x003fe0
            .code_HTTP2.o       code   0x008854    program   0x002364
    .code_CustomSNMPApp.o       code   0x00abb8    program   0x00223e
      .romdata_MPFSImg2.o    romdata   0x00cdf6    program   0x001a04
            .code_MPFS2.o       code   0x00e7fa    program   0x001406
        .code_PAL_pUART.o       code   0x00fc00    program   0x0010d4
    .code_CustomHTTPApp.o       code   0x010cd4    program   0x0010d0
             .code_DHCP.o       code   0x011da4    program   0x000b00
             .code_Main.o       code   0x0128a4    program   0x000a90
              .code_UDP.o       code   0x013334    program   0x000a40
          .code_Helpers.o       code   0x013d74    program   0x000944
         .code_ETH97J60.o       code   0x0146b8    program   0x000938
      .code_ParamsTable.o       code   0x014ff0    program   0x0008cc
           .code_UdpSet.o       code   0x0158bc    program   0x00082e
             .stringtable    romdata   0x0160ea    program   0x0007fd
      .idata_fxd1616u.o_i    romdata   0x0168e7    program   0x000000
        .romdata_UdpSet.o    romdata   0x0168e7    program   0x000000
        .romdata_Reboot.o    romdata   0x0168e7    program   0x000000
      .romdata_fxd1616u.o    romdata   0x0168e7    program   0x000000
      .romdata_StackTsk.o    romdata   0x0168e7    program   0x000000
      .idata_fxd3232u.o_i    romdata   0x0168e7    program   0x000000
        .romdata_SPIRAM.o    romdata   0x0168e7    program   0x000000
      .romdata_fxd3232u.o    romdata   0x0168e7    program   0x000000
      .romdata_SPIFlash.o    romdata   0x0168e7    program   0x000000
       .idata_fxm3232.o_i    romdata   0x0168e7    program   0x000000
     .romdata_SPIEEPROM.o    romdata   0x0168e7    program   0x000000
        .romdata___init.o    romdata   0x0168e7    program   0x000000
       .romdata_fxm3232.o    romdata   0x0168e7    program   0x000000
          .romdata_SMTP.o    romdata   0x0168e7    program   0x000000
          .romdata_SNTP.o    romdata   0x0168e7    program   0x000000
        .idata___init.o_i    romdata   0x0168e7    program   0x000000
 .romdata_CustomSNMPApp.o    romdata   0x0168e7    program   0x000000
    .romdata_DeviceData.o    romdata   0x0168e7    program   0x000000
       .romdata_MPFSImg.o    romdata   0x0168e7    program   0x000000
     .romdata_I2cEEPROM.o    romdata   0x0168e7    program   0x000000
       .idata_deeprom.o_i    romdata   0x0168e7    program   0x000000
 .romdata_CustomHTTPApp.o    romdata   0x0168e7    program   0x000000
.romdata_UDPPerformanceTest.o    romdata   0x0168e7    program   0x000000
   .romdata_ParamsTable.o    romdata   0x0168e7    program   0x000000
           .romdata_UDP.o    romdata   0x0168e7    program   0x000000
          .romdata_UART.o    romdata   0x0168e7    program   0x000000
    .romdata_ParamsList.o    romdata   0x0168e7    program   0x000000
.romdata_UART2TCPBridge.o    romdata   0x0168e7    program   0x000000
     .romdata_PAL_pUART.o    romdata   0x0168e7    program   0x000000
          .romdata_Tick.o    romdata   0x0168e7    program   0x000000
       .romdata_deeprom.o    romdata   0x0168e7    program   0x000000
         .romdata_TFTPc.o    romdata   0x0168e7    program   0x000000
      .idata_fxd0808u.o_i    romdata   0x0168e7    program   0x000000
        .romdata_Telnet.o    romdata   0x0168e7    program   0x000000
      .romdata_fxd0808u.o    romdata   0x0168e7    program   0x000000
.romdata_TCPPerformanceTest.o    romdata   0x0168e7    program   0x000000
        .idata_UdpSet.o_i    romdata   0x0168e7    program   0x000001
          .romdata_HTTP.o    romdata   0x0168e7    program   0x000000
       .romdata_Helpers.o    romdata   0x0168e7    program   0x000000
        .romdata_Hashes.o    romdata   0x0168e7    program   0x000000
          .romdata_ICMP.o    romdata   0x0168e7    program   0x000000
           .romdata_FTP.o    romdata   0x0168e7    program   0x000000
      .romdata_ETH97J60.o    romdata   0x0168e7    program   0x000000
    .romdata_ENCX24J600.o    romdata   0x0168e7    program   0x000000
      .romdata_ENC28J60.o    romdata   0x0168e7    program   0x000000
            .romdata_IP.o    romdata   0x0168e7    program   0x000000
        .romdata_DynDNS.o    romdata   0x0168e7    program   0x000000
          .romdata_DNSs.o    romdata   0x0168e7    program   0x000000
           .romdata_DNS.o    romdata   0x0168e7    program   0x000000
         .romdata_MPFS2.o    romdata   0x0168e7    program   0x000000
         .romdata_DHCPs.o    romdata   0x0168e7    program   0x000000
          .romdata_DHCP.o    romdata   0x0168e7    program   0x000000
          .romdata_MPFS.o    romdata   0x0168e7    program   0x000000
         .romdata_Delay.o    romdata   0x0168e7    program   0x000000
        .romdata_AutoIP.o    romdata   0x0168e7    program   0x000000
           .romdata_ARP.o    romdata   0x0168e7    program   0x000000
      .romdata_Announce.o    romdata   0x0168e7    program   0x000000
          .romdata_NBNS.o    romdata   0x0168e7    program   0x000000
         .romdata_c018i.o    romdata   0x0168e7    program   0x000000
         .idata_c018i.o_i    romdata   0x0168e7    program   0x000000
              .code_ARP.o       code   0x0168e8    program   0x00054a
             .code_NBNS.o       code   0x016e32    program   0x000478
                   STRING       code   0x0172aa    program   0x000326
               .code_IP.o       code   0x0175d0    program   0x0002a2
        .code_I2cEEPROM.o       code   0x017872    program   0x000274
         .code_StackTsk.o       code   0x017ae6    program   0x000264
                     PROG       code   0x017d4a    program   0x00015c
                   STDLIB       code   0x017ea6    program   0x000156
           .code_Reboot.o       code   0x017ffc    program   0x00011e
       .code_DeviceData.o       code   0x01811a    program   0x0000e4
             .code_ICMP.o       code   0x0181fe    program   0x0000da
             .code_Tick.o       code   0x0182d8    program   0x0000b0
               _cinit_scn       code   0x018388    program   0x00009e
         .romdata_HTTP2.o    romdata   0x018426    program   0x000072
          .code_fxm3232.o       code   0x018498    program   0x000070
         .code_fxd3232u.o       code   0x018508    program   0x000048
         .code_fxd1616u.o       code   0x018550    program   0x00002c
                    .code       code   0x01857c    program   0x00002c
             _startup_scn       code   0x0185a8    program   0x00001c
         .code_fxd0808u.o       code   0x0185c4    program   0x00001c
           .romdata_TCP.o    romdata   0x0185e0    program   0x000018
          .romdata_Main.o    romdata   0x0185f8    program   0x000018
          .romdata_SNMP.o    romdata   0x018610    program   0x000014
          .idata_SNMP.o_i    romdata   0x018624    program   0x000057
   .idata_ParamsTable.o_i    romdata   0x01867b    program   0x000067
    .idata_ParamsList.o_i    romdata   0x0186e2    program   0x000063
     .idata_PAL_pUART.o_i    romdata   0x018745    program   0x000000
          .idata_NBNS.o_i    romdata   0x018745    program   0x000001
          .idata_Main.o_i    romdata   0x018746    program   0x000017
          .idata_MPFS.o_i    romdata   0x01875d    program   0x000000
      .idata_MPFSImg2.o_i    romdata   0x01875d    program   0x000000
       .idata_MPFSImg.o_i    romdata   0x01875d    program   0x000000
         .idata_MPFS2.o_i    romdata   0x01875d    program   0x000000
            .idata_IP.o_i    romdata   0x01875d    program   0x000002
          .idata_ICMP.o_i    romdata   0x01875f    program   0x000000
     .idata_I2cEEPROM.o_i    romdata   0x01875f    program   0x000000
       .idata_Helpers.o_i    romdata   0x01875f    program   0x000004
    .idata_DeviceData.o_i    romdata   0x018763    program   0x000060
      .idata_ETH97J60.o_i    romdata   0x018763    program   0x000000
          .idata_HTTP.o_i    romdata   0x018763    program   0x000000
        .idata_DynDNS.o_i    romdata   0x018763    program   0x000000
    .idata_ENCX24J600.o_i    romdata   0x018763    program   0x000000
         .idata_HTTP2.o_i    romdata   0x018763    program   0x000000
           .idata_FTP.o_i    romdata   0x018763    program   0x000000
        .idata_Hashes.o_i    romdata   0x018763    program   0x000000
      .idata_ENC28J60.o_i    romdata   0x018763    program   0x000000
           .idata_DNS.o_i    romdata   0x0187c3    program   0x000000
         .idata_DHCPs.o_i    romdata   0x0187c3    program   0x000000
          .idata_DNSs.o_i    romdata   0x0187c3    program   0x000000
          .idata_DHCP.o_i    romdata   0x0187c3    program   0x000001
         .idata_Delay.o_i    romdata   0x0187c3    program   0x000000
 .idata_CustomSNMPApp.o_i    romdata   0x0187c4    program   0x00007b
 .idata_CustomHTTPApp.o_i    romdata   0x01883f    program   0x000004
        .idata_AutoIP.o_i    romdata   0x018843    program   0x000000
           .idata_ARP.o_i    romdata   0x018843    program   0x000001
      .idata_Announce.o_i    romdata   0x018843    program   0x000000
           .code_DynDNS.o       code   0x018844    program   0x000000
         .code_SPIFlash.o       code   0x018844    program   0x000000
             .code_SMTP.o       code   0x018844    program   0x000000
            .code_TFTPc.o       code   0x018844    program   0x000000
         .code_Announce.o       code   0x018844    program   0x000000
           .code_Hashes.o       code   0x018844    program   0x000000
.code_UDPPerformanceTest.o       code   0x018844    program   0x000000
           .code_Telnet.o       code   0x018844    program   0x000000
         .code_ENC28J60.o       code   0x018844    program   0x000000
            .code_c018i.o       code   0x018844    program   0x000000
.code_TCPPerformanceTest.o       code   0x018844    program   0x000000
       .code_ENCX24J600.o       code   0x018844    program   0x000000
             .code_HTTP.o       code   0x018844    program   0x000000
             .code_UART.o       code   0x018844    program   0x000000
            .code_DHCPs.o       code   0x018844    program   0x000000
             .code_SNTP.o       code   0x018844    program   0x000000
          .code_deeprom.o       code   0x018844    program   0x000000
              .code_DNS.o       code   0x018844    program   0x000000
   .code_UART2TCPBridge.o       code   0x018844    program   0x000000
           .code_SPIRAM.o       code   0x018844    program   0x000000
            .code_Delay.o       code   0x018844    program   0x000000
             .code_MPFS.o       code   0x018844    program   0x000000
        .code_SPIEEPROM.o       code   0x018844    program   0x000000
       .code_ParamsList.o       code   0x018844    program   0x000000
             .code_DNSs.o       code   0x018844    program   0x000000
           .code_AutoIP.o       code   0x018844    program   0x000000
          .code_MPFSImg.o       code   0x018844    program   0x000000
              .code_FTP.o       code   0x018844    program   0x000000
         .code_MPFSImg2.o       code   0x018844    program   0x000000
     .config_1fff8_Main.o    romdata   0x01fff8    program   0x000001
     .config_1fffa_Main.o    romdata   0x01fffa    program   0x000001
     .config_1fffb_Main.o    romdata   0x01fffb    program   0x000001
     .config_1fffd_Main.o    romdata   0x01fffd    program   0x000001
                MATH_DATA      udata   0x000000       data   0x000014
                 .tmpdata      udata   0x000014       data   0x00000c
           .udata_MPFS2.o      udata   0x000060       data   0x000094
        .udata_StackTsk.o      udata   0x0000f4       data   0x00000b
          .idata_UdpSet.o      idata   0x0000ff       data   0x000001
   HTTP_CONNECTION_STATES      udata   0x000100       data   0x0000e8
            .idata_Main.o      idata   0x0001e8       data   0x000017
        .idata_StackTsk.o      idata   0x0001ff       data   0x000001
             .udata_UDP.o      udata   0x000200       data   0x0000e2
             .udata_ARP.o      udata   0x0002e2       data   0x00001e
             .udata_TCP.o      udata   0x000300       data   0x0000cf
            .udata_DHCP.o      udata   0x0003cf       data   0x000025
           .udata_c018i.o      udata   0x0003f4       data   0x00000a
             .idata_UDP.o      idata   0x0003fe       data   0x000002
       .udata_PAL_pUART.o      udata   0x000400       data   0x0000c7
        .udata_ETH97J60.o      udata   0x0004c7       data   0x000034
          .udata_UdpSet.o      udata   0x0004fb       data   0x000005
            .udata_SNMP.o      udata   0x000500       data   0x0000b2
       .udata_I2cEEPROM.o      udata   0x0005b2       data   0x00000f
            .udata_ICMP.o      udata   0x0005c1       data   0x000004
            .idata_Tick.o      idata   0x0005c5       data   0x000004
         .idata_Helpers.o      idata   0x0005c9       data   0x000004
   .idata_CustomHTTPApp.o      idata   0x0005cd       data   0x000004
              .idata_IP.o      idata   0x0005d1       data   0x000002
            .idata_DHCP.o      idata   0x0005d3       data   0x000001
             .idata_ARP.o      idata   0x0005d4       data   0x000001
       .idata_SPIEEPROM.o      idata   0x0005d5       data   0x000000
        .udata_SPIFlash.o      udata   0x0005d5       data   0x000000
        .idata_SPIFlash.o      idata   0x0005d5       data   0x000000
          .udata_SPIRAM.o      udata   0x0005d5       data   0x000000
          .idata_SPIRAM.o      idata   0x0005d5       data   0x000000
          .udata___init.o      udata   0x0005d5       data   0x000000
         .idata_fxm3232.o      idata   0x0005d5       data   0x000000
.udata_TCPPerformanceTest.o      udata   0x0005d5       data   0x000000
       .udata_SPIEEPROM.o      udata   0x0005d5       data   0x000000
            .idata_SNTP.o      idata   0x0005d5       data   0x000000
            .udata_SNTP.o      udata   0x0005d5       data   0x000000
            .idata_SMTP.o      idata   0x0005d5       data   0x000000
            .udata_SMTP.o      udata   0x0005d5       data   0x000000
          .udata_Reboot.o      udata   0x0005d5       data   0x000000
            .idata_MPFS.o      idata   0x0005d5       data   0x000000
            .udata_MPFS.o      udata   0x0005d5       data   0x000000
           .idata_MPFS2.o      idata   0x0005d5       data   0x000000
          .idata___init.o      idata   0x0005d5       data   0x000000
            .idata_ICMP.o      idata   0x0005d5       data   0x000000
            .idata_HTTP.o      idata   0x0005d5       data   0x000000
            .udata_HTTP.o      udata   0x0005d5       data   0x000000
        .idata_fxd3232u.o      idata   0x0005d5       data   0x000000
        .udata_fxd3232u.o      udata   0x0005d5       data   0x000000
        .idata_fxd1616u.o      idata   0x0005d5       data   0x000000
        .udata_fxd1616u.o      udata   0x0005d5       data   0x000000
        .idata_fxd0808u.o      idata   0x0005d5       data   0x000000
        .udata_fxd0808u.o      udata   0x0005d5       data   0x000000
       .idata_PAL_pUART.o      idata   0x0005d5       data   0x000000
      .udata_ParamsList.o      udata   0x0005d5       data   0x000000
      .udata_DeviceData.o      udata   0x0005d5       data   0x000000
         .udata_fxm3232.o      udata   0x0005d5       data   0x000000
         .idata_deeprom.o      idata   0x0005d5       data   0x000000
         .udata_deeprom.o      udata   0x0005d5       data   0x000000
       .idata_I2cEEPROM.o      idata   0x0005d5       data   0x000000
         .idata_MPFSImg.o      idata   0x0005d5       data   0x000000
         .udata_MPFSImg.o      udata   0x0005d5       data   0x000000
        .idata_MPFSImg2.o      idata   0x0005d5       data   0x000000
        .udata_MPFSImg2.o      udata   0x0005d5       data   0x000000
.idata_UDPPerformanceTest.o      idata   0x0005d5       data   0x000000
.udata_UDPPerformanceTest.o      udata   0x0005d5       data   0x000000
            .idata_UART.o      idata   0x0005d5       data   0x000000
            .udata_UART.o      udata   0x0005d5       data   0x000000
  .idata_UART2TCPBridge.o      idata   0x0005d5       data   0x000000
  .udata_UART2TCPBridge.o      udata   0x0005d5       data   0x000000
           .idata_TFTPc.o      idata   0x0005d5       data   0x000000
           .udata_TFTPc.o      udata   0x0005d5       data   0x000000
          .idata_Telnet.o      idata   0x0005d5       data   0x000000
          .udata_Telnet.o      udata   0x0005d5       data   0x000000
.idata_TCPPerformanceTest.o      idata   0x0005d5       data   0x000000
          .idata_Hashes.o      idata   0x0005d5       data   0x000000
          .udata_Hashes.o      udata   0x0005d5       data   0x000000
             .idata_FTP.o      idata   0x0005d5       data   0x000000
             .udata_FTP.o      udata   0x0005d5       data   0x000000
           .idata_Delay.o      idata   0x0005d5       data   0x000000
           .udata_Delay.o      udata   0x0005d5       data   0x000000
          .idata_AutoIP.o      idata   0x0005d5       data   0x000000
          .udata_AutoIP.o      udata   0x0005d5       data   0x000000
           .udata_DHCPs.o      udata   0x0005d5       data   0x000000
           .idata_DHCPs.o      idata   0x0005d5       data   0x000000
           .idata_HTTP2.o      idata   0x0005d5       data   0x000000
             .udata_DNS.o      udata   0x0005d5       data   0x000000
             .idata_DNS.o      idata   0x0005d5       data   0x000000
          .udata_DynDNS.o      udata   0x0005d5       data   0x000000
           .idata_c018i.o      idata   0x0005d5       data   0x000000
        .udata_Announce.o      udata   0x0005d5       data   0x000000
        .idata_Announce.o      idata   0x0005d5       data   0x000000
          .idata_DynDNS.o      idata   0x0005d5       data   0x000000
        .udata_ENC28J60.o      udata   0x0005d5       data   0x000000
        .idata_ENC28J60.o      idata   0x0005d5       data   0x000000
      .udata_ENCX24J600.o      udata   0x0005d5       data   0x000000
      .idata_ENCX24J600.o      idata   0x0005d5       data   0x000000
        .idata_ETH97J60.o      idata   0x0005d5       data   0x000000
            .idata_DNSs.o      idata   0x0005d5       data   0x000000
            .udata_DNSs.o      udata   0x0005d5       data   0x000000
            .udata_Main.o      udata   0x000600       data   0x000071
                 TCB_uRAM      udata   0x000671       data   0x000070
     .udata_ParamsTable.o      udata   0x0006e1       data   0x00001f
     .idata_ParamsTable.o      idata   0x000700       data   0x000067
       SYN_QUEUE_RAM_SECT      udata   0x000767       data   0x000064
         .udata_Helpers.o      udata   0x0007cb       data   0x000034
          .idata_Reboot.o      idata   0x0007ff       data   0x000001
      .idata_ParamsList.o      idata   0x000800       data   0x000063
   .udata_CustomHTTPApp.o      udata   0x000863       data   0x00005d
           .udata_HTTP2.o      udata   0x0008c0       data   0x000021
              .udata_IP.o      udata   0x0008e1       data   0x000012
            .udata_Tick.o      udata   0x0008f3       data   0x00000a
             .idata_TCP.o      idata   0x0008fd       data   0x000002
            .idata_NBNS.o      idata   0x0008ff       data   0x000001
            .idata_SNMP.o      idata   0x000900       data   0x000057
                  uartbuf      udata   0x000a00       data   0x0000a0
   .udata_CustomSNMPApp.o      udata   0x000aa0       data   0x000105
       TCP.o:TCPPeekArray     actrec   0x000ba5       data   0x000006
   TCP.o:TCPGetRxFIFOFree     actrec   0x000ba5       data   0x000004
        TCP.o:TCPGetArray     actrec   0x000ba5       data   0x000004
             TCP.o:TCPGet     actrec   0x000ba5       data   0x000002
   TCP.o:TCPGetTxFIFOFull     actrec   0x000ba5       data   0x000004
             TCP.o:TCPPut     actrec   0x000ba5       data   0x000002
     HTTP2.o:HTTPLoadConn     actrec   0x000ba5       data   0x000002
         MPFS2.o:MPFSOpen     actrec   0x000ba5       data   0x000018
         ARP.o:ARPProcess     actrec   0x000ba5       data   0x00001c
  MPFS2.o:MPFSGetFilename     actrec   0x000ba5       data   0x000004
 UdpSet.o:SendVersionData     actrec   0x000ba5       data   0x000007
        Helpers.o:strnchr     actrec   0x000ba5       data   0x000001
Helpers.o:FormatNetBIOSName     actrec   0x000ba5       data   0x000001
       ICMP.o:ICMPProcess     actrec   0x000ba5       data   0x000004
         UDP.o:UDPProcess     actrec   0x000ba5       data   0x000019
            UDP.o:UDPInit     actrec   0x000ba5       data   0x000001
         ARP.o:ARPResolve     actrec   0x000ba5       data   0x00001c
   Main.o:FailSafeHandler     actrec   0x000ba5       data   0x000002
  ETH97J60.o:MACGetHeader     actrec   0x000ba5       data   0x000014
         HTTP2.o:HTTPInit     actrec   0x000ba5       data   0x000002
I2cEEPROM.o:EEPROM_ReadMAC     actrec   0x000ba5       data   0x000001
         IP.o:IPGetHeader     actrec   0x000ba5       data   0x000016
     ARP.o:Gratuitous_ARP     actrec   0x000ba5       data   0x00001c
         MPFS2.o:MPFSInit     actrec   0x000ba5       data   0x000001
    ETH97J60.o:ReadPHYReg     actrec   0x000ba5       data   0x000002
   ETH97J60.o:WritePHYReg     actrec   0x000ba5       data   0x000001
      TCP.o:TCPRAMCopyROM     actrec   0x000ba5       data   0x000012
  TCP.o:TCPAdjustFIFOSize     actrec   0x000ba5       data   0x000006
         TCP.o:TCPProcess     actrec   0x000ba5       data   0x000025
  TCP.o:TCPFindROMArrayEx     actrec   0x000ba5       data   0x000031
     TCP.o:TCPFindArrayEx     actrec   0x000ba5       data   0x000030
SNMP.o:ProcessGetSetHeader     actrec   0x000ba5       data   0x000004
  SNMP.o:ProcessVariables     actrec   0x000ba5       data   0x00005c
     SNMP.o:ProcessHeader     actrec   0x000ba5       data   0x000014
 PAL_pUART.o:puart_tx_drv     actrec   0x000ba5       data   0x000001
 PAL_pUART.o:uart_out_adr     actrec   0x000ba5       data   0x000003
          DHCP.o:DHCPInit     actrec   0x000ba5       data   0x000001
        SNMP.o:SNMPNotify     actrec   0x000ba5       data   0x00004c
 SNMP.o:SNMPIsNotifyReady     actrec   0x000ba5       data   0x00000c
 PAL_pUART.o:puart_rx_drv     actrec   0x000ba5       data   0x000001
 Helpers.o:stricmppgm2ram     actrec   0x000ba5       data   0x000002
PAL_pUART.o:puart_control_check     actrec   0x000ba5       data   0x000003
      Reboot.o:RebootTask     actrec   0x000ba5       data   0x00000e
      DHCP.o:_DHCPReceive     actrec   0x000ba5       data   0x000009
ParamsTable.o:SettingsReset     actrec   0x000ba5       data   0x000006
ParamsTable.o:SettingsLoad     actrec   0x000ba5       data   0x000004
    HTTP2.o:HTTPURLDecode     actrec   0x000ba5       data   0x000009
     HTTP2.o:HTTPSendFile     actrec   0x000ba5       data   0x000045
Helpers.o:GenerateRandomDWORD     actrec   0x000ba5       data   0x000014
Helpers.o:StringToIPAddress     actrec   0x000ba5       data   0x000007
Helpers.o:ROMStringToIPAddress     actrec   0x000ba5       data   0x000007
          Helpers.o:uitoa     actrec   0x000ba5       data   0x000006
CustomSNMPApp.o:SNMPSendSpaSibTrap     actrec   0x000ba5       data   0x00000c
Helpers.o:leftRotateDWORD     actrec   0x000ba5       data   0x000002
CustomSNMPApp.o:SNMPGetTimeStamp     actrec   0x000ba5       data   0x000010
         DHCP.o:_DHCPSend     actrec   0x000ba5       data   0x000005
          NBNS.o:NBNSTask     actrec   0x000ba5       data   0x000021
      HTTP2.o:HTTPIncFile     actrec   0x000ba5       data   0x000045
       ETH97J60.o:MACInit     actrec   0x000ba6       data   0x000001
CustomHTTPApp.o:HTTPPrint_config_mac     actrec   0x000ba7       data   0x000001
            TCP.o:TCPOpen     actrec   0x000ba7       data   0x000001
CustomHTTPApp.o:HTTPPrint_OldIP     actrec   0x000bab       data   0x000006
            TCP.o:TCPPeek     actrec   0x000bab       data   0x000001
ParamsTable.o:SettingsSetDefaul     actrec   0x000bab       data   0x000002
     Main.o:InitAppConfig     actrec   0x000bab       data   0x000006
   UdpSet.o:DiscoveryTask     actrec   0x000bac       data   0x000006
      UdpSet.o:AnnounceIP     actrec   0x000bac       data   0x000002
        UDP.o:UDPGetArray     actrec   0x000bae       data   0x000002
          DHCP.o:DHCPTask     actrec   0x000bb0       data   0x000001
PAL_pUART.o:puart_uart_in_an     actrec   0x000bb1       data   0x000007
CustomHTTPApp.o:HTTPPrintIP     actrec   0x000bb1       data   0x000005
ParamsTable.o:SettingsInit     actrec   0x000bb1       data   0x000002
        UDP.o:UDPPutArray     actrec   0x000bb2       data   0x000002
     UDP.o:UDPPutROMArray     actrec   0x000bb2       data   0x000002
     Tick.o:TickGetDiv64K     actrec   0x000bb5       data   0x000004
CustomHTTPApp.o:HTTPPrint_SoftwareVer     actrec   0x000bb7       data   0x000007
CustomHTTPApp.o:HTTPPrint_Site     actrec   0x000bb7       data   0x000012
PAL_pUART.o:puart_uart_in     actrec   0x000bb8       data   0x000003
  SNMP.o:IsValidCommunity     actrec   0x000bb9       data   0x000002
        SNMP.o:IsValidInt     actrec   0x000bb9       data   0x000008
            TCP.o:TCPInit     actrec   0x000bb9       data   0x00000b
        SNMP.o:IsValidPDU     actrec   0x000bb9       data   0x000003
ETH97J60.o:MACCalcRxChecksum     actrec   0x000bbb       data   0x000004
 UDP.o:FindMatchingSocket     actrec   0x000bbe       data   0x000004
            TCP.o:TCPTick     actrec   0x000bc1       data   0x000006
 SNMP.o:SNMPNotifyPrepare     actrec   0x000bc1       data   0x000002
   Helpers.o:LFSRSeedRand     actrec   0x000bc4       data   0x000005
            UDP.o:UDPOpen     actrec   0x000bc6       data   0x000003
       NBNS.o:NBNSPutName     actrec   0x000bc6       data   0x000002
       NBNS.o:NBNSGetName     actrec   0x000bc6       data   0x000003
     TCP.o:TCPPutROMArray     actrec   0x000bc9       data   0x000006
  ETH97J60.o:MACDiscardRx     actrec   0x000bca       data   0x000002
       TCP.o:HandleTCPSeg     actrec   0x000bca       data   0x00001c
 TCP.o:FindMatchingSocket     actrec   0x000bca       data   0x000006
CustomHTTPApp.o:HTTPExecutePost     actrec   0x000bd5       data   0x000014
HTTP2.o:HTTPHeaderParseContentLength     actrec   0x000bd6       data   0x00000c
TCP.o:GetMaxSegSizeOption     actrec   0x000be6       data   0x000004
       Helpers.o:LFSRRand     actrec   0x000be6       data   0x000001
CustomHTTPApp.o:HTTPPostConfig     actrec   0x000be9       data   0x000006
            TCP.o:SendTCP     actrec   0x000bea       data   0x000028
      TCP.o:TCPIsPutReady     actrec   0x000bea       data   0x000001
       MPFS2.o:MPFSOpenID     actrec   0x000bea       data   0x000001
     Tick.o:TickGetDiv256     actrec   0x000bef       data   0x000004
CustomSNMPApp.o:SNMPSpaSibTrapTask     actrec   0x000bf1       data   0x00004a
       HTTP2.o:HTTPReadTo     actrec   0x000bf3       data   0x000003
 HTTP2.o:HTTPReadPostName     actrec   0x000bf6       data   0x000001
HTTP2.o:HTTPReadPostValue     actrec   0x000bf6       data   0x000001
 SNMP.o:ProcessGetNextVar     actrec   0x000c01       data   0x000036
 SNMP.o:ProcessGetBulkVar     actrec   0x000c01       data   0x00002a
    PAL_pUART.o:puart_out     actrec   0x000c01       data   0x000012
         SNMP.o:OIDLookup     actrec   0x000c01       data   0x000013
         SNMP.o:IsASNNull     actrec   0x000c01       data   0x000001
        SNMP.o:IsValidOID     actrec   0x000c01       data   0x000004
    SNMP.o:SetErrorStatus     actrec   0x000c01       data   0x000002
CustomSNMPApp.o:SNMPValidateCommunity     actrec   0x000c01       data   0x000003
 SNMP.o:FindOIDsInRequest     actrec   0x000c01       data   0x000007
SNMP.o:SNMPCheckIfPvtMibObjRequested     actrec   0x000c01       data   0x000005
     Main.o:SaveAppConfig     actrec   0x000c01       data   0x000059
  SNMP.o:IsValidStructure     actrec   0x000c08       data   0x000005
     SNMP.o:IsValidLength     actrec   0x000c0d       data   0x000004
          SNMP.o:_SNMPGet     actrec   0x000c11       data   0x000001
        TCP.o:TCPPutArray     actrec   0x000c12       data   0x000006
     StackTsk.o:StackTask     actrec   0x000c12       data   0x000009
ETH97J60.o:MACGetFreeRxSize     actrec   0x000c1b       data   0x000004
ETH97J60.o:MACSetReadPtrInRx     actrec   0x000c1b       data   0x000002
ETH97J60.o:MACMemCopyAsync     actrec   0x000c1b       data   0x000006
CustomSNMPApp.o:SNMPIdRecrdValidation     actrec   0x000c37       data   0x000008
       SNMP.o:GetNextLeaf     actrec   0x000c37       data   0x000002
     SNMP.o:ProcessGetVar     actrec   0x000c37       data   0x00000f
ETH97J60.o:CalcIPBufferChecksum     actrec   0x000c3b       data   0x00001e
      ETH97J60.o:MACFlush     actrec   0x000c3b       data   0x000001
 ETH97J60.o:MACSetReadPtr     actrec   0x000c3b       data   0x000002
SNMP.o:GetOIDStringByAddr     actrec   0x000c3b       data   0x000026
         IP.o:IPPutHeader     actrec   0x000c3b       data   0x000014
      MPFS2.o:MPFSOpenROM     actrec   0x000c3b       data   0x000019
ETH97J60.o:MACSetWritePtr     actrec   0x000c46       data   0x000002
CustomSNMPApp.o:SNMPGetVar     actrec   0x000c46       data   0x000001
          Helpers.o:swaps     actrec   0x000c4f       data   0x000003
           UDP.o:UDPFlush     actrec   0x000c59       data   0x00001c
      HTTP2.o:HTTPProcess     actrec   0x000c5a       data   0x000019
CustomSNMPApp.o:SNMPSetVar     actrec   0x000c5a       data   0x000059
  SNMP.o:GetOIDStringByID     actrec   0x000c61       data   0x000004
         MPFS2.o:MPFSSeek     actrec   0x000c65       data   0x000004
     SNMP.o:ReadMIBRecord     actrec   0x000c69       data   0x000003
          MPFS2.o:MPFSGet     actrec   0x000c73       data   0x000004
     MPFS2.o:MPFSGetArray     actrec   0x000c73       data   0x000004
   ETH97J60.o:MACGetArray     actrec   0x000c75       data   0x000003
       HTTP2.o:HTTPServer     actrec   0x000c78       data   0x000001
          SNMP.o:SNMPTask     actrec   0x000cb3       data   0x00001e
     SNMP.o:ProcessSetVar     actrec   0x000cd1       data   0x00000c
  Main.o:I2C_Fail_Timeout     actrec   0x000cdd       data   0x000005
 Helpers.o:CalcIPChecksum     actrec   0x000cdd       data   0x000008
ParamsTable.o:TestSaveParam     actrec   0x000ce2       data   0x000002
I2cEEPROM.o:EEPROM_WriteArray     actrec   0x000ce2       data   0x000001
I2cEEPROM.o:EEPROM_ReadByte     actrec   0x000ce4       data   0x000001
ParamsTable.o:SettingsSave     actrec   0x000ce5       data   0x000005
      I2cEEPROM.o:WaitSSP     actrec   0x000cea       data   0x000004
            Main.o:LowISR     actrec   0x000cee       data   0x000001
I2cEEPROM.o:EEPROM_ReadArray     actrec   0x000cef       data   0x000001
                   .stack      udata   0x000d00       data   0x000100
   .idata_CustomSNMPApp.o      idata   0x000e00       data   0x00007b
            .udata_NBNS.o      udata   0x000e7b       data   0x000005
              SFR_BANKED0      udata   0x000e80       data   0x000006
              SFR_BANKED1      udata   0x000e8a       data   0x000001
              SFR_BANKED2      udata   0x000e97       data   0x000003
              SFR_BANKED3      udata   0x000ea0       data   0x000001
              SFR_BANKED4      udata   0x000ea2       data   0x000003
              SFR_BANKED5      udata   0x000ea6       data   0x000002
              SFR_BANKED6      udata   0x000eaa       data   0x000002
              SFR_BANKED7      udata   0x000eb2       data   0x000001
              SFR_BANKED8      udata   0x000eb4       data   0x000001
              SFR_BANKED9      udata   0x000eb6       data   0x000004
             SFR_BANKED10      udata   0x000ec0       data   0x000012
             SFR_BANKED11      udata   0x000ed4       data   0x000002
             SFR_BANKED12      udata   0x000ed8       data   0x000002
             SFR_BANKED13      udata   0x000ee2       data   0x000016
             SFR_BANKED14      udata   0x000efb       data   0x000001
             SFR_BANKED15      udata   0x000efd       data   0x000002
      .idata_DeviceData.o      idata   0x000f00       data   0x000060
            SFR_UNBANKED0      udata   0x000f60       data   0x0000a0



                              Program Memory Usage 
                               Start         End      
                           ---------   ---------      
                            0x000000    0x018843      
                            0x01fff8    0x01fff8      
                            0x01fffa    0x01fffb      
                            0x01fffd    0x01fffd      
            100424 out of 131072 program addresses used, program memory utilization is 76%



                              Symbols - Sorted by Name
                     Name    Address   Location    Storage File                     
                ---------  ---------  ---------  --------- ---------                
                  ARPInit   0x0169f0    program     extern E:\Users\Pal\DEVICES\Kern_dev_\SOFT2\MCHP\Kern_v6\Microchip\TCPIP Stack\ARP.c
            ARPIsResolved   0x016c00    program     extern E:\Users\Pal\DEVICES\Kern_dev_\SOFT2\MCHP\Kern_v6\Microchip\TCPIP Stack\ARP.c
               ARPProcess   0x016a14    program     extern E:\Users\Pal\DEVICES\Kern_dev_\SOFT2\MCHP\Kern_v6\Microchip\TCPIP Stack\ARP.c
                   ARPPut   0x0168e8    program     static E:\Users\Pal\DEVICES\Kern_dev_\SOFT2\MCHP\Kern_v6\Microchip\TCPIP Stack\ARP.c
               ARPResolve   0x016b5e    program     extern E:\Users\Pal\DEVICES\Kern_dev_\SOFT2\MCHP\Kern_v6\Microchip\TCPIP Stack\ARP.c
               AnnounceIP   0x0158bc    program     extern E:\Users\Pal\DEVICES\Kern_dev_\SOFT2\MCHP\Kern_v6\Kern\UdpSet.c
     CalcIPBufferChecksum   0x014b94    program     extern E:\Users\Pal\DEVICES\Kern_dev_\SOFT2\MCHP\Kern_v6\Microchip\TCPIP Stack\ETH97J60.c
           CalcIPChecksum   0x0144c0    program     extern E:\Users\Pal\DEVICES\Kern_dev_\SOFT2\MCHP\Kern_v6\Microchip\TCPIP Stack\Helpers.c
              CloseSocket   0x0030c6    program     static E:\Users\Pal\DEVICES\Kern_dev_\SOFT2\MCHP\Kern_v6\Microchip\TCPIP Stack\TCP.c
                   D0808S   0x017d60    program     static C:\MCC18\src\traditional\math\fxd0808s.asm
                D0808SNEG   0x017d6e    program     static C:\MCC18\src\traditional\math\fxd0808s.asm
                 D0808SOK   0x017d6a    program     static C:\MCC18\src\traditional\math\fxd0808s.asm
                  D0808SX   0x017d74    program     static C:\MCC18\src\traditional\math\fxd0808s.asm
                  DA0808S   0x017d56    program     static C:\MCC18\src\traditional\math\fxd0808s.asm
              DHCPDisable   0x011dee    program     extern E:\Users\Pal\DEVICES\Kern_dev_\SOFT2\MCHP\Kern_v6\Microchip\TCPIP Stack\DHCP.c
               DHCPEnable   0x011e08    program     extern E:\Users\Pal\DEVICES\Kern_dev_\SOFT2\MCHP\Kern_v6\Microchip\TCPIP Stack\DHCP.c
                 DHCPInit   0x011da4    program     extern E:\Users\Pal\DEVICES\Kern_dev_\SOFT2\MCHP\Kern_v6\Microchip\TCPIP Stack\DHCP.c
              DHCPIsBound   0x011e24    program     extern E:\Users\Pal\DEVICES\Kern_dev_\SOFT2\MCHP\Kern_v6\Microchip\TCPIP Stack\DHCP.c
            DHCPIsEnabled   0x011e1a    program     extern E:\Users\Pal\DEVICES\Kern_dev_\SOFT2\MCHP\Kern_v6\Microchip\TCPIP Stack\DHCP.c
     DHCPIsServerDetected   0x011e3a    program     extern E:\Users\Pal\DEVICES\Kern_dev_\SOFT2\MCHP\Kern_v6\Microchip\TCPIP Stack\DHCP.c
         DHCPStateChanged   0x011e2c    program     extern E:\Users\Pal\DEVICES\Kern_dev_\SOFT2\MCHP\Kern_v6\Microchip\TCPIP Stack\DHCP.c
                 DHCPTask   0x011e46    program     extern E:\Users\Pal\DEVICES\Kern_dev_\SOFT2\MCHP\Kern_v6\Microchip\TCPIP Stack\DHCP.c
           DeviceDataInit   0x01811a    program     extern E:\Users\Pal\DEVICES\Kern_dev_\SOFT2\MCHP\Kern_v6\Kern\DeviceData.c
            DiscoveryTask   0x0159a2    program     extern E:\Users\Pal\DEVICES\Kern_dev_\SOFT2\MCHP\Kern_v6\Kern\UdpSet.c
         EEPROM_READ_TEST   0x0179d0    program     extern E:\Users\Pal\DEVICES\Kern_dev_\SOFT2\MCHP\Kern_v6\Kern\I2cEEPROM.c
         EEPROM_ReadArray   0x017a9a    program     extern E:\Users\Pal\DEVICES\Kern_dev_\SOFT2\MCHP\Kern_v6\Kern\I2cEEPROM.c
          EEPROM_ReadByte   0x017964    program     extern E:\Users\Pal\DEVICES\Kern_dev_\SOFT2\MCHP\Kern_v6\Kern\I2cEEPROM.c
           EEPROM_ReadMAC   0x017998    program     extern E:\Users\Pal\DEVICES\Kern_dev_\SOFT2\MCHP\Kern_v6\Kern\I2cEEPROM.c
        EEPROM_WriteArray   0x0179fc    program     extern E:\Users\Pal\DEVICES\Kern_dev_\SOFT2\MCHP\Kern_v6\Kern\I2cEEPROM.c
         EEPROM_WriteByte   0x017940    program     extern E:\Users\Pal\DEVICES\Kern_dev_\SOFT2\MCHP\Kern_v6\Kern\I2cEEPROM.c
                 FXD0808S   0x017d4a    program     extern C:\MCC18\src\traditional\math\fxd0808s.asm
                 FXD0808U   0x0185c4    program     extern C:\MCC18\src\traditional\math\fxd0808u.c
                 FXD1616U   0x018550    program     extern C:\MCC18\src\traditional\math\fxd1616u.c
                 FXD3232U   0x018508    program     extern C:\MCC18\src\traditional\math\fxd3232u.c
                 FXM1616S   0x017d7e    program     extern C:\MCC18\src\traditional\math\fxm1616s.asm
                 FXM1616U   0x017dd8    program     extern C:\MCC18\src\traditional\math\fxm1616u.asm
                 FXM2424U   0x017e14    program     extern C:\MCC18\src\traditional\math\fxm2424u.asm
                  FXM3232   0x018498    program     extern C:\MCC18\src\traditional\math\fxm3232.c
          FailSafeHandler   0x013272    program     extern E:\Users\Pal\DEVICES\Kern_dev_\SOFT2\MCHP\Kern_v6\Kern\Main.c
       FindMatchingSocket   0x013be4    program     static E:\Users\Pal\DEVICES\Kern_dev_\SOFT2\MCHP\Kern_v6\Microchip\TCPIP Stack\UDP.c
       FindMatchingSocket   0x0029f6    program     static E:\Users\Pal\DEVICES\Kern_dev_\SOFT2\MCHP\Kern_v6\Microchip\TCPIP Stack\TCP.c
        FindOIDsInRequest   0x008770    program     static E:\Users\Pal\DEVICES\Kern_dev_\SOFT2\MCHP\Kern_v6\Microchip\TCPIP Stack\SNMP.c
        FormatNetBIOSName   0x0145fe    program     extern E:\Users\Pal\DEVICES\Kern_dev_\SOFT2\MCHP\Kern_v6\Microchip\TCPIP Stack\Helpers.c
      GenerateRandomDWORD   0x013e52    program     extern E:\Users\Pal\DEVICES\Kern_dev_\SOFT2\MCHP\Kern_v6\Microchip\TCPIP Stack\Helpers.c
          GetDataTypeInfo   0x007fea    program     extern E:\Users\Pal\DEVICES\Kern_dev_\SOFT2\MCHP\Kern_v6\Microchip\TCPIP Stack\SNMP.c
    GetHarwareResetStatus   0x012ed4    program     extern E:\Users\Pal\DEVICES\Kern_dev_\SOFT2\MCHP\Kern_v6\Kern\Main.c
      GetMaxSegSizeOption   0x003170    program     static E:\Users\Pal\DEVICES\Kern_dev_\SOFT2\MCHP\Kern_v6\Microchip\TCPIP Stack\TCP.c
              GetNextLeaf   0x0076d8    program     extern E:\Users\Pal\DEVICES\Kern_dev_\SOFT2\MCHP\Kern_v6\Microchip\TCPIP Stack\SNMP.c
       GetOIDStringByAddr   0x007cb8    program     extern E:\Users\Pal\DEVICES\Kern_dev_\SOFT2\MCHP\Kern_v6\Microchip\TCPIP Stack\SNMP.c
         GetOIDStringByID   0x007bc6    program     extern E:\Users\Pal\DEVICES\Kern_dev_\SOFT2\MCHP\Kern_v6\Microchip\TCPIP Stack\SNMP.c
              GetTickCopy   0x0182e8    program     static E:\Users\Pal\DEVICES\Kern_dev_\SOFT2\MCHP\Kern_v6\Microchip\TCPIP Stack\Tick.c
           Gratuitous_ARP   0x016d5e    program     extern E:\Users\Pal\DEVICES\Kern_dev_\SOFT2\MCHP\Kern_v6\Microchip\TCPIP Stack\ARP.c
           HTTPExecuteGet   0x010cd4    program     extern E:\Users\Pal\DEVICES\Kern_dev_\SOFT2\MCHP\Kern_v6\Kern\CustomHTTPApp.c
          HTTPExecutePost   0x010cd6    program     extern E:\Users\Pal\DEVICES\Kern_dev_\SOFT2\MCHP\Kern_v6\Kern\CustomHTTPApp.c
               HTTPGetArg   0x00a4a6    program     extern E:\Users\Pal\DEVICES\Kern_dev_\SOFT2\MCHP\Kern_v6\Microchip\TCPIP Stack\HTTP2.c
            HTTPGetROMArg   0x00a564    program     extern E:\Users\Pal\DEVICES\Kern_dev_\SOFT2\MCHP\Kern_v6\Microchip\TCPIP Stack\HTTP2.c
HTTPHeaderParseContentLength   0x00a292    program     static E:\Users\Pal\DEVICES\Kern_dev_\SOFT2\MCHP\Kern_v6\Microchip\TCPIP Stack\HTTP2.c
    HTTPHeaderParseLookup   0x00a286    program     static E:\Users\Pal\DEVICES\Kern_dev_\SOFT2\MCHP\Kern_v6\Microchip\TCPIP Stack\HTTP2.c
              HTTPIncFile   0x00aa60    program     extern E:\Users\Pal\DEVICES\Kern_dev_\SOFT2\MCHP\Kern_v6\Microchip\TCPIP Stack\HTTP2.c
                 HTTPInit   0x008a06    program     extern E:\Users\Pal\DEVICES\Kern_dev_\SOFT2\MCHP\Kern_v6\Microchip\TCPIP Stack\HTTP2.c
             HTTPLoadConn   0x008bf8    program     static E:\Users\Pal\DEVICES\Kern_dev_\SOFT2\MCHP\Kern_v6\Microchip\TCPIP Stack\HTTP2.c
  HTTPNeedToChangeNetSett   0x0112ae    program     extern E:\Users\Pal\DEVICES\Kern_dev_\SOFT2\MCHP\Kern_v6\Kern\CustomHTTPApp.c
           HTTPPostConfig   0x010d20    program     static E:\Users\Pal\DEVICES\Kern_dev_\SOFT2\MCHP\Kern_v6\Kern\CustomHTTPApp.c
                HTTPPrint   0x008854    program     extern E:\Users\Pal\DEVICES\Kern_dev_\SOFT2\MCHP\Kern_v6\Kern\HTTPPrint.h
              HTTPPrintIP   0x011942    program     extern E:\Users\Pal\DEVICES\Kern_dev_\SOFT2\MCHP\Kern_v6\Kern\CustomHTTPApp.c
               HTTPPrint_   0x0089e0    program     extern E:\Users\Pal\DEVICES\Kern_dev_\SOFT2\MCHP\Kern_v6\Kern\HTTPPrint.h
    HTTPPrint_HardwareVer   0x01136e    program     extern E:\Users\Pal\DEVICES\Kern_dev_\SOFT2\MCHP\Kern_v6\Kern\CustomHTTPApp.c
      HTTPPrint_IsResetIp   0x011b5c    program     extern E:\Users\Pal\DEVICES\Kern_dev_\SOFT2\MCHP\Kern_v6\Kern\CustomHTTPApp.c
        HTTPPrint_McuType   0x0118e6    program     extern E:\Users\Pal\DEVICES\Kern_dev_\SOFT2\MCHP\Kern_v6\Kern\CustomHTTPApp.c
          HTTPPrint_OldIP   0x011bba    program     extern E:\Users\Pal\DEVICES\Kern_dev_\SOFT2\MCHP\Kern_v6\Kern\CustomHTTPApp.c
           HTTPPrint_Site   0x011c36    program     extern E:\Users\Pal\DEVICES\Kern_dev_\SOFT2\MCHP\Kern_v6\Kern\CustomHTTPApp.c
    HTTPPrint_SoftwareVer   0x01139c    program     extern E:\Users\Pal\DEVICES\Kern_dev_\SOFT2\MCHP\Kern_v6\Kern\CustomHTTPApp.c
       HTTPPrint_StackVer   0x011914    program     extern E:\Users\Pal\DEVICES\Kern_dev_\SOFT2\MCHP\Kern_v6\Kern\CustomHTTPApp.c
      HTTPPrint_builddate   0x0112bc    program     extern E:\Users\Pal\DEVICES\Kern_dev_\SOFT2\MCHP\Kern_v6\Kern\CustomHTTPApp.c
      HTTPPrint_config_gw   0x011a0e    program     extern E:\Users\Pal\DEVICES\Kern_dev_\SOFT2\MCHP\Kern_v6\Kern\CustomHTTPApp.c
HTTPPrint_config_hostname   0x0119d0    program     extern E:\Users\Pal\DEVICES\Kern_dev_\SOFT2\MCHP\Kern_v6\Kern\CustomHTTPApp.c
      HTTPPrint_config_ip   0x0119fa    program     extern E:\Users\Pal\DEVICES\Kern_dev_\SOFT2\MCHP\Kern_v6\Kern\CustomHTTPApp.c
     HTTPPrint_config_mac   0x011a36    program     extern E:\Users\Pal\DEVICES\Kern_dev_\SOFT2\MCHP\Kern_v6\Kern\CustomHTTPApp.c
  HTTPPrint_config_subnet   0x011a22    program     extern E:\Users\Pal\DEVICES\Kern_dev_\SOFT2\MCHP\Kern_v6\Kern\CustomHTTPApp.c
         HTTPPrint_macdis   0x011b2e    program     extern E:\Users\Pal\DEVICES\Kern_dev_\SOFT2\MCHP\Kern_v6\Kern\CustomHTTPApp.c
          HTTPPrint_setup   0x011bfc    program     extern E:\Users\Pal\DEVICES\Kern_dev_\SOFT2\MCHP\Kern_v6\Kern\CustomHTTPApp.c
              HTTPProcess   0x008cb6    program     static E:\Users\Pal\DEVICES\Kern_dev_\SOFT2\MCHP\Kern_v6\Microchip\TCPIP Stack\HTTP2.c
         HTTPReadPostName   0x00a65e    program     extern E:\Users\Pal\DEVICES\Kern_dev_\SOFT2\MCHP\Kern_v6\Microchip\TCPIP Stack\HTTP2.c
        HTTPReadPostValue   0x00a69e    program     extern E:\Users\Pal\DEVICES\Kern_dev_\SOFT2\MCHP\Kern_v6\Microchip\TCPIP Stack\HTTP2.c
               HTTPReadTo   0x00a74e    program     static E:\Users\Pal\DEVICES\Kern_dev_\SOFT2\MCHP\Kern_v6\Microchip\TCPIP Stack\HTTP2.c
       HTTPRequestHeaders   0x01848f    program     static E:\Users\Pal\DEVICES\Kern_dev_\SOFT2\MCHP\Kern_v6\Microchip\TCPIP Stack\HTTP2.c
      HTTPResponseHeaders   0x018471    program     static E:\Users\Pal\DEVICES\Kern_dev_\SOFT2\MCHP\Kern_v6\Microchip\TCPIP Stack\HTTP2.c
             HTTPSendFile   0x00a05e    program     static E:\Users\Pal\DEVICES\Kern_dev_\SOFT2\MCHP\Kern_v6\Microchip\TCPIP Stack\HTTP2.c
               HTTPServer   0x008ad4    program     extern E:\Users\Pal\DEVICES\Kern_dev_\SOFT2\MCHP\Kern_v6\Microchip\TCPIP Stack\HTTP2.c
            HTTPURLDecode   0x00a36c    program     extern E:\Users\Pal\DEVICES\Kern_dev_\SOFT2\MCHP\Kern_v6\Microchip\TCPIP Stack\HTTP2.c
                HTTP_CRLF   0x018426    program     static E:\Users\Pal\DEVICES\Kern_dev_\SOFT2\MCHP\Kern_v6\Microchip\TCPIP Stack\HTTP2.c
             HandleTCPSeg   0x003272    program     static E:\Users\Pal\DEVICES\Kern_dev_\SOFT2\MCHP\Kern_v6\Microchip\TCPIP Stack\TCP.c
                  HighISR   0x012a00    program     extern E:\Users\Pal\DEVICES\Kern_dev_\SOFT2\MCHP\Kern_v6\Kern\Main.c
               HighVector   0x000008    program     extern E:\Users\Pal\DEVICES\Kern_dev_\SOFT2\MCHP\Kern_v6\Kern\Main.c
         I2C_Fail_Timeout   0x0132b0    program     extern E:\Users\Pal\DEVICES\Kern_dev_\SOFT2\MCHP\Kern_v6\Kern\Main.c
              ICMPProcess   0x0181fe    program     extern E:\Users\Pal\DEVICES\Kern_dev_\SOFT2\MCHP\Kern_v6\Microchip\TCPIP Stack\ICMP.c
              IPGetHeader   0x0175d0    program     extern E:\Users\Pal\DEVICES\Kern_dev_\SOFT2\MCHP\Kern_v6\Microchip\TCPIP Stack\IP.c
              IPPutHeader   0x0176c2    program     extern E:\Users\Pal\DEVICES\Kern_dev_\SOFT2\MCHP\Kern_v6\Microchip\TCPIP Stack\IP.c
            IPSetRxBuffer   0x0177ae    program     extern E:\Users\Pal\DEVICES\Kern_dev_\SOFT2\MCHP\Kern_v6\Microchip\TCPIP Stack\IP.c
            InitAppConfig   0x012f04    program     static E:\Users\Pal\DEVICES\Kern_dev_\SOFT2\MCHP\Kern_v6\Kern\Main.c
            InitI2cEeprom   0x017872    program     extern E:\Users\Pal\DEVICES\Kern_dev_\SOFT2\MCHP\Kern_v6\Kern\I2cEEPROM.c
          InitializeBoard   0x012d02    program     static E:\Users\Pal\DEVICES\Kern_dev_\SOFT2\MCHP\Kern_v6\Kern\Main.c
                IsASNNull   0x007aa2    program     static E:\Users\Pal\DEVICES\Kern_dev_\SOFT2\MCHP\Kern_v6\Microchip\TCPIP Stack\SNMP.c
         IsValidCommunity   0x007912    program     static E:\Users\Pal\DEVICES\Kern_dev_\SOFT2\MCHP\Kern_v6\Microchip\TCPIP Stack\SNMP.c
               IsValidInt   0x00796e    program     extern E:\Users\Pal\DEVICES\Kern_dev_\SOFT2\MCHP\Kern_v6\Microchip\TCPIP Stack\SNMP.c
            IsValidLength   0x007a34    program     extern E:\Users\Pal\DEVICES\Kern_dev_\SOFT2\MCHP\Kern_v6\Microchip\TCPIP Stack\SNMP.c
               IsValidOID   0x007abc    program     static E:\Users\Pal\DEVICES\Kern_dev_\SOFT2\MCHP\Kern_v6\Microchip\TCPIP Stack\SNMP.c
               IsValidPDU   0x0079f2    program     static E:\Users\Pal\DEVICES\Kern_dev_\SOFT2\MCHP\Kern_v6\Microchip\TCPIP Stack\SNMP.c
         IsValidStructure   0x007b24    program     extern E:\Users\Pal\DEVICES\Kern_dev_\SOFT2\MCHP\Kern_v6\Microchip\TCPIP Stack\SNMP.c
                 LFSRRand   0x013dd2    program     extern E:\Users\Pal\DEVICES\Kern_dev_\SOFT2\MCHP\Kern_v6\Microchip\TCPIP Stack\Helpers.c
             LFSRSeedRand   0x013d74    program     extern E:\Users\Pal\DEVICES\Kern_dev_\SOFT2\MCHP\Kern_v6\Microchip\TCPIP Stack\Helpers.c
                   LowISR   0x0128a4    program     extern E:\Users\Pal\DEVICES\Kern_dev_\SOFT2\MCHP\Kern_v6\Kern\Main.c
                LowVector   0x000018    program     extern E:\Users\Pal\DEVICES\Kern_dev_\SOFT2\MCHP\Kern_v6\Kern\Main.c
        MACCalcRxChecksum   0x014b20    program     extern E:\Users\Pal\DEVICES\Kern_dev_\SOFT2\MCHP\Kern_v6\Microchip\TCPIP Stack\ETH97J60.c
             MACDiscardRx   0x0147ee    program     extern E:\Users\Pal\DEVICES\Kern_dev_\SOFT2\MCHP\Kern_v6\Microchip\TCPIP Stack\ETH97J60.c
                 MACFlush   0x014a70    program     extern E:\Users\Pal\DEVICES\Kern_dev_\SOFT2\MCHP\Kern_v6\Microchip\TCPIP Stack\ETH97J60.c
                   MACGet   0x014e90    program     extern E:\Users\Pal\DEVICES\Kern_dev_\SOFT2\MCHP\Kern_v6\Microchip\TCPIP Stack\ETH97J60.c
              MACGetArray   0x014e94    program     extern E:\Users\Pal\DEVICES\Kern_dev_\SOFT2\MCHP\Kern_v6\Microchip\TCPIP Stack\ETH97J60.c
         MACGetFreeRxSize   0x01485e    program     extern E:\Users\Pal\DEVICES\Kern_dev_\SOFT2\MCHP\Kern_v6\Microchip\TCPIP Stack\ETH97J60.c
             MACGetHeader   0x0148f6    program     extern E:\Users\Pal\DEVICES\Kern_dev_\SOFT2\MCHP\Kern_v6\Microchip\TCPIP Stack\ETH97J60.c
                  MACInit   0x0146b8    program     extern E:\Users\Pal\DEVICES\Kern_dev_\SOFT2\MCHP\Kern_v6\Microchip\TCPIP Stack\ETH97J60.c
              MACIsLinked   0x0147aa    program     extern E:\Users\Pal\DEVICES\Kern_dev_\SOFT2\MCHP\Kern_v6\Microchip\TCPIP Stack\ETH97J60.c
         MACIsMemCopyDone   0x014e84    program     extern E:\Users\Pal\DEVICES\Kern_dev_\SOFT2\MCHP\Kern_v6\Microchip\TCPIP Stack\ETH97J60.c
             MACIsTxReady   0x0147bc    program     extern E:\Users\Pal\DEVICES\Kern_dev_\SOFT2\MCHP\Kern_v6\Microchip\TCPIP Stack\ETH97J60.c
          MACMemCopyAsync   0x014cc8    program     extern E:\Users\Pal\DEVICES\Kern_dev_\SOFT2\MCHP\Kern_v6\Microchip\TCPIP Stack\ETH97J60.c
             MACPowerDown   0x014fce    program     extern E:\Users\Pal\DEVICES\Kern_dev_\SOFT2\MCHP\Kern_v6\Microchip\TCPIP Stack\ETH97J60.c
               MACPowerUp   0x014fe0    program     extern E:\Users\Pal\DEVICES\Kern_dev_\SOFT2\MCHP\Kern_v6\Microchip\TCPIP Stack\ETH97J60.c
                   MACPut   0x014ef6    program     extern E:\Users\Pal\DEVICES\Kern_dev_\SOFT2\MCHP\Kern_v6\Microchip\TCPIP Stack\ETH97J60.c
              MACPutArray   0x014f00    program     extern E:\Users\Pal\DEVICES\Kern_dev_\SOFT2\MCHP\Kern_v6\Microchip\TCPIP Stack\ETH97J60.c
             MACPutHeader   0x014a10    program     extern E:\Users\Pal\DEVICES\Kern_dev_\SOFT2\MCHP\Kern_v6\Microchip\TCPIP Stack\ETH97J60.c
           MACPutROMArray   0x014f32    program     extern E:\Users\Pal\DEVICES\Kern_dev_\SOFT2\MCHP\Kern_v6\Microchip\TCPIP Stack\ETH97J60.c
            MACSetReadPtr   0x014b06    program     extern E:\Users\Pal\DEVICES\Kern_dev_\SOFT2\MCHP\Kern_v6\Microchip\TCPIP Stack\ETH97J60.c
        MACSetReadPtrInRx   0x014a96    program     extern E:\Users\Pal\DEVICES\Kern_dev_\SOFT2\MCHP\Kern_v6\Microchip\TCPIP Stack\ETH97J60.c
           MACSetWritePtr   0x014aec    program     extern E:\Users\Pal\DEVICES\Kern_dev_\SOFT2\MCHP\Kern_v6\Microchip\TCPIP Stack\ETH97J60.c
                MPFSClose   0x00eeb6    program     extern E:\Users\Pal\DEVICES\Kern_dev_\SOFT2\MCHP\Kern_v6\Microchip\TCPIP Stack\MPFS2.c
                  MPFSGet   0x00eefa    program     extern E:\Users\Pal\DEVICES\Kern_dev_\SOFT2\MCHP\Kern_v6\Microchip\TCPIP Stack\MPFS2.c
             MPFSGetArray   0x00f034    program     extern E:\Users\Pal\DEVICES\Kern_dev_\SOFT2\MCHP\Kern_v6\Microchip\TCPIP Stack\MPFS2.c
          MPFSGetBytesRem   0x00f82e    program     extern E:\Users\Pal\DEVICES\Kern_dev_\SOFT2\MCHP\Kern_v6\Microchip\TCPIP Stack\MPFS2.c
           MPFSGetEndAddr   0x00f95e    program     extern E:\Users\Pal\DEVICES\Kern_dev_\SOFT2\MCHP\Kern_v6\Microchip\TCPIP Stack\MPFS2.c
          MPFSGetFilename   0x00fa14    program     extern E:\Users\Pal\DEVICES\Kern_dev_\SOFT2\MCHP\Kern_v6\Microchip\TCPIP Stack\MPFS2.c
             MPFSGetFlags   0x00f71a    program     extern E:\Users\Pal\DEVICES\Kern_dev_\SOFT2\MCHP\Kern_v6\Microchip\TCPIP Stack\MPFS2.c
                MPFSGetID   0x00fb4c    program     extern E:\Users\Pal\DEVICES\Kern_dev_\SOFT2\MCHP\Kern_v6\Microchip\TCPIP Stack\MPFS2.c
              MPFSGetLong   0x00f1de    program     extern E:\Users\Pal\DEVICES\Kern_dev_\SOFT2\MCHP\Kern_v6\Microchip\TCPIP Stack\MPFS2.c
         MPFSGetMicrotime   0x00f68a    program     extern E:\Users\Pal\DEVICES\Kern_dev_\SOFT2\MCHP\Kern_v6\Microchip\TCPIP Stack\MPFS2.c
          MPFSGetPosition   0x00fad0    program     extern E:\Users\Pal\DEVICES\Kern_dev_\SOFT2\MCHP\Kern_v6\Microchip\TCPIP Stack\MPFS2.c
              MPFSGetSize   0x00f79e    program     extern E:\Users\Pal\DEVICES\Kern_dev_\SOFT2\MCHP\Kern_v6\Microchip\TCPIP Stack\MPFS2.c
         MPFSGetStartAddr   0x00f8c4    program     extern E:\Users\Pal\DEVICES\Kern_dev_\SOFT2\MCHP\Kern_v6\Microchip\TCPIP Stack\MPFS2.c
         MPFSGetTimestamp   0x00f5fa    program     extern E:\Users\Pal\DEVICES\Kern_dev_\SOFT2\MCHP\Kern_v6\Microchip\TCPIP Stack\MPFS2.c
                 MPFSInit   0x00e7fa    program     extern E:\Users\Pal\DEVICES\Kern_dev_\SOFT2\MCHP\Kern_v6\Microchip\TCPIP Stack\MPFS2.c
                 MPFSOpen   0x00e84c    program     extern E:\Users\Pal\DEVICES\Kern_dev_\SOFT2\MCHP\Kern_v6\Microchip\TCPIP Stack\MPFS2.c
               MPFSOpenID   0x00ed9c    program     extern E:\Users\Pal\DEVICES\Kern_dev_\SOFT2\MCHP\Kern_v6\Microchip\TCPIP Stack\MPFS2.c
              MPFSOpenROM   0x00eade    program     extern E:\Users\Pal\DEVICES\Kern_dev_\SOFT2\MCHP\Kern_v6\Microchip\TCPIP Stack\MPFS2.c
                 MPFSSeek   0x00f206    program     extern E:\Users\Pal\DEVICES\Kern_dev_\SOFT2\MCHP\Kern_v6\Microchip\TCPIP Stack\MPFS2.c
              MPFS_000001   0x00d1f6    program     extern E:\Users\Pal\DEVICES\Kern_dev_\SOFT2\MCHP\Kern_v6\Kern\MPFSImg2.c
              MPFS_000002   0x00d5f6    program     extern E:\Users\Pal\DEVICES\Kern_dev_\SOFT2\MCHP\Kern_v6\Kern\MPFSImg2.c
              MPFS_000003   0x00d9f6    program     extern E:\Users\Pal\DEVICES\Kern_dev_\SOFT2\MCHP\Kern_v6\Kern\MPFSImg2.c
              MPFS_000004   0x00ddf6    program     extern E:\Users\Pal\DEVICES\Kern_dev_\SOFT2\MCHP\Kern_v6\Kern\MPFSImg2.c
              MPFS_000005   0x00e1f6    program     extern E:\Users\Pal\DEVICES\Kern_dev_\SOFT2\MCHP\Kern_v6\Kern\MPFSImg2.c
              MPFS_000006   0x00e5f6    program     extern E:\Users\Pal\DEVICES\Kern_dev_\SOFT2\MCHP\Kern_v6\Kern\MPFSImg2.c
               MPFS_Start   0x00cdf6    program     extern E:\Users\Pal\DEVICES\Kern_dev_\SOFT2\MCHP\Kern_v6\Kern\MPFSImg2.c
              NBNSGetName   0x0171fa    program     static E:\Users\Pal\DEVICES\Kern_dev_\SOFT2\MCHP\Kern_v6\Microchip\TCPIP Stack\NBNS.c
              NBNSPutName   0x0171a2    program     static E:\Users\Pal\DEVICES\Kern_dev_\SOFT2\MCHP\Kern_v6\Microchip\TCPIP Stack\NBNS.c
                 NBNSTask   0x016e32    program     extern E:\Users\Pal\DEVICES\Kern_dev_\SOFT2\MCHP\Kern_v6\Microchip\TCPIP Stack\NBNS.c
                OIDLookup   0x007200    program     extern E:\Users\Pal\DEVICES\Kern_dev_\SOFT2\MCHP\Kern_v6\Microchip\TCPIP Stack\SNMP.c
           PollResetButon   0x012e42    program     static E:\Users\Pal\DEVICES\Kern_dev_\SOFT2\MCHP\Kern_v6\Kern\Main.c
        ProcessGetBulkVar   0x006dea    program     extern E:\Users\Pal\DEVICES\Kern_dev_\SOFT2\MCHP\Kern_v6\Microchip\TCPIP Stack\SNMP.c
        ProcessGetNextVar   0x006a70    program     extern E:\Users\Pal\DEVICES\Kern_dev_\SOFT2\MCHP\Kern_v6\Microchip\TCPIP Stack\SNMP.c
      ProcessGetSetHeader   0x00554c    program     static E:\Users\Pal\DEVICES\Kern_dev_\SOFT2\MCHP\Kern_v6\Microchip\TCPIP Stack\SNMP.c
            ProcessGetVar   0x00851c    program     extern E:\Users\Pal\DEVICES\Kern_dev_\SOFT2\MCHP\Kern_v6\Microchip\TCPIP Stack\SNMP.c
            ProcessHeader   0x00538a    program     static E:\Users\Pal\DEVICES\Kern_dev_\SOFT2\MCHP\Kern_v6\Microchip\TCPIP Stack\SNMP.c
            ProcessSetVar   0x0080c8    program     extern E:\Users\Pal\DEVICES\Kern_dev_\SOFT2\MCHP\Kern_v6\Microchip\TCPIP Stack\SNMP.c
         ProcessVariables   0x005634    program     static E:\Users\Pal\DEVICES\Kern_dev_\SOFT2\MCHP\Kern_v6\Microchip\TCPIP Stack\SNMP.c
     ROMStringToIPAddress   0x014104    program     extern E:\Users\Pal\DEVICES\Kern_dev_\SOFT2\MCHP\Kern_v6\Microchip\TCPIP Stack\Helpers.c
            ReadMIBRecord   0x007dfe    program     static E:\Users\Pal\DEVICES\Kern_dev_\SOFT2\MCHP\Kern_v6\Microchip\TCPIP Stack\SNMP.c
               ReadPHYReg   0x014f6e    program     extern E:\Users\Pal\DEVICES\Kern_dev_\SOFT2\MCHP\Kern_v6\Microchip\TCPIP Stack\ETH97J60.c
               RebootTask   0x017ffc    program     extern E:\Users\Pal\DEVICES\Kern_dev_\SOFT2\MCHP\Kern_v6\Microchip\TCPIP Stack\Reboot.c
              ReceiveByte   0x01790c    program     extern E:\Users\Pal\DEVICES\Kern_dev_\SOFT2\MCHP\Kern_v6\Kern\I2cEEPROM.c
          RestoreSettings   0x012d2a    program     extern E:\Users\Pal\DEVICES\Kern_dev_\SOFT2\MCHP\Kern_v6\Kern\Main.c
SNMPCheckIfPvtMibObjRequested   0x0087f4    program     static E:\Users\Pal\DEVICES\Kern_dev_\SOFT2\MCHP\Kern_v6\Microchip\TCPIP Stack\SNMP.c
        SNMPGetExactIndex   0x00c078    program     extern E:\Users\Pal\DEVICES\Kern_dev_\SOFT2\MCHP\Kern_v6\Kern\CustomSNMPApp.c
         SNMPGetNextIndex   0x00c07a    program     extern E:\Users\Pal\DEVICES\Kern_dev_\SOFT2\MCHP\Kern_v6\Kern\CustomSNMPApp.c
         SNMPGetTimeStamp   0x00cbe4    program     static E:\Users\Pal\DEVICES\Kern_dev_\SOFT2\MCHP\Kern_v6\Kern\CustomSNMPApp.c
               SNMPGetVar   0x00c3a0    program     extern E:\Users\Pal\DEVICES\Kern_dev_\SOFT2\MCHP\Kern_v6\Kern\CustomSNMPApp.c
    SNMPIdRecrdValidation   0x00c07c    program     extern E:\Users\Pal\DEVICES\Kern_dev_\SOFT2\MCHP\Kern_v6\Kern\CustomSNMPApp.c
                 SNMPInit   0x004874    program     extern E:\Users\Pal\DEVICES\Kern_dev_\SOFT2\MCHP\Kern_v6\Microchip\TCPIP Stack\SNMP.c
        SNMPIsNotifyReady   0x004a02    program     extern E:\Users\Pal\DEVICES\Kern_dev_\SOFT2\MCHP\Kern_v6\Microchip\TCPIP Stack\SNMP.c
        SNMPIsValidSetLen   0x00b1f6    program     extern E:\Users\Pal\DEVICES\Kern_dev_\SOFT2\MCHP\Kern_v6\Kern\CustomSNMPApp.c
  SNMPNeedToChangeNetSett   0x00abd6    program     extern E:\Users\Pal\DEVICES\Kern_dev_\SOFT2\MCHP\Kern_v6\Kern\CustomSNMPApp.c
               SNMPNotify   0x004b36    program     extern E:\Users\Pal\DEVICES\Kern_dev_\SOFT2\MCHP\Kern_v6\Microchip\TCPIP Stack\SNMP.c
        SNMPNotifyPrepare   0x0049b6    program     extern E:\Users\Pal\DEVICES\Kern_dev_\SOFT2\MCHP\Kern_v6\Microchip\TCPIP Stack\SNMP.c
       SNMPSendSpaSibTrap   0x00ad60    program     extern E:\Users\Pal\DEVICES\Kern_dev_\SOFT2\MCHP\Kern_v6\Kern\CustomSNMPApp.c
    SNMPSendSpaSibTrapAll   0x00abe4    program     extern E:\Users\Pal\DEVICES\Kern_dev_\SOFT2\MCHP\Kern_v6\Kern\CustomSNMPApp.c
               SNMPSetVar   0x00b242    program     extern E:\Users\Pal\DEVICES\Kern_dev_\SOFT2\MCHP\Kern_v6\Kern\CustomSNMPApp.c
       SNMPSpaSibTrapTask   0x00ae04    program     extern E:\Users\Pal\DEVICES\Kern_dev_\SOFT2\MCHP\Kern_v6\Kern\CustomSNMPApp.c
                 SNMPTask   0x0048c8    program     extern E:\Users\Pal\DEVICES\Kern_dev_\SOFT2\MCHP\Kern_v6\Microchip\TCPIP Stack\SNMP.c
    SNMPValidateCommunity   0x00b0f0    program     extern E:\Users\Pal\DEVICES\Kern_dev_\SOFT2\MCHP\Kern_v6\Kern\CustomSNMPApp.c
            SaveAppConfig   0x0131f4    program     extern E:\Users\Pal\DEVICES\Kern_dev_\SOFT2\MCHP\Kern_v6\Kern\Main.c
                  SendAck   0x01791c    program     extern E:\Users\Pal\DEVICES\Kern_dev_\SOFT2\MCHP\Kern_v6\Kern\I2cEEPROM.c
                 SendByte   0x0178fa    program     extern E:\Users\Pal\DEVICES\Kern_dev_\SOFT2\MCHP\Kern_v6\Kern\I2cEEPROM.c
          SendDataToUdpTx   0x015b30    program     extern E:\Users\Pal\DEVICES\Kern_dev_\SOFT2\MCHP\Kern_v6\Kern\UdpSet.c
                   SendID   0x017924    program     extern E:\Users\Pal\DEVICES\Kern_dev_\SOFT2\MCHP\Kern_v6\Kern\I2cEEPROM.c
                 SendNack   0x017914    program     extern E:\Users\Pal\DEVICES\Kern_dev_\SOFT2\MCHP\Kern_v6\Kern\I2cEEPROM.c
              SendRestart   0x0178f4    program     extern E:\Users\Pal\DEVICES\Kern_dev_\SOFT2\MCHP\Kern_v6\Kern\I2cEEPROM.c
                SendStart   0x0178e8    program     extern E:\Users\Pal\DEVICES\Kern_dev_\SOFT2\MCHP\Kern_v6\Kern\I2cEEPROM.c
                 SendStop   0x0178ee    program     extern E:\Users\Pal\DEVICES\Kern_dev_\SOFT2\MCHP\Kern_v6\Kern\I2cEEPROM.c
                  SendTCP   0x002372    program     static E:\Users\Pal\DEVICES\Kern_dev_\SOFT2\MCHP\Kern_v6\Microchip\TCPIP Stack\TCP.c
          SendVersionData   0x015b48    program     extern E:\Users\Pal\DEVICES\Kern_dev_\SOFT2\MCHP\Kern_v6\Kern\UdpSet.c
     SerializedMACAddress   0x0185f8    program     static E:\Users\Pal\DEVICES\Kern_dev_\SOFT2\MCHP\Kern_v6\Kern\Main.c
           SetErrorStatus   0x00873e    program     extern E:\Users\Pal\DEVICES\Kern_dev_\SOFT2\MCHP\Kern_v6\Microchip\TCPIP Stack\SNMP.c
                  SetMyIP   0x012d78    program     extern E:\Users\Pal\DEVICES\Kern_dev_\SOFT2\MCHP\Kern_v6\Kern\Main.c
             SettingsInit   0x014ff0    program     extern E:\Users\Pal\DEVICES\Kern_dev_\SOFT2\MCHP\Kern_v6\Kern\ParamsTable.c
             SettingsLoad   0x015096    program     extern E:\Users\Pal\DEVICES\Kern_dev_\SOFT2\MCHP\Kern_v6\Kern\ParamsTable.c
      SettingsLoadPointer   0x0152fa    program     extern E:\Users\Pal\DEVICES\Kern_dev_\SOFT2\MCHP\Kern_v6\Kern\ParamsTable.c
            SettingsReset   0x015764    program     extern E:\Users\Pal\DEVICES\Kern_dev_\SOFT2\MCHP\Kern_v6\Kern\ParamsTable.c
     SettingsResetPointer   0x0158ba    program     extern E:\Users\Pal\DEVICES\Kern_dev_\SOFT2\MCHP\Kern_v6\Kern\ParamsTable.c
             SettingsSave   0x015358    program     extern E:\Users\Pal\DEVICES\Kern_dev_\SOFT2\MCHP\Kern_v6\Kern\ParamsTable.c
      SettingsSavePointer   0x015762    program     extern E:\Users\Pal\DEVICES\Kern_dev_\SOFT2\MCHP\Kern_v6\Kern\ParamsTable.c
        SettingsSetDefaul   0x01504e    program     extern E:\Users\Pal\DEVICES\Kern_dev_\SOFT2\MCHP\Kern_v6\Kern\ParamsTable.c
           SpaSibSNMPInit   0x004896    program     extern E:\Users\Pal\DEVICES\Kern_dev_\SOFT2\MCHP\Kern_v6\Microchip\TCPIP Stack\SNMP.c
        StackApplications   0x017d3a    program     extern E:\Users\Pal\DEVICES\Kern_dev_\SOFT2\MCHP\Kern_v6\Microchip\TCPIP Stack\StackTsk.c
                StackInit   0x017ae6    program     extern E:\Users\Pal\DEVICES\Kern_dev_\SOFT2\MCHP\Kern_v6\Microchip\TCPIP Stack\StackTsk.c
                StackTask   0x017b36    program     extern E:\Users\Pal\DEVICES\Kern_dev_\SOFT2\MCHP\Kern_v6\Microchip\TCPIP Stack\StackTsk.c
        StringToIPAddress   0x013f96    program     extern E:\Users\Pal\DEVICES\Kern_dev_\SOFT2\MCHP\Kern_v6\Microchip\TCPIP Stack\Helpers.c
            SwapARPPacket   0x016cc0    program     extern E:\Users\Pal\DEVICES\Kern_dev_\SOFT2\MCHP\Kern_v6\Microchip\TCPIP Stack\ARP.c
             SwapIPHeader   0x0177c8    program     static E:\Users\Pal\DEVICES\Kern_dev_\SOFT2\MCHP\Kern_v6\Microchip\TCPIP Stack\IP.c
            SwapTCPHeader   0x002f10    program     static E:\Users\Pal\DEVICES\Kern_dev_\SOFT2\MCHP\Kern_v6\Microchip\TCPIP Stack\TCP.c
                  SyncTCB   0x00018c    program     static E:\Users\Pal\DEVICES\Kern_dev_\SOFT2\MCHP\Kern_v6\Microchip\TCPIP Stack\TCP.c
              SyncTCBStub   0x0000f8    program     static E:\Users\Pal\DEVICES\Kern_dev_\SOFT2\MCHP\Kern_v6\Microchip\TCPIP Stack\TCP.c
        TCPAdjustFIFOSize   0x004448    program     extern E:\Users\Pal\DEVICES\Kern_dev_\SOFT2\MCHP\Kern_v6\Microchip\TCPIP Stack\TCP.c
                 TCPClose   0x000798    program     extern E:\Users\Pal\DEVICES\Kern_dev_\SOFT2\MCHP\Kern_v6\Microchip\TCPIP Stack\TCP.c
               TCPDiscard   0x000dee    program     extern E:\Users\Pal\DEVICES\Kern_dev_\SOFT2\MCHP\Kern_v6\Microchip\TCPIP Stack\TCP.c
            TCPDisconnect   0x0006da    program     extern E:\Users\Pal\DEVICES\Kern_dev_\SOFT2\MCHP\Kern_v6\Microchip\TCPIP Stack\TCP.c
           TCPFindArrayEx   0x0012b6    program     extern E:\Users\Pal\DEVICES\Kern_dev_\SOFT2\MCHP\Kern_v6\Microchip\TCPIP Stack\TCP.c
                TCPFindEx   0x001a5c    program     extern E:\Users\Pal\DEVICES\Kern_dev_\SOFT2\MCHP\Kern_v6\Microchip\TCPIP Stack\TCP.c
        TCPFindROMArrayEx   0x00166e    program     extern E:\Users\Pal\DEVICES\Kern_dev_\SOFT2\MCHP\Kern_v6\Microchip\TCPIP Stack\TCP.c
                 TCPFlush   0x0007ec    program     extern E:\Users\Pal\DEVICES\Kern_dev_\SOFT2\MCHP\Kern_v6\Microchip\TCPIP Stack\TCP.c
                   TCPGet   0x000e90    program     extern E:\Users\Pal\DEVICES\Kern_dev_\SOFT2\MCHP\Kern_v6\Microchip\TCPIP Stack\TCP.c
              TCPGetArray   0x000f40    program     extern E:\Users\Pal\DEVICES\Kern_dev_\SOFT2\MCHP\Kern_v6\Microchip\TCPIP Stack\TCP.c
         TCPGetRemoteInfo   0x0007aa    program     extern E:\Users\Pal\DEVICES\Kern_dev_\SOFT2\MCHP\Kern_v6\Microchip\TCPIP Stack\TCP.c
         TCPGetRxFIFOFree   0x0010cc    program     extern E:\Users\Pal\DEVICES\Kern_dev_\SOFT2\MCHP\Kern_v6\Microchip\TCPIP Stack\TCP.c
         TCPGetTxFIFOFull   0x000d9c    program     extern E:\Users\Pal\DEVICES\Kern_dev_\SOFT2\MCHP\Kern_v6\Microchip\TCPIP Stack\TCP.c
                  TCPInit   0x00023a    program     extern E:\Users\Pal\DEVICES\Kern_dev_\SOFT2\MCHP\Kern_v6\Microchip\TCPIP Stack\TCP.c
           TCPIsConnected   0x0006c8    program     extern E:\Users\Pal\DEVICES\Kern_dev_\SOFT2\MCHP\Kern_v6\Microchip\TCPIP Stack\TCP.c
            TCPIsGetReady   0x000e24    program     extern E:\Users\Pal\DEVICES\Kern_dev_\SOFT2\MCHP\Kern_v6\Microchip\TCPIP Stack\TCP.c
            TCPIsPutReady   0x00081a    program     extern E:\Users\Pal\DEVICES\Kern_dev_\SOFT2\MCHP\Kern_v6\Microchip\TCPIP Stack\TCP.c
                  TCPOpen   0x0004fa    program     extern E:\Users\Pal\DEVICES\Kern_dev_\SOFT2\MCHP\Kern_v6\Microchip\TCPIP Stack\TCP.c
                  TCPPeek   0x001290    program     extern E:\Users\Pal\DEVICES\Kern_dev_\SOFT2\MCHP\Kern_v6\Microchip\TCPIP Stack\TCP.c
             TCPPeekArray   0x00110c    program     extern E:\Users\Pal\DEVICES\Kern_dev_\SOFT2\MCHP\Kern_v6\Microchip\TCPIP Stack\TCP.c
               TCPProcess   0x002226    program     extern E:\Users\Pal\DEVICES\Kern_dev_\SOFT2\MCHP\Kern_v6\Microchip\TCPIP Stack\TCP.c
                   TCPPut   0x0008ac    program     extern E:\Users\Pal\DEVICES\Kern_dev_\SOFT2\MCHP\Kern_v6\Microchip\TCPIP Stack\TCP.c
              TCPPutArray   0x00099c    program     extern E:\Users\Pal\DEVICES\Kern_dev_\SOFT2\MCHP\Kern_v6\Microchip\TCPIP Stack\TCP.c
           TCPPutROMArray   0x000b4e    program     extern E:\Users\Pal\DEVICES\Kern_dev_\SOFT2\MCHP\Kern_v6\Microchip\TCPIP Stack\TCP.c
          TCPPutROMString   0x000d46    program     extern E:\Users\Pal\DEVICES\Kern_dev_\SOFT2\MCHP\Kern_v6\Microchip\TCPIP Stack\TCP.c
             TCPPutString   0x000d06    program     extern E:\Users\Pal\DEVICES\Kern_dev_\SOFT2\MCHP\Kern_v6\Microchip\TCPIP Stack\TCP.c
               TCPRAMCopy   0x0046cc    program     static E:\Users\Pal\DEVICES\Kern_dev_\SOFT2\MCHP\Kern_v6\Microchip\TCPIP Stack\TCP.c
            TCPRAMCopyROM   0x004790    program     static E:\Users\Pal\DEVICES\Kern_dev_\SOFT2\MCHP\Kern_v6\Microchip\TCPIP Stack\TCP.c
     TCPSocketInitializer   0x0185e0    program     extern E:\Users\Pal\DEVICES\Kern_dev_\SOFT2\MCHP\Kern_v6\Kern\Alternative Configurations\TCPIPConfig_Kern.h
                  TCPTick   0x001a8a    program     extern E:\Users\Pal\DEVICES\Kern_dev_\SOFT2\MCHP\Kern_v6\Microchip\TCPIP Stack\TCP.c
              TCPWasReset   0x0006b4    program     extern E:\Users\Pal\DEVICES\Kern_dev_\SOFT2\MCHP\Kern_v6\Microchip\TCPIP Stack\TCP.c
               TSIGN1616A   0x017dca    program     static C:\MCC18\src\traditional\math\fxm1616s.asm
            TestSaveParam   0x0152fc    program     extern E:\Users\Pal\DEVICES\Kern_dev_\SOFT2\MCHP\Kern_v6\Kern\ParamsTable.c
TickConvertToMilliseconds   0x01834a    program     extern E:\Users\Pal\DEVICES\Kern_dev_\SOFT2\MCHP\Kern_v6\Microchip\TCPIP Stack\Tick.c
                  TickGet   0x01830e    program     extern E:\Users\Pal\DEVICES\Kern_dev_\SOFT2\MCHP\Kern_v6\Microchip\TCPIP Stack\Tick.c
            TickGetDiv256   0x018322    program     extern E:\Users\Pal\DEVICES\Kern_dev_\SOFT2\MCHP\Kern_v6\Microchip\TCPIP Stack\Tick.c
            TickGetDiv64K   0x018336    program     extern E:\Users\Pal\DEVICES\Kern_dev_\SOFT2\MCHP\Kern_v6\Microchip\TCPIP Stack\Tick.c
                 TickInit   0x0182d8    program     extern E:\Users\Pal\DEVICES\Kern_dev_\SOFT2\MCHP\Kern_v6\Microchip\TCPIP Stack\Tick.c
               TickUpdate   0x018374    program     extern E:\Users\Pal\DEVICES\Kern_dev_\SOFT2\MCHP\Kern_v6\Microchip\TCPIP Stack\Tick.c
            TxFifoIsEmpty   0x00abc8    program     static E:\Users\Pal\DEVICES\Kern_dev_\SOFT2\MCHP\Kern_v6\Kern\CustomSNMPApp.c
             TxFifoIsFull   0x00abb8    program     static E:\Users\Pal\DEVICES\Kern_dev_\SOFT2\MCHP\Kern_v6\Kern\CustomSNMPApp.c
                 UDPClose   0x01348c    program     extern E:\Users\Pal\DEVICES\Kern_dev_\SOFT2\MCHP\Kern_v6\Microchip\TCPIP Stack\UDP.c
               UDPDiscard   0x013a70    program     extern E:\Users\Pal\DEVICES\Kern_dev_\SOFT2\MCHP\Kern_v6\Microchip\TCPIP Stack\UDP.c
                 UDPFlush   0x0137ba    program     extern E:\Users\Pal\DEVICES\Kern_dev_\SOFT2\MCHP\Kern_v6\Microchip\TCPIP Stack\UDP.c
                   UDPGet   0x0139b8    program     extern E:\Users\Pal\DEVICES\Kern_dev_\SOFT2\MCHP\Kern_v6\Microchip\TCPIP Stack\UDP.c
              UDPGetArray   0x0139ee    program     extern E:\Users\Pal\DEVICES\Kern_dev_\SOFT2\MCHP\Kern_v6\Microchip\TCPIP Stack\UDP.c
                  UDPInit   0x013334    program     extern E:\Users\Pal\DEVICES\Kern_dev_\SOFT2\MCHP\Kern_v6\Microchip\TCPIP Stack\UDP.c
            UDPIsGetReady   0x01397a    program     extern E:\Users\Pal\DEVICES\Kern_dev_\SOFT2\MCHP\Kern_v6\Microchip\TCPIP Stack\UDP.c
            UDPIsPutReady   0x013548    program     extern E:\Users\Pal\DEVICES\Kern_dev_\SOFT2\MCHP\Kern_v6\Microchip\TCPIP Stack\UDP.c
                  UDPOpen   0x013358    program     extern E:\Users\Pal\DEVICES\Kern_dev_\SOFT2\MCHP\Kern_v6\Microchip\TCPIP Stack\UDP.c
               UDPProcess   0x013a8a    program     extern E:\Users\Pal\DEVICES\Kern_dev_\SOFT2\MCHP\Kern_v6\Microchip\TCPIP Stack\UDP.c
                   UDPPut   0x0135ac    program     extern E:\Users\Pal\DEVICES\Kern_dev_\SOFT2\MCHP\Kern_v6\Microchip\TCPIP Stack\UDP.c
              UDPPutArray   0x0135f8    program     extern E:\Users\Pal\DEVICES\Kern_dev_\SOFT2\MCHP\Kern_v6\Microchip\TCPIP Stack\UDP.c
           UDPPutROMArray   0x013690    program     extern E:\Users\Pal\DEVICES\Kern_dev_\SOFT2\MCHP\Kern_v6\Microchip\TCPIP Stack\UDP.c
          UDPPutROMString   0x013768    program     extern E:\Users\Pal\DEVICES\Kern_dev_\SOFT2\MCHP\Kern_v6\Microchip\TCPIP Stack\UDP.c
             UDPPutString   0x01372c    program     extern E:\Users\Pal\DEVICES\Kern_dev_\SOFT2\MCHP\Kern_v6\Microchip\TCPIP Stack\UDP.c
           UDPSetRxBuffer   0x013526    program     extern E:\Users\Pal\DEVICES\Kern_dev_\SOFT2\MCHP\Kern_v6\Microchip\TCPIP Stack\UDP.c
           UDPSetTxBuffer   0x0134d8    program     extern E:\Users\Pal\DEVICES\Kern_dev_\SOFT2\MCHP\Kern_v6\Microchip\TCPIP Stack\UDP.c
                  UDPTask   0x013352    program     extern E:\Users\Pal\DEVICES\Kern_dev_\SOFT2\MCHP\Kern_v6\Microchip\TCPIP Stack\UDP.c
                  WaitSSP   0x01788a    program     extern E:\Users\Pal\DEVICES\Kern_dev_\SOFT2\MCHP\Kern_v6\Kern\I2cEEPROM.c
              WritePHYReg   0x014f9e    program     extern E:\Users\Pal\DEVICES\Kern_dev_\SOFT2\MCHP\Kern_v6\Microchip\TCPIP Stack\ETH97J60.c
                  _14jEnd   0x017fc4    program     static C:\MCC18\src\traditional\stdclib\atol.asm
              _2jContinue   0x0173f6    program     static C:\MCC18\src\traditional\stdclib\memset.asm
                   _2jEnd   0x01753a    program     static C:\MCC18\src\traditional\stdclib\slenpgm.asm
              _3jContinue   0x017326    program     static C:\MCC18\src\traditional\stdclib\mcmpp2r.asm
              _3jContinue   0x0173c2    program     static C:\MCC18\src\traditional\stdclib\mcpyp2r.asm
                   _3jEnd   0x017400    program     static C:\MCC18\src\traditional\stdclib\memset.asm
              _4jContinue   0x01757c    program     static C:\MCC18\src\traditional\stdclib\strncmp.asm
              _4jContinue   0x0172d6    program     static C:\MCC18\src\traditional\stdclib\memcmp.asm
              _4jContinue   0x01736e    program     static C:\MCC18\src\traditional\stdclib\memcpy.asm
                   _4jEnd   0x017330    program     static C:\MCC18\src\traditional\stdclib\mcmpp2r.asm
                   _4jEnd   0x0173cc    program     static C:\MCC18\src\traditional\stdclib\mcpyp2r.asm
                   _5jEnd   0x0172e0    program     static C:\MCC18\src\traditional\stdclib\memcmp.asm
                   _5jEnd   0x017586    program     static C:\MCC18\src\traditional\stdclib\strncmp.asm
                   _5jEnd   0x017378    program     static C:\MCC18\src\traditional\stdclib\memcpy.asm
             _DHCPReceive   0x0122b6    program     static E:\Users\Pal\DEVICES\Kern_dev_\SOFT2\MCHP\Kern_v6\Microchip\TCPIP Stack\DHCP.c
                _DHCPSend   0x012630    program     static E:\Users\Pal\DEVICES\Kern_dev_\SOFT2\MCHP\Kern_v6\Microchip\TCPIP Stack\DHCP.c
           _LoadFATRecord   0x00f560    program     static E:\Users\Pal\DEVICES\Kern_dev_\SOFT2\MCHP\Kern_v6\Microchip\TCPIP Stack\MPFS2.c
          _SNMPDuplexInit   0x007b5c    program     extern E:\Users\Pal\DEVICES\Kern_dev_\SOFT2\MCHP\Kern_v6\Microchip\TCPIP Stack\SNMP.c
                 _SNMPGet   0x007b9e    program     extern E:\Users\Pal\DEVICES\Kern_dev_\SOFT2\MCHP\Kern_v6\Microchip\TCPIP Stack\SNMP.c
                 _SNMPPut   0x007b80    program     extern E:\Users\Pal\DEVICES\Kern_dev_\SOFT2\MCHP\Kern_v6\Microchip\TCPIP Stack\SNMP.c
                _Validate   0x00fb7c    program     static E:\Users\Pal\DEVICES\Kern_dev_\SOFT2\MCHP\Kern_v6\Microchip\TCPIP Stack\MPFS2.c
           ___do_lbl00002   0x018306    program     static                          
           ___do_lbl00003   0x01830a    program     static                          
           ___do_lbl00004   0x0182e8    program     static                          
          ___for_lbl00066   0x0132a2    program     static                          
          ___for_lbl00067   0x0132a8    program     static                          
          ___for_lbl00068   0x013298    program     static                          
          ___for_lbl00100   0x0145c6    program     static                          
          ___for_lbl00101   0x0145ce    program     static                          
          ___for_lbl00102   0x0145aa    program     static                          
          ___for_lbl00103   0x0145e4    program     static                          
          ___for_lbl00104   0x0145ea    program     static                          
          ___for_lbl00105   0x0145ce    program     static                          
           ___if_lbl00001   0x018020    program     static                          
           ___if_lbl00002   0x01802a    program     static                          
           ___if_lbl00003   0x018042    program     static                          
           ___if_lbl00004   0x0178dc    program     static                          
           ___if_lbl00004   0x0180b2    program     static                          
           ___if_lbl00012   0x012af6    program     static                          
           ___if_lbl00013   0x012b0c    program     static                          
           ___if_lbl00014   0x012b22    program     static                          
           ___if_lbl00014   0x013efc    program     static                          
           ___if_lbl00015   0x013f12    program     static                          
           ___if_lbl00015   0x012b22    program     static                          
           ___if_lbl00016   0x013f64    program     static                          
           ___if_lbl00016   0x012b38    program     static                          
           ___if_lbl00017   0x012b38    program     static                          
           ___if_lbl00017   0x013f6c    program     static                          
           ___if_lbl00018   0x012b84    program     static                          
           ___if_lbl00020   0x014900    program     static                          
           ___if_lbl00020   0x012bae    program     static                          
           ___if_lbl00021   0x014910    program     static                          
           ___if_lbl00021   0x012bfc    program     static                          
           ___if_lbl00022   0x012bfc    program     static                          
           ___if_lbl00023   0x012c56    program     static                          
           ___if_lbl00024   0x012c98    program     static                          
           ___if_lbl00025   0x012ca6    program     static                          
           ___if_lbl00026   0x012cb8    program     static                          
           ___if_lbl00027   0x0149a0    program     static                          
           ___if_lbl00027   0x012cc2    program     static                          
           ___if_lbl00028   0x012ccc    program     static                          
           ___if_lbl00029   0x012cd6    program     static                          
           ___if_lbl00030   0x012ce0    program     static                          
           ___if_lbl00030   0x014a06    program     static                          
           ___if_lbl00031   0x012cfe    program     static                          
           ___if_lbl00032   0x012cfe    program     static                          
           ___if_lbl00072   0x013322    program     static                          
       ___return_lbl00000   0x018506    program     static                          
       ___return_lbl00000   0x000004    program     static                          
       ___return_lbl00000   0x0185de    program     static                          
       ___return_lbl00000   0x018118    program     static                          
       ___return_lbl00000   0x0147a8    program     static                          
       ___return_lbl00000   0x01857a    program     static                          
       ___return_lbl00000   0x01854e    program     static                          
       ___return_lbl00001   0x01830c    program     static                          
       ___return_lbl00001   0x0185c2    program     static                          
       ___return_lbl00001   0x0178e6    program     static                          
       ___return_lbl00002   0x018424    program     static                          
       ___return_lbl00007   0x00001c    program     static                          
       ___return_lbl00008   0x00000c    program     static                          
       ___return_lbl00009   0x013f94    program     static                          
       ___return_lbl00009   0x012d00    program     static                          
       ___return_lbl00019   0x014a0e    program     static                          
       ___return_lbl00063   0x0132ae    program     static                          
       ___return_lbl00069   0x013332    program     static                          
       ___return_lbl00079   0x014efe    program     static                          
       ___return_lbl00080   0x014f30    program     static                          
       ___return_lbl00083   0x014f6c    program     static                          
       ___return_lbl00086   0x014f9c    program     static                          
       ___return_lbl00089   0x014fcc    program     static                          
       ___return_lbl00099   0x0145fc    program     static                          
        ___while_lbl00001   0x0146c0    program     static                          
        ___while_lbl00002   0x0146c6    program     static                          
        ___while_lbl00002   0x01789e    program     static                          
        ___while_lbl00003   0x0178e4    program     static                          
        ___while_lbl00010   0x012a78    program     static                          
        ___while_lbl00010   0x013e96    program     static                          
        ___while_lbl00011   0x013f6e    program     static                          
        ___while_lbl00011   0x012d00    program     static                          
        ___while_lbl00012   0x013e9e    program     static                          
        ___while_lbl00013   0x013ea2    program     static                          
        ___while_lbl00064   0x013288    program     static                          
        ___while_lbl00065   0x0132ac    program     static                          
        ___while_lbl00070   0x0132ca    program     static                          
        ___while_lbl00071   0x013330    program     static                          
        ___while_lbl00081   0x014f00    program     static                          
        ___while_lbl00082   0x014f30    program     static                          
        ___while_lbl00084   0x014f32    program     static                          
        ___while_lbl00085   0x014f6c    program     static                          
        ___while_lbl00087   0x014f7c    program     static                          
        ___while_lbl00088   0x014f82    program     static                          
        ___while_lbl00090   0x014fc6    program     static                          
        ___while_lbl00091   0x014fcc    program     static                          
               __config_0   0x01fff8    program     static E:\Users\Pal\DEVICES\Kern_dev_\SOFT2\MCHP\Kern_v6\Kern\Main.c
               __config_1   0x01fffa    program     static E:\Users\Pal\DEVICES\Kern_dev_\SOFT2\MCHP\Kern_v6\Kern\Main.c
               __config_2   0x01fffb    program     static E:\Users\Pal\DEVICES\Kern_dev_\SOFT2\MCHP\Kern_v6\Kern\Main.c
               __config_3   0x01fffd    program     static E:\Users\Pal\DEVICES\Kern_dev_\SOFT2\MCHP\Kern_v6\Kern\Main.c
                   __init   0x000006    program     extern C:\MCC18\src\traditional\stdclib\__init.c
               __string_0   0x0166ab    program     static E:\Users\Pal\DEVICES\Kern_dev_\SOFT2\MCHP\Kern_v6\Kern\UdpSet.c
               __string_0   0x016672    program     static E:\Users\Pal\DEVICES\Kern_dev_\SOFT2\MCHP\Kern_v6\Kern\Main.c
               __string_0   0x0168d9    program     static E:\Users\Pal\DEVICES\Kern_dev_\SOFT2\MCHP\Kern_v6\Kern\PAL_pUART.c
               __string_0   0x01664f    program     static E:\Users\Pal\DEVICES\Kern_dev_\SOFT2\MCHP\Kern_v6\Kern\CustomHTTPApp.c
               __string_0   0x016531    program     static E:\Users\Pal\DEVICES\Kern_dev_\SOFT2\MCHP\Kern_v6\Microchip\TCPIP Stack\HTTP2.c
               __string_0   0x016536    program     static E:\Users\Pal\DEVICES\Kern_dev_\SOFT2\MCHP\Kern_v6\Microchip\TCPIP Stack\MPFS2.c
               __string_0   0x01653d    program     static E:\Users\Pal\DEVICES\Kern_dev_\SOFT2\MCHP\Kern_v6\Microchip\TCPIP Stack\SNMP.c
               __string_1   0x01664c    program     static E:\Users\Pal\DEVICES\Kern_dev_\SOFT2\MCHP\Kern_v6\Kern\CustomHTTPApp.c
               __string_1   0x01666d    program     static E:\Users\Pal\DEVICES\Kern_dev_\SOFT2\MCHP\Kern_v6\Kern\Main.c
               __string_1   0x0166a7    program     static E:\Users\Pal\DEVICES\Kern_dev_\SOFT2\MCHP\Kern_v6\Kern\UdpSet.c
               __string_1   0x0168c5    program     static E:\Users\Pal\DEVICES\Kern_dev_\SOFT2\MCHP\Kern_v6\Kern\PAL_pUART.c
              __string_10   0x01660a    program     static E:\Users\Pal\DEVICES\Kern_dev_\SOFT2\MCHP\Kern_v6\Kern\CustomHTTPApp.c
              __string_10   0x01650c    program     static E:\Users\Pal\DEVICES\Kern_dev_\SOFT2\MCHP\Kern_v6\Microchip\TCPIP Stack\HTTP2.c
              __string_10   0x01682f    program     static E:\Users\Pal\DEVICES\Kern_dev_\SOFT2\MCHP\Kern_v6\Kern\PAL_pUART.c
              __string_11   0x016508    program     static E:\Users\Pal\DEVICES\Kern_dev_\SOFT2\MCHP\Kern_v6\Microchip\TCPIP Stack\HTTP2.c
              __string_11   0x016604    program     static E:\Users\Pal\DEVICES\Kern_dev_\SOFT2\MCHP\Kern_v6\Kern\CustomHTTPApp.c
              __string_11   0x01681b    program     static E:\Users\Pal\DEVICES\Kern_dev_\SOFT2\MCHP\Kern_v6\Kern\PAL_pUART.c
              __string_12   0x016504    program     static E:\Users\Pal\DEVICES\Kern_dev_\SOFT2\MCHP\Kern_v6\Microchip\TCPIP Stack\HTTP2.c
              __string_12   0x0165fb    program     static E:\Users\Pal\DEVICES\Kern_dev_\SOFT2\MCHP\Kern_v6\Kern\CustomHTTPApp.c
              __string_12   0x0167f8    program     static E:\Users\Pal\DEVICES\Kern_dev_\SOFT2\MCHP\Kern_v6\Kern\PAL_pUART.c
              __string_13   0x0165f3    program     static E:\Users\Pal\DEVICES\Kern_dev_\SOFT2\MCHP\Kern_v6\Kern\CustomHTTPApp.c
              __string_13   0x016500    program     static E:\Users\Pal\DEVICES\Kern_dev_\SOFT2\MCHP\Kern_v6\Microchip\TCPIP Stack\HTTP2.c
              __string_13   0x0167cf    program     static E:\Users\Pal\DEVICES\Kern_dev_\SOFT2\MCHP\Kern_v6\Kern\PAL_pUART.c
              __string_14   0x0165af    program     static E:\Users\Pal\DEVICES\Kern_dev_\SOFT2\MCHP\Kern_v6\Kern\CustomHTTPApp.c
              __string_14   0x0164f5    program     static E:\Users\Pal\DEVICES\Kern_dev_\SOFT2\MCHP\Kern_v6\Microchip\TCPIP Stack\HTTP2.c
              __string_14   0x0167ac    program     static E:\Users\Pal\DEVICES\Kern_dev_\SOFT2\MCHP\Kern_v6\Kern\PAL_pUART.c
              __string_15   0x01657c    program     static E:\Users\Pal\DEVICES\Kern_dev_\SOFT2\MCHP\Kern_v6\Kern\CustomHTTPApp.c
              __string_15   0x0164eb    program     static E:\Users\Pal\DEVICES\Kern_dev_\SOFT2\MCHP\Kern_v6\Microchip\TCPIP Stack\HTTP2.c
              __string_15   0x016783    program     static E:\Users\Pal\DEVICES\Kern_dev_\SOFT2\MCHP\Kern_v6\Kern\PAL_pUART.c
              __string_16   0x0164e2    program     static E:\Users\Pal\DEVICES\Kern_dev_\SOFT2\MCHP\Kern_v6\Microchip\TCPIP Stack\HTTP2.c
              __string_16   0x016579    program     static E:\Users\Pal\DEVICES\Kern_dev_\SOFT2\MCHP\Kern_v6\Kern\CustomHTTPApp.c
              __string_16   0x016760    program     static E:\Users\Pal\DEVICES\Kern_dev_\SOFT2\MCHP\Kern_v6\Kern\PAL_pUART.c
              __string_17   0x016546    program     static E:\Users\Pal\DEVICES\Kern_dev_\SOFT2\MCHP\Kern_v6\Kern\CustomHTTPApp.c
              __string_17   0x0164d9    program     static E:\Users\Pal\DEVICES\Kern_dev_\SOFT2\MCHP\Kern_v6\Microchip\TCPIP Stack\HTTP2.c
              __string_17   0x016737    program     static E:\Users\Pal\DEVICES\Kern_dev_\SOFT2\MCHP\Kern_v6\Kern\PAL_pUART.c
              __string_18   0x016714    program     static E:\Users\Pal\DEVICES\Kern_dev_\SOFT2\MCHP\Kern_v6\Kern\PAL_pUART.c
              __string_18   0x0164cf    program     static E:\Users\Pal\DEVICES\Kern_dev_\SOFT2\MCHP\Kern_v6\Microchip\TCPIP Stack\HTTP2.c
              __string_19   0x0166eb    program     static E:\Users\Pal\DEVICES\Kern_dev_\SOFT2\MCHP\Kern_v6\Kern\PAL_pUART.c
              __string_19   0x0164c5    program     static E:\Users\Pal\DEVICES\Kern_dev_\SOFT2\MCHP\Kern_v6\Microchip\TCPIP Stack\HTTP2.c
               __string_2   0x01652d    program     static E:\Users\Pal\DEVICES\Kern_dev_\SOFT2\MCHP\Kern_v6\Microchip\TCPIP Stack\HTTP2.c
               __string_2   0x01666c    program     static E:\Users\Pal\DEVICES\Kern_dev_\SOFT2\MCHP\Kern_v6\Kern\Main.c
               __string_2   0x0166a2    program     static E:\Users\Pal\DEVICES\Kern_dev_\SOFT2\MCHP\Kern_v6\Kern\UdpSet.c
               __string_2   0x016649    program     static E:\Users\Pal\DEVICES\Kern_dev_\SOFT2\MCHP\Kern_v6\Kern\CustomHTTPApp.c
               __string_2   0x0168b7    program     static E:\Users\Pal\DEVICES\Kern_dev_\SOFT2\MCHP\Kern_v6\Kern\PAL_pUART.c
              __string_20   0x0164ba    program     static E:\Users\Pal\DEVICES\Kern_dev_\SOFT2\MCHP\Kern_v6\Microchip\TCPIP Stack\HTTP2.c
              __string_20   0x0166d4    program     static E:\Users\Pal\DEVICES\Kern_dev_\SOFT2\MCHP\Kern_v6\Kern\PAL_pUART.c
              __string_21   0x0164a6    program     static E:\Users\Pal\DEVICES\Kern_dev_\SOFT2\MCHP\Kern_v6\Microchip\TCPIP Stack\HTTP2.c
              __string_21   0x0166b7    program     static E:\Users\Pal\DEVICES\Kern_dev_\SOFT2\MCHP\Kern_v6\Kern\PAL_pUART.c
              __string_22   0x016499    program     static E:\Users\Pal\DEVICES\Kern_dev_\SOFT2\MCHP\Kern_v6\Microchip\TCPIP Stack\HTTP2.c
              __string_23   0x016498    program     static E:\Users\Pal\DEVICES\Kern_dev_\SOFT2\MCHP\Kern_v6\Microchip\TCPIP Stack\HTTP2.c
              __string_24   0x016473    program     static E:\Users\Pal\DEVICES\Kern_dev_\SOFT2\MCHP\Kern_v6\Microchip\TCPIP Stack\HTTP2.c
              __string_25   0x016415    program     static E:\Users\Pal\DEVICES\Kern_dev_\SOFT2\MCHP\Kern_v6\Microchip\TCPIP Stack\HTTP2.c
              __string_26   0x016394    program     static E:\Users\Pal\DEVICES\Kern_dev_\SOFT2\MCHP\Kern_v6\Microchip\TCPIP Stack\HTTP2.c
              __string_27   0x016351    program     static E:\Users\Pal\DEVICES\Kern_dev_\SOFT2\MCHP\Kern_v6\Microchip\TCPIP Stack\HTTP2.c
              __string_28   0x0162e4    program     static E:\Users\Pal\DEVICES\Kern_dev_\SOFT2\MCHP\Kern_v6\Microchip\TCPIP Stack\HTTP2.c
              __string_29   0x016274    program     static E:\Users\Pal\DEVICES\Kern_dev_\SOFT2\MCHP\Kern_v6\Microchip\TCPIP Stack\HTTP2.c
               __string_3   0x0168a3    program     static E:\Users\Pal\DEVICES\Kern_dev_\SOFT2\MCHP\Kern_v6\Kern\PAL_pUART.c
               __string_3   0x016529    program     static E:\Users\Pal\DEVICES\Kern_dev_\SOFT2\MCHP\Kern_v6\Microchip\TCPIP Stack\HTTP2.c
               __string_3   0x01669c    program     static E:\Users\Pal\DEVICES\Kern_dev_\SOFT2\MCHP\Kern_v6\Kern\UdpSet.c
               __string_3   0x016645    program     static E:\Users\Pal\DEVICES\Kern_dev_\SOFT2\MCHP\Kern_v6\Kern\CustomHTTPApp.c
               __string_3   0x016664    program     static E:\Users\Pal\DEVICES\Kern_dev_\SOFT2\MCHP\Kern_v6\Kern\Main.c
              __string_30   0x01620e    program     static E:\Users\Pal\DEVICES\Kern_dev_\SOFT2\MCHP\Kern_v6\Microchip\TCPIP Stack\HTTP2.c
              __string_31   0x0161dc    program     static E:\Users\Pal\DEVICES\Kern_dev_\SOFT2\MCHP\Kern_v6\Microchip\TCPIP Stack\HTTP2.c
              __string_32   0x016185    program     static E:\Users\Pal\DEVICES\Kern_dev_\SOFT2\MCHP\Kern_v6\Microchip\TCPIP Stack\HTTP2.c
              __string_33   0x01617d    program     static E:\Users\Pal\DEVICES\Kern_dev_\SOFT2\MCHP\Kern_v6\Microchip\TCPIP Stack\HTTP2.c
              __string_34   0x01616e    program     static E:\Users\Pal\DEVICES\Kern_dev_\SOFT2\MCHP\Kern_v6\Microchip\TCPIP Stack\HTTP2.c
              __string_35   0x01615e    program     static E:\Users\Pal\DEVICES\Kern_dev_\SOFT2\MCHP\Kern_v6\Microchip\TCPIP Stack\HTTP2.c
              __string_36   0x01615a    program     static E:\Users\Pal\DEVICES\Kern_dev_\SOFT2\MCHP\Kern_v6\Microchip\TCPIP Stack\HTTP2.c
              __string_37   0x016155    program     static E:\Users\Pal\DEVICES\Kern_dev_\SOFT2\MCHP\Kern_v6\Microchip\TCPIP Stack\HTTP2.c
              __string_38   0x01614b    program     static E:\Users\Pal\DEVICES\Kern_dev_\SOFT2\MCHP\Kern_v6\Microchip\TCPIP Stack\HTTP2.c
              __string_39   0x016138    program     static E:\Users\Pal\DEVICES\Kern_dev_\SOFT2\MCHP\Kern_v6\Microchip\TCPIP Stack\HTTP2.c
               __string_4   0x016696    program     static E:\Users\Pal\DEVICES\Kern_dev_\SOFT2\MCHP\Kern_v6\Kern\UdpSet.c
               __string_4   0x016524    program     static E:\Users\Pal\DEVICES\Kern_dev_\SOFT2\MCHP\Kern_v6\Microchip\TCPIP Stack\HTTP2.c
               __string_4   0x016641    program     static E:\Users\Pal\DEVICES\Kern_dev_\SOFT2\MCHP\Kern_v6\Kern\CustomHTTPApp.c
               __string_4   0x016895    program     static E:\Users\Pal\DEVICES\Kern_dev_\SOFT2\MCHP\Kern_v6\Kern\PAL_pUART.c
               __string_4   0x01665e    program     static E:\Users\Pal\DEVICES\Kern_dev_\SOFT2\MCHP\Kern_v6\Kern\Main.c
              __string_40   0x016129    program     static E:\Users\Pal\DEVICES\Kern_dev_\SOFT2\MCHP\Kern_v6\Microchip\TCPIP Stack\HTTP2.c
              __string_41   0x016110    program     static E:\Users\Pal\DEVICES\Kern_dev_\SOFT2\MCHP\Kern_v6\Microchip\TCPIP Stack\HTTP2.c
              __string_42   0x016100    program     static E:\Users\Pal\DEVICES\Kern_dev_\SOFT2\MCHP\Kern_v6\Microchip\TCPIP Stack\HTTP2.c
              __string_43   0x0160f7    program     static E:\Users\Pal\DEVICES\Kern_dev_\SOFT2\MCHP\Kern_v6\Microchip\TCPIP Stack\HTTP2.c
              __string_44   0x0160ee    program     static E:\Users\Pal\DEVICES\Kern_dev_\SOFT2\MCHP\Kern_v6\Microchip\TCPIP Stack\HTTP2.c
              __string_45   0x0160ea    program     static E:\Users\Pal\DEVICES\Kern_dev_\SOFT2\MCHP\Kern_v6\Microchip\TCPIP Stack\HTTP2.c
               __string_5   0x016659    program     static E:\Users\Pal\DEVICES\Kern_dev_\SOFT2\MCHP\Kern_v6\Kern\Main.c
               __string_5   0x01663c    program     static E:\Users\Pal\DEVICES\Kern_dev_\SOFT2\MCHP\Kern_v6\Kern\CustomHTTPApp.c
               __string_5   0x016881    program     static E:\Users\Pal\DEVICES\Kern_dev_\SOFT2\MCHP\Kern_v6\Kern\PAL_pUART.c
               __string_5   0x016520    program     static E:\Users\Pal\DEVICES\Kern_dev_\SOFT2\MCHP\Kern_v6\Microchip\TCPIP Stack\HTTP2.c
               __string_5   0x01668f    program     static E:\Users\Pal\DEVICES\Kern_dev_\SOFT2\MCHP\Kern_v6\Kern\UdpSet.c
               __string_6   0x016627    program     static E:\Users\Pal\DEVICES\Kern_dev_\SOFT2\MCHP\Kern_v6\Kern\CustomHTTPApp.c
               __string_6   0x01651c    program     static E:\Users\Pal\DEVICES\Kern_dev_\SOFT2\MCHP\Kern_v6\Microchip\TCPIP Stack\HTTP2.c
               __string_6   0x016873    program     static E:\Users\Pal\DEVICES\Kern_dev_\SOFT2\MCHP\Kern_v6\Kern\PAL_pUART.c
               __string_6   0x016689    program     static E:\Users\Pal\DEVICES\Kern_dev_\SOFT2\MCHP\Kern_v6\Kern\UdpSet.c
               __string_7   0x016518    program     static E:\Users\Pal\DEVICES\Kern_dev_\SOFT2\MCHP\Kern_v6\Microchip\TCPIP Stack\HTTP2.c
               __string_7   0x016682    program     static E:\Users\Pal\DEVICES\Kern_dev_\SOFT2\MCHP\Kern_v6\Kern\UdpSet.c
               __string_7   0x016622    program     static E:\Users\Pal\DEVICES\Kern_dev_\SOFT2\MCHP\Kern_v6\Kern\CustomHTTPApp.c
               __string_7   0x01685f    program     static E:\Users\Pal\DEVICES\Kern_dev_\SOFT2\MCHP\Kern_v6\Kern\PAL_pUART.c
               __string_8   0x01667c    program     static E:\Users\Pal\DEVICES\Kern_dev_\SOFT2\MCHP\Kern_v6\Kern\UdpSet.c
               __string_8   0x016851    program     static E:\Users\Pal\DEVICES\Kern_dev_\SOFT2\MCHP\Kern_v6\Kern\PAL_pUART.c
               __string_8   0x016616    program     static E:\Users\Pal\DEVICES\Kern_dev_\SOFT2\MCHP\Kern_v6\Kern\CustomHTTPApp.c
               __string_8   0x016514    program     static E:\Users\Pal\DEVICES\Kern_dev_\SOFT2\MCHP\Kern_v6\Microchip\TCPIP Stack\HTTP2.c
               __string_9   0x016610    program     static E:\Users\Pal\DEVICES\Kern_dev_\SOFT2\MCHP\Kern_v6\Kern\CustomHTTPApp.c
               __string_9   0x01683d    program     static E:\Users\Pal\DEVICES\Kern_dev_\SOFT2\MCHP\Kern_v6\Kern\PAL_pUART.c
               __string_9   0x016679    program     static E:\Users\Pal\DEVICES\Kern_dev_\SOFT2\MCHP\Kern_v6\Kern\UdpSet.c
               __string_9   0x016510    program     static E:\Users\Pal\DEVICES\Kern_dev_\SOFT2\MCHP\Kern_v6\Microchip\TCPIP Stack\HTTP2.c
               __tmplbl_0   0x012aae    program     static                          
               __tmplbl_0   0x0178d6    program     static                          
               __tmplbl_0   0x013edc    program     static                          
               __tmplbl_0   0x0180aa    program     static                          
               __tmplbl_1   0x012b6c    program     static                          
              __tmplbl_10   0x014968    program     static                          
             __tmplbl_100   0x00bfc8    program     static                          
             __tmplbl_101   0x00bfae    program     static                          
             __tmplbl_102   0x00bf94    program     static                          
             __tmplbl_103   0x00bf7a    program     static                          
             __tmplbl_104   0x00bf60    program     static                          
             __tmplbl_105   0x00bf46    program     static                          
             __tmplbl_106   0x00bf2c    program     static                          
             __tmplbl_107   0x00bf06    program     static                          
             __tmplbl_108   0x00beec    program     static                          
             __tmplbl_109   0x00bed2    program     static                          
              __tmplbl_11   0x014966    program     static                          
             __tmplbl_110   0x00beb8    program     static                          
             __tmplbl_111   0x00be9e    program     static                          
             __tmplbl_112   0x00be5c    program     static                          
             __tmplbl_113   0x00be3c    program     static                          
             __tmplbl_114   0x00be2a    program     static                          
             __tmplbl_115   0x00be18    program     static                          
             __tmplbl_116   0x00be06    program     static                          
             __tmplbl_117   0x00bdf4    program     static                          
             __tmplbl_118   0x00bd6e    program     static                          
             __tmplbl_119   0x00bce8    program     static                          
              __tmplbl_12   0x0149fa    program     static                          
             __tmplbl_120   0x00bcd0    program     static                          
             __tmplbl_121   0x00bcb2    program     static                          
             __tmplbl_122   0x00bc90    program     static                          
             __tmplbl_123   0x00bc6e    program     static                          
             __tmplbl_124   0x00bc2c    program     static                          
             __tmplbl_125   0x00bbfc    program     static                          
             __tmplbl_126   0x00bbca    program     static                          
              __tmplbl_13   0x0149ec    program     static                          
              __tmplbl_13   0x013304    program     static                          
              __tmplbl_14   0x0149f2    program     static                          
             __tmplbl_140   0x006468    program     static                          
             __tmplbl_141   0x004446    program     static                          
             __tmplbl_145   0x00c076    program     static                          
             __tmplbl_149   0x004446    program     static                          
             __tmplbl_150   0x006824    program     static                          
             __tmplbl_151   0x006824    program     static                          
             __tmplbl_152   0x006950    program     static                          
             __tmplbl_153   0x00658a    program     static                          
             __tmplbl_154   0x006824    program     static                          
             __tmplbl_155   0x006824    program     static                          
             __tmplbl_159   0x006824    program     static                          
             __tmplbl_168   0x0056f2    program     static                          
             __tmplbl_169   0x0056f2    program     static                          
             __tmplbl_177   0x00cbca    program     static                          
             __tmplbl_178   0x00cbc4    program     static                          
             __tmplbl_179   0x00cbbe    program     static                          
               __tmplbl_2   0x012b94    program     static                          
               __tmplbl_3   0x012b8c    program     static                          
               __tmplbl_4   0x012be8    program     static                          
              __tmplbl_47   0x009ff2    program     static                          
              __tmplbl_48   0x009f7a    program     static                          
              __tmplbl_49   0x009f0e    program     static                          
               __tmplbl_5   0x01499e    program     static                          
               __tmplbl_5   0x012c40    program     static                          
              __tmplbl_50   0x009ec6    program     static                          
              __tmplbl_51   0x009aa8    program     static                          
              __tmplbl_52   0x009a34    program     static                          
              __tmplbl_53   0x009848    program     static                          
              __tmplbl_54   0x009822    program     static                          
              __tmplbl_55   0x0097bc    program     static                          
              __tmplbl_57   0x00a052    program     static                          
              __tmplbl_58   0x00a052    program     static                          
              __tmplbl_59   0x00a052    program     static                          
               __tmplbl_6   0x012c82    program     static                          
               __tmplbl_6   0x014994    program     static                          
              __tmplbl_60   0x0098d6    program     static                          
              __tmplbl_61   0x009a40    program     static                          
              __tmplbl_65   0x00a052    program     static                          
              __tmplbl_67   0x00a052    program     static                          
              __tmplbl_68   0x00a052    program     static                          
               __tmplbl_7   0x014986    program     static                          
              __tmplbl_73   0x008cb6    program     static                          
               __tmplbl_8   0x01497c    program     static                          
               __tmplbl_9   0x014972    program     static                          
              __tmplbl_95   0x00c04a    program     static                          
              __tmplbl_96   0x00c030    program     static                          
              __tmplbl_97   0x00c016    program     static                          
              __tmplbl_98   0x00bffc    program     static                          
              __tmplbl_99   0x00bfe2    program     static                          
            __zero_memory   0x01857c    program     extern C:\MCC18\src\traditional\proc\p18F67J60.asm
                _do_cinit   0x018388    program     extern C:\MCC18\src\traditional\startup\c018i.c
                   _entry   0x000000    program     extern C:\MCC18\src\traditional\startup\c018i.c
                   _false   0x01854a    program     static                          
                 _startup   0x0185a8    program     extern C:\MCC18\src\traditional\startup\c018i.c
                     atol   0x017ea6    program     extern C:\MCC18\src\traditional\stdclib\atol.asm
             btohexa_high   0x014396    program     extern E:\Users\Pal\DEVICES\Kern_dev_\SOFT2\MCHP\Kern_v6\Microchip\TCPIP Stack\Helpers.c
              btohexa_low   0x0143b6    program     extern E:\Users\Pal\DEVICES\Kern_dev_\SOFT2\MCHP\Kern_v6\Microchip\TCPIP Stack\Helpers.c
         cReadCommunities   0x0185fe    program     static E:\Users\Pal\DEVICES\Kern_dev_\SOFT2\MCHP\Kern_v6\Kern\Main.c
        cWriteCommunities   0x018607    program     static E:\Users\Pal\DEVICES\Kern_dev_\SOFT2\MCHP\Kern_v6\Kern\Main.c
                compare_l   0x01859e    program     static C:\MCC18\src\traditional\proc\p18F67J60.asm
                copy_loop   0x0183fa    program     static                          
            copy_one_byte   0x018400    program     static                          
            dataTypeTable   0x018610    program     static E:\Users\Pal\DEVICES\Kern_dev_\SOFT2\MCHP\Kern_v6\Microchip\TCPIP Stack\SNMP.c
                     done   0x018424    program     static                          
             done_copying   0x01840e    program     static                          
                  endloop   0x0185da    program     static                          
                  endloop   0x018576    program     static                          
      getSnmpV2GenTrapOid   0x004a6c    program     extern E:\Users\Pal\DEVICES\Kern_dev_\SOFT2\MCHP\Kern_v6\Microchip\TCPIP Stack\SNMP.c
                  hexatob   0x01434a    program     extern E:\Users\Pal\DEVICES\Kern_dev_\SOFT2\MCHP\Kern_v6\Microchip\TCPIP Stack\Helpers.c
         httpContentTypes   0x01844d    program     static E:\Users\Pal\DEVICES\Kern_dev_\SOFT2\MCHP\Kern_v6\Microchip\TCPIP Stack\HTTP2.c
       httpFileExtensions   0x018429    program     static E:\Users\Pal\DEVICES\Kern_dev_\SOFT2\MCHP\Kern_v6\Microchip\TCPIP Stack\HTTP2.c
                     jEnd   0x0174e8    program     static C:\MCC18\src\traditional\stdclib\scpyp2r.asm
                     jEnd   0x017434    program     static C:\MCC18\src\traditional\stdclib\strcmp.asm
                     jEnd   0x017fc4    program     static C:\MCC18\src\traditional\stdclib\atol.asm
                     jEnd   0x017408    program     static C:\MCC18\src\traditional\stdclib\memset.asm
                     jEnd   0x0173d4    program     static C:\MCC18\src\traditional\stdclib\mcpyp2r.asm
                     jEnd   0x017338    program     static C:\MCC18\src\traditional\stdclib\mcmpp2r.asm
                     jEnd   0x0172e6    program     static C:\MCC18\src\traditional\stdclib\memcmp.asm
                     jEnd   0x017474    program     static C:\MCC18\src\traditional\stdclib\scmpp2r.asm
                     jEnd   0x01737e    program     static C:\MCC18\src\traditional\stdclib\memcpy.asm
                     jEnd   0x0175ce    program     static C:\MCC18\src\traditional\stdclib\strupr.asm
                     jEnd   0x017590    program     static C:\MCC18\src\traditional\stdclib\strncmp.asm
                     jEnd   0x01753c    program     static C:\MCC18\src\traditional\stdclib\slenpgm.asm
                     jEnd   0x017504    program     static C:\MCC18\src\traditional\stdclib\strlen.asm
                 jEndLoop   0x017f94    program     static C:\MCC18\src\traditional\stdclib\atol.asm
                    jLoop   0x017468    program     static C:\MCC18\src\traditional\stdclib\scmpp2r.asm
                    jLoop   0x017362    program     static C:\MCC18\src\traditional\stdclib\memcpy.asm
                    jLoop   0x017524    program     static C:\MCC18\src\traditional\stdclib\slenpgm.asm
                    jLoop   0x01731a    program     static C:\MCC18\src\traditional\stdclib\mcmpp2r.asm
                    jLoop   0x017570    program     static C:\MCC18\src\traditional\stdclib\strncmp.asm
                    jLoop   0x01749e    program     static C:\MCC18\src\traditional\stdclib\strcpy.asm
                    jLoop   0x0172ca    program     static C:\MCC18\src\traditional\stdclib\memcmp.asm
                    jLoop   0x0174fa    program     static C:\MCC18\src\traditional\stdclib\strlen.asm
                    jLoop   0x01742a    program     static C:\MCC18\src\traditional\stdclib\strcmp.asm
                    jLoop   0x0174de    program     static C:\MCC18\src\traditional\stdclib\scpyp2r.asm
                    jLoop   0x017f06    program     static C:\MCC18\src\traditional\stdclib\atol.asm
                    jLoop   0x0173b6    program     static C:\MCC18\src\traditional\stdclib\mcpyp2r.asm
                    jLoop   0x0175ba    program     static C:\MCC18\src\traditional\stdclib\strupr.asm
                    jLoop   0x0173ea    program     static C:\MCC18\src\traditional\stdclib\memset.asm
                    jSkip   0x0175ca    program     static C:\MCC18\src\traditional\stdclib\strupr.asm
                  jSkipWS   0x017edc    program     static C:\MCC18\src\traditional\stdclib\atol.asm
                 jSkipWS1   0x017eee    program     static C:\MCC18\src\traditional\stdclib\atol.asm
                 jTstSign   0x017ef2    program     static C:\MCC18\src\traditional\stdclib\atol.asm
                jTstSign1   0x017efe    program     static C:\MCC18\src\traditional\stdclib\atol.asm
                jTstSign2   0x017f04    program     static C:\MCC18\src\traditional\stdclib\atol.asm
                jTstSign3   0x017f06    program     static C:\MCC18\src\traditional\stdclib\atol.asm
          leftRotateDWORD   0x014596    program     extern E:\Users\Pal\DEVICES\Kern_dev_\SOFT2\MCHP\Kern_v6\Microchip\TCPIP Stack\Helpers.c
                     loop   0x0185b8    program     static                          
                     loop   0x0185cc    program     static                          
                     loop   0x01855a    program     static                          
                     loop   0x018516    program     static                          
                   loop_h   0x018596    program     static C:\MCC18\src\traditional\proc\p18F67J60.asm
                   loop_l   0x0185a0    program     static C:\MCC18\src\traditional\proc\p18F67J60.asm
                     main   0x012a22    program     extern E:\Users\Pal\DEVICES\Kern_dev_\SOFT2\MCHP\Kern_v6\Kern\Main.c
                   memcmp   0x0172aa    program     extern C:\MCC18\src\traditional\stdclib\memcmp.asm
            memcmppgm2ram   0x0172fc    program     extern C:\MCC18\src\traditional\stdclib\mcmpp2r.asm
                   memcpy   0x01733a    program     extern C:\MCC18\src\traditional\stdclib\memcpy.asm
            memcpypgm2ram   0x017390    program     extern C:\MCC18\src\traditional\stdclib\mcpyp2r.asm
                   memset   0x0173d6    program     extern C:\MCC18\src\traditional\stdclib\memset.asm
                 pputchar   0x00fd18    program     extern E:\Users\Pal\DEVICES\Kern_dev_\SOFT2\MCHP\Kern_v6\Kern\PAL_pUART.c
      puart_control_check   0x010046    program     extern E:\Users\Pal\DEVICES\Kern_dev_\SOFT2\MCHP\Kern_v6\Kern\PAL_pUART.c
       puart_index_offset   0x00fff0    program     extern E:\Users\Pal\DEVICES\Kern_dev_\SOFT2\MCHP\Kern_v6\Kern\PAL_pUART.c
                puart_out   0x00fc00    program     extern E:\Users\Pal\DEVICES\Kern_dev_\SOFT2\MCHP\Kern_v6\Kern\PAL_pUART.c
             puart_rx_drv   0x00fdcc    program     extern E:\Users\Pal\DEVICES\Kern_dev_\SOFT2\MCHP\Kern_v6\Kern\PAL_pUART.c
            puart_rx_init   0x00fed0    program     extern E:\Users\Pal\DEVICES\Kern_dev_\SOFT2\MCHP\Kern_v6\Kern\PAL_pUART.c
             puart_tx_drv   0x00fd48    program     extern E:\Users\Pal\DEVICES\Kern_dev_\SOFT2\MCHP\Kern_v6\Kern\PAL_pUART.c
            puart_uart_in   0x00feda    program     extern E:\Users\Pal\DEVICES\Kern_dev_\SOFT2\MCHP\Kern_v6\Kern\PAL_pUART.c
         puart_uart_in_an   0x01011c    program     extern E:\Users\Pal\DEVICES\Kern_dev_\SOFT2\MCHP\Kern_v6\Kern\PAL_pUART.c
                   strcmp   0x01740a    program     extern C:\MCC18\src\traditional\stdclib\strcmp.asm
            strcmppgm2ram   0x01744a    program     extern C:\MCC18\src\traditional\stdclib\scmpp2r.asm
                   strcpy   0x017476    program     extern C:\MCC18\src\traditional\stdclib\strcpy.asm
            strcpypgm2ram   0x0174b8    program     extern C:\MCC18\src\traditional\stdclib\scpyp2r.asm
           stricmppgm2ram   0x0143d6    program     extern E:\Users\Pal\DEVICES\Kern_dev_\SOFT2\MCHP\Kern_v6\Microchip\TCPIP Stack\Helpers.c
                   strlen   0x0174ea    program     extern C:\MCC18\src\traditional\stdclib\strlen.asm
                strlenpgm   0x017506    program     extern C:\MCC18\src\traditional\stdclib\slenpgm.asm
                  strnchr   0x014666    program     extern E:\Users\Pal\DEVICES\Kern_dev_\SOFT2\MCHP\Kern_v6\Microchip\TCPIP Stack\Helpers.c
                  strncmp   0x017550    program     extern C:\MCC18\src\traditional\stdclib\strncmp.asm
                   strupr   0x0175a6    program     extern C:\MCC18\src\traditional\stdclib\strupr.asm
                    swapl   0x01447e    program     extern E:\Users\Pal\DEVICES\Kern_dev_\SOFT2\MCHP\Kern_v6\Microchip\TCPIP Stack\Helpers.c
                    swaps   0x014474    program     extern E:\Users\Pal\DEVICES\Kern_dev_\SOFT2\MCHP\Kern_v6\Microchip\TCPIP Stack\Helpers.c
                     test   0x0183a2    program     static                          
             uart_out_adr   0x00fcbc    program     extern E:\Users\Pal\DEVICES\Kern_dev_\SOFT2\MCHP\Kern_v6\Kern\PAL_pUART.c
                    uitoa   0x01427a    program     extern E:\Users\Pal\DEVICES\Kern_dev_\SOFT2\MCHP\Kern_v6\Microchip\TCPIP Stack\Helpers.c
               zero_block   0x018596    program     static C:\MCC18\src\traditional\proc\p18F67J60.asm
                   ADCON0   0x000fc2       data     extern C:\MCC18\src\traditional\proc\p18F67J60.asm
               ADCON0Save   0x000bb4       data     static E:\Users\Pal\DEVICES\Kern_dev_\SOFT2\MCHP\Kern_v6\Microchip\TCPIP Stack\Helpers.c
               ADCON0bits   0x000fc2       data     extern C:\MCC18\src\traditional\proc\p18F67J60.asm
                   ADCON1   0x000fc1       data     extern C:\MCC18\src\traditional\proc\p18F67J60.asm
               ADCON1bits   0x000fc1       data     extern C:\MCC18\src\traditional\proc\p18F67J60.asm
                   ADCON2   0x000fc0       data     extern C:\MCC18\src\traditional\proc\p18F67J60.asm
               ADCON2Save   0x000bb5       data     static E:\Users\Pal\DEVICES\Kern_dev_\SOFT2\MCHP\Kern_v6\Microchip\TCPIP Stack\Helpers.c
               ADCON2bits   0x000fc0       data     extern C:\MCC18\src\traditional\proc\p18F67J60.asm
                    ADRES   0x000fc3       data     extern C:\MCC18\src\traditional\proc\p18F67J60.asm
                   ADRESH   0x000fc4       data     extern C:\MCC18\src\traditional\proc\p18F67J60.asm
                   ADRESL   0x000fc3       data     extern C:\MCC18\src\traditional\proc\p18F67J60.asm
                  Address   0x0005b4       data     static E:\Users\Pal\DEVICES\Kern_dev_\SOFT2\MCHP\Kern_v6\Kern\I2cEEPROM.c
                  Address   0x0005b6       data     static E:\Users\Pal\DEVICES\Kern_dev_\SOFT2\MCHP\Kern_v6\Kern\I2cEEPROM.c
                AppConfig   0x000600       data     extern E:\Users\Pal\DEVICES\Kern_dev_\SOFT2\MCHP\Kern_v6\Kern\Main.c
             ArrayCommand   0x000f40       data     extern E:\Users\Pal\DEVICES\Kern_dev_\SOFT2\MCHP\Kern_v6\Kern\DeviceData.c
      ArrayDeviceLocation   0x000f00       data     extern E:\Users\Pal\DEVICES\Kern_dev_\SOFT2\MCHP\Kern_v6\Kern\DeviceData.c
        ArraySpecTrapMess   0x000f20       data     extern E:\Users\Pal\DEVICES\Kern_dev_\SOFT2\MCHP\Kern_v6\Kern\DeviceData.c
      ArrayStartIndexFlag   0x000e7a       data     static E:\Users\Pal\DEVICES\Kern_dev_\SOFT2\MCHP\Kern_v6\Kern\CustomSNMPApp.c
               AsciiChars   0x0007dc       data     static E:\Users\Pal\DEVICES\Kern_dev_\SOFT2\MCHP\Kern_v6\Microchip\TCPIP Stack\Helpers.c
                  BAUDCON   0x000f7e       data     extern C:\MCC18\src\traditional\proc\p18F67J60.asm
                 BAUDCON1   0x000f7e       data     extern C:\MCC18\src\traditional\proc\p18F67J60.asm
             BAUDCON1bits   0x000f7e       data     extern C:\MCC18\src\traditional\proc\p18F67J60.asm
              BAUDCONbits   0x000f7e       data     extern C:\MCC18\src\traditional\proc\p18F67J60.asm
                  BAUDCTL   0x000f7e       data     extern C:\MCC18\src\traditional\proc\p18F67J60.asm
                 BAUDCTL1   0x000f7e       data     extern C:\MCC18\src\traditional\proc\p18F67J60.asm
             BAUDCTL1bits   0x000f7e       data     extern C:\MCC18\src\traditional\proc\p18F67J60.asm
              BAUDCTLbits   0x000f7e       data     extern C:\MCC18\src\traditional\proc\p18F67J60.asm
                      BSR   0x000fe0       data     extern C:\MCC18\src\traditional\proc\p18F67J60.asm
        BootloaderAddress   0x000ba5       data     static E:\Users\Pal\DEVICES\Kern_dev_\SOFT2\MCHP\Kern_v6\Microchip\TCPIP Stack\Reboot.c
                   Buffer   0x0007da       data     static E:\Users\Pal\DEVICES\Kern_dev_\SOFT2\MCHP\Kern_v6\Microchip\TCPIP Stack\Helpers.c
                     Byte   0x000ce4       data     static E:\Users\Pal\DEVICES\Kern_dev_\SOFT2\MCHP\Kern_v6\Kern\I2cEEPROM.c
                     Byte   0x0005b5       data     static E:\Users\Pal\DEVICES\Kern_dev_\SOFT2\MCHP\Kern_v6\Kern\I2cEEPROM.c
                     Byte   0x0005b2       data     static E:\Users\Pal\DEVICES\Kern_dev_\SOFT2\MCHP\Kern_v6\Kern\I2cEEPROM.c
            ByteFromUdpRx   0x000bb0       data     static E:\Users\Pal\DEVICES\Kern_dev_\SOFT2\MCHP\Kern_v6\Kern\UdpSet.c
                  CCP1CON   0x000fbd       data     extern C:\MCC18\src\traditional\proc\p18F67J60.asm
              CCP1CONbits   0x000fbd       data     extern C:\MCC18\src\traditional\proc\p18F67J60.asm
                  CCP2CON   0x000fba       data     extern C:\MCC18\src\traditional\proc\p18F67J60.asm
              CCP2CONbits   0x000fba       data     extern C:\MCC18\src\traditional\proc\p18F67J60.asm
                  CCP3CON   0x000fb7       data     extern C:\MCC18\src\traditional\proc\p18F67J60.asm
              CCP3CONbits   0x000fb7       data     extern C:\MCC18\src\traditional\proc\p18F67J60.asm
                  CCP4CON   0x000f73       data     extern C:\MCC18\src\traditional\proc\p18F67J60.asm
              CCP4CONbits   0x000f73       data     extern C:\MCC18\src\traditional\proc\p18F67J60.asm
                  CCP5CON   0x000f70       data     extern C:\MCC18\src\traditional\proc\p18F67J60.asm
              CCP5CONbits   0x000f70       data     extern C:\MCC18\src\traditional\proc\p18F67J60.asm
                    CCPR1   0x000fbe       data     extern C:\MCC18\src\traditional\proc\p18F67J60.asm
                   CCPR1H   0x000fbf       data     extern C:\MCC18\src\traditional\proc\p18F67J60.asm
                   CCPR1L   0x000fbe       data     extern C:\MCC18\src\traditional\proc\p18F67J60.asm
                    CCPR2   0x000fbb       data     extern C:\MCC18\src\traditional\proc\p18F67J60.asm
                   CCPR2H   0x000fbc       data     extern C:\MCC18\src\traditional\proc\p18F67J60.asm
                   CCPR2L   0x000fbb       data     extern C:\MCC18\src\traditional\proc\p18F67J60.asm
                    CCPR3   0x000fb8       data     extern C:\MCC18\src\traditional\proc\p18F67J60.asm
                   CCPR3H   0x000fb9       data     extern C:\MCC18\src\traditional\proc\p18F67J60.asm
                   CCPR3L   0x000fb8       data     extern C:\MCC18\src\traditional\proc\p18F67J60.asm
                    CCPR4   0x000f74       data     extern C:\MCC18\src\traditional\proc\p18F67J60.asm
                   CCPR4H   0x000f75       data     extern C:\MCC18\src\traditional\proc\p18F67J60.asm
                   CCPR4L   0x000f74       data     extern C:\MCC18\src\traditional\proc\p18F67J60.asm
                    CCPR5   0x000f71       data     extern C:\MCC18\src\traditional\proc\p18F67J60.asm
                   CCPR5H   0x000f72       data     extern C:\MCC18\src\traditional\proc\p18F67J60.asm
                   CCPR5L   0x000f71       data     extern C:\MCC18\src\traditional\proc\p18F67J60.asm
                    CMCON   0x000fb4       data     extern C:\MCC18\src\traditional\proc\p18F67J60.asm
                CMCONbits   0x000fb4       data     extern C:\MCC18\src\traditional\proc\p18F67J60.asm
                   CVRCON   0x000fb5       data     extern C:\MCC18\src\traditional\proc\p18F67J60.asm
               CVRCONbits   0x000fb5       data     extern C:\MCC18\src\traditional\proc\p18F67J60.asm
                    Cache   0x0002e2       data     static E:\Users\Pal\DEVICES\Kern_dev_\SOFT2\MCHP\Kern_v6\Microchip\TCPIP Stack\ARP.c
             CalcChecksum   0x000ba5       data     static E:\Users\Pal\DEVICES\Kern_dev_\SOFT2\MCHP\Kern_v6\Microchip\TCPIP Stack\IP.c
                 Checksum   0x000c3d       data     static E:\Users\Pal\DEVICES\Kern_dev_\SOFT2\MCHP\Kern_v6\Microchip\TCPIP Stack\ETH97J60.c
                 ChunkLen   0x000c41       data     static E:\Users\Pal\DEVICES\Kern_dev_\SOFT2\MCHP\Kern_v6\Microchip\TCPIP Stack\ETH97J60.c
                    Class   0x000ba8       data     static E:\Users\Pal\DEVICES\Kern_dev_\SOFT2\MCHP\Kern_v6\Microchip\TCPIP Stack\NBNS.c
    CurrentPacketLocation   0x0004c9       data     static E:\Users\Pal\DEVICES\Kern_dev_\SOFT2\MCHP\Kern_v6\Microchip\TCPIP Stack\ETH97J60.c
                     DDRA   0x000f92       data     extern C:\MCC18\src\traditional\proc\p18F67J60.asm
                 DDRAbits   0x000f92       data     extern C:\MCC18\src\traditional\proc\p18F67J60.asm
                     DDRB   0x000f93       data     extern C:\MCC18\src\traditional\proc\p18F67J60.asm
                 DDRBbits   0x000f93       data     extern C:\MCC18\src\traditional\proc\p18F67J60.asm
                     DDRC   0x000f94       data     extern C:\MCC18\src\traditional\proc\p18F67J60.asm
                 DDRCbits   0x000f94       data     extern C:\MCC18\src\traditional\proc\p18F67J60.asm
                     DDRD   0x000f95       data     extern C:\MCC18\src\traditional\proc\p18F67J60.asm
                 DDRDbits   0x000f95       data     extern C:\MCC18\src\traditional\proc\p18F67J60.asm
                     DDRE   0x000f96       data     extern C:\MCC18\src\traditional\proc\p18F67J60.asm
                 DDREbits   0x000f96       data     extern C:\MCC18\src\traditional\proc\p18F67J60.asm
                     DDRF   0x000f97       data     extern C:\MCC18\src\traditional\proc\p18F67J60.asm
                 DDRFbits   0x000f97       data     extern C:\MCC18\src\traditional\proc\p18F67J60.asm
                     DDRG   0x000f98       data     extern C:\MCC18\src\traditional\proc\p18F67J60.asm
                 DDRGbits   0x000f98       data     extern C:\MCC18\src\traditional\proc\p18F67J60.asm
               DHCPClient   0x0003cf       data     static E:\Users\Pal\DEVICES\Kern_dev_\SOFT2\MCHP\Kern_v6\Microchip\TCPIP Stack\DHCP.c
DHCPClientInitializedOnce   0x0005d3       data     extern E:\Users\Pal\DEVICES\Kern_dev_\SOFT2\MCHP\Kern_v6\Microchip\TCPIP Stack\DHCP.c
                     Data   0x0005ba       data     static E:\Users\Pal\DEVICES\Kern_dev_\SOFT2\MCHP\Kern_v6\Kern\I2cEEPROM.c
                     Data   0x0004fc       data     static E:\Users\Pal\DEVICES\Kern_dev_\SOFT2\MCHP\Kern_v6\Kern\UdpSet.c
                     Data   0x0004f9       data     static E:\Users\Pal\DEVICES\Kern_dev_\SOFT2\MCHP\Kern_v6\Microchip\TCPIP Stack\ETH97J60.c
                     Data   0x0005be       data     static E:\Users\Pal\DEVICES\Kern_dev_\SOFT2\MCHP\Kern_v6\Kern\I2cEEPROM.c
       DataAmountInSocket   0x000bae       data     static E:\Users\Pal\DEVICES\Kern_dev_\SOFT2\MCHP\Kern_v6\Kern\UdpSet.c
               DataBuffer   0x000c43       data     static E:\Users\Pal\DEVICES\Kern_dev_\SOFT2\MCHP\Kern_v6\Microchip\TCPIP Stack\ETH97J60.c
               DataLength   0x0005bc       data     static E:\Users\Pal\DEVICES\Kern_dev_\SOFT2\MCHP\Kern_v6\Kern\I2cEEPROM.c
               DataLength   0x0004fe       data     static E:\Users\Pal\DEVICES\Kern_dev_\SOFT2\MCHP\Kern_v6\Kern\UdpSet.c
               DataLength   0x0005c0       data     static E:\Users\Pal\DEVICES\Kern_dev_\SOFT2\MCHP\Kern_v6\Kern\I2cEEPROM.c
                  DataPtr   0x000c57       data     static E:\Users\Pal\DEVICES\Kern_dev_\SOFT2\MCHP\Kern_v6\Microchip\TCPIP Stack\ETH97J60.c
                DefGw_def   0x000808       data     extern E:\Users\Pal\DEVICES\Kern_dev_\SOFT2\MCHP\Kern_v6\Kern\ParamsList.c
               DeviceData   0x000a00       data     extern E:\Users\Pal\DEVICES\Kern_dev_\SOFT2\MCHP\Kern_v6\Kern\DeviceData.c
                 DeviceID   0x0005b3       data     static E:\Users\Pal\DEVICES\Kern_dev_\SOFT2\MCHP\Kern_v6\Kern\I2cEEPROM.c
       DeviceLocation_def   0x000834       data     extern E:\Users\Pal\DEVICES\Kern_dev_\SOFT2\MCHP\Kern_v6\Kern\ParamsList.c
                    Digit   0x000ba6       data     static E:\Users\Pal\DEVICES\Kern_dev_\SOFT2\MCHP\Kern_v6\Microchip\TCPIP Stack\Helpers.c
            DiscoveryFlag   0x000bb1       data     static E:\Users\Pal\DEVICES\Kern_dev_\SOFT2\MCHP\Kern_v6\Kern\UdpSet.c
              DiscoverySM   0x0000ff       data     static E:\Users\Pal\DEVICES\Kern_dev_\SOFT2\MCHP\Kern_v6\Kern\UdpSet.c
                  Divisor   0x000ba8       data     static E:\Users\Pal\DEVICES\Kern_dev_\SOFT2\MCHP\Kern_v6\Microchip\TCPIP Stack\Helpers.c
                  ECCP1AS   0x000fb6       data     extern C:\MCC18\src\traditional\proc\p18F67J60.asm
              ECCP1ASbits   0x000fb6       data     extern C:\MCC18\src\traditional\proc\p18F67J60.asm
                 ECCP1CON   0x000fbd       data     extern C:\MCC18\src\traditional\proc\p18F67J60.asm
             ECCP1CONbits   0x000fbd       data     extern C:\MCC18\src\traditional\proc\p18F67J60.asm
                 ECCP1DEL   0x000f79       data     extern C:\MCC18\src\traditional\proc\p18F67J60.asm
             ECCP1DELbits   0x000f79       data     extern C:\MCC18\src\traditional\proc\p18F67J60.asm
                  ECCP2AS   0x000f68       data     extern C:\MCC18\src\traditional\proc\p18F67J60.asm
              ECCP2ASbits   0x000f68       data     extern C:\MCC18\src\traditional\proc\p18F67J60.asm
                 ECCP2CON   0x000fba       data     extern C:\MCC18\src\traditional\proc\p18F67J60.asm
             ECCP2CONbits   0x000fba       data     extern C:\MCC18\src\traditional\proc\p18F67J60.asm
                 ECCP2DEL   0x000f67       data     extern C:\MCC18\src\traditional\proc\p18F67J60.asm
             ECCP2DELbits   0x000f67       data     extern C:\MCC18\src\traditional\proc\p18F67J60.asm
                  ECCP3AS   0x000f6a       data     extern C:\MCC18\src\traditional\proc\p18F67J60.asm
              ECCP3ASbits   0x000f6a       data     extern C:\MCC18\src\traditional\proc\p18F67J60.asm
                 ECCP3CON   0x000fb7       data     extern C:\MCC18\src\traditional\proc\p18F67J60.asm
             ECCP3CONbits   0x000fb7       data     extern C:\MCC18\src\traditional\proc\p18F67J60.asm
                 ECCP3DEL   0x000f69       data     extern C:\MCC18\src\traditional\proc\p18F67J60.asm
             ECCP3DELbits   0x000f69       data     extern C:\MCC18\src\traditional\proc\p18F67J60.asm
                    ECON1   0x000fd2       data     extern C:\MCC18\src\traditional\proc\p18F67J60.asm
                ECON1bits   0x000fd2       data     extern C:\MCC18\src\traditional\proc\p18F67J60.asm
                    ECON2   0x000efe       data     extern C:\MCC18\src\traditional\proc\p18F67J60.asm
                ECON2bits   0x000efe       data     extern C:\MCC18\src\traditional\proc\p18F67J60.asm
                    EDATA   0x000f61       data     extern C:\MCC18\src\traditional\proc\p18F67J60.asm
                EDATAbits   0x000f61       data     extern C:\MCC18\src\traditional\proc\p18F67J60.asm
                   EDMACS   0x000ef6       data     extern C:\MCC18\src\traditional\proc\p18F67J60.asm
                  EDMACSH   0x000ef7       data     extern C:\MCC18\src\traditional\proc\p18F67J60.asm
                  EDMACSL   0x000ef6       data     extern C:\MCC18\src\traditional\proc\p18F67J60.asm
                  EDMADST   0x000ef4       data     extern C:\MCC18\src\traditional\proc\p18F67J60.asm
                 EDMADSTH   0x000ef5       data     extern C:\MCC18\src\traditional\proc\p18F67J60.asm
                 EDMADSTL   0x000ef4       data     extern C:\MCC18\src\traditional\proc\p18F67J60.asm
                   EDMAND   0x000ef2       data     extern C:\MCC18\src\traditional\proc\p18F67J60.asm
                  EDMANDH   0x000ef3       data     extern C:\MCC18\src\traditional\proc\p18F67J60.asm
                  EDMANDL   0x000ef2       data     extern C:\MCC18\src\traditional\proc\p18F67J60.asm
                   EDMAST   0x000ef0       data     extern C:\MCC18\src\traditional\proc\p18F67J60.asm
                  EDMASTH   0x000ef1       data     extern C:\MCC18\src\traditional\proc\p18F67J60.asm
                  EDMASTL   0x000ef0       data     extern C:\MCC18\src\traditional\proc\p18F67J60.asm
                   EECON1   0x000fa6       data     extern C:\MCC18\src\traditional\proc\p18F67J60.asm
               EECON1bits   0x000fa6       data     extern C:\MCC18\src\traditional\proc\p18F67J60.asm
                   EECON2   0x000fa7       data     extern C:\MCC18\src\traditional\proc\p18F67J60.asm
                  EFLOCON   0x000e97       data     extern C:\MCC18\src\traditional\proc\p18F67J60.asm
              EFLOCONbits   0x000e97       data     extern C:\MCC18\src\traditional\proc\p18F67J60.asm
                     EHT0   0x000ec0       data     extern C:\MCC18\src\traditional\proc\p18F67J60.asm
                     EHT1   0x000ec1       data     extern C:\MCC18\src\traditional\proc\p18F67J60.asm
                     EHT2   0x000ec2       data     extern C:\MCC18\src\traditional\proc\p18F67J60.asm
                     EHT3   0x000ec3       data     extern C:\MCC18\src\traditional\proc\p18F67J60.asm
                     EHT4   0x000ec4       data     extern C:\MCC18\src\traditional\proc\p18F67J60.asm
                     EHT5   0x000ec5       data     extern C:\MCC18\src\traditional\proc\p18F67J60.asm
                     EHT6   0x000ec6       data     extern C:\MCC18\src\traditional\proc\p18F67J60.asm
                     EHT7   0x000ec7       data     extern C:\MCC18\src\traditional\proc\p18F67J60.asm
                      EIE   0x000efb       data     extern C:\MCC18\src\traditional\proc\p18F67J60.asm
                  EIEbits   0x000efb       data     extern C:\MCC18\src\traditional\proc\p18F67J60.asm
                      EIR   0x000f60       data     extern C:\MCC18\src\traditional\proc\p18F67J60.asm
                  EIRbits   0x000f60       data     extern C:\MCC18\src\traditional\proc\p18F67J60.asm
                    EPAUS   0x000e98       data     extern C:\MCC18\src\traditional\proc\p18F67J60.asm
                   EPAUSH   0x000e99       data     extern C:\MCC18\src\traditional\proc\p18F67J60.asm
                   EPAUSL   0x000e98       data     extern C:\MCC18\src\traditional\proc\p18F67J60.asm
                  EPKTCNT   0x000ed9       data     extern C:\MCC18\src\traditional\proc\p18F67J60.asm
                    EPMCS   0x000ed0       data     extern C:\MCC18\src\traditional\proc\p18F67J60.asm
                   EPMCSH   0x000ed1       data     extern C:\MCC18\src\traditional\proc\p18F67J60.asm
                   EPMCSL   0x000ed0       data     extern C:\MCC18\src\traditional\proc\p18F67J60.asm
                    EPMM0   0x000ec8       data     extern C:\MCC18\src\traditional\proc\p18F67J60.asm
                    EPMM1   0x000ec9       data     extern C:\MCC18\src\traditional\proc\p18F67J60.asm
                    EPMM2   0x000eca       data     extern C:\MCC18\src\traditional\proc\p18F67J60.asm
                    EPMM3   0x000ecb       data     extern C:\MCC18\src\traditional\proc\p18F67J60.asm
                    EPMM4   0x000ecc       data     extern C:\MCC18\src\traditional\proc\p18F67J60.asm
                    EPMM5   0x000ecd       data     extern C:\MCC18\src\traditional\proc\p18F67J60.asm
                    EPMM6   0x000ece       data     extern C:\MCC18\src\traditional\proc\p18F67J60.asm
                    EPMM7   0x000ecf       data     extern C:\MCC18\src\traditional\proc\p18F67J60.asm
                     EPMO   0x000ed4       data     extern C:\MCC18\src\traditional\proc\p18F67J60.asm
                    EPMOH   0x000ed5       data     extern C:\MCC18\src\traditional\proc\p18F67J60.asm
                    EPMOL   0x000ed4       data     extern C:\MCC18\src\traditional\proc\p18F67J60.asm
                    ERDPT   0x000f7a       data     extern C:\MCC18\src\traditional\proc\p18F67J60.asm
                   ERDPTH   0x000f7b       data     extern C:\MCC18\src\traditional\proc\p18F67J60.asm
                   ERDPTL   0x000f7a       data     extern C:\MCC18\src\traditional\proc\p18F67J60.asm
                  ERXFCON   0x000ed8       data     extern C:\MCC18\src\traditional\proc\p18F67J60.asm
              ERXFCONbits   0x000ed8       data     extern C:\MCC18\src\traditional\proc\p18F67J60.asm
                    ERXND   0x000eea       data     extern C:\MCC18\src\traditional\proc\p18F67J60.asm
                   ERXNDH   0x000eeb       data     extern C:\MCC18\src\traditional\proc\p18F67J60.asm
                   ERXNDL   0x000eea       data     extern C:\MCC18\src\traditional\proc\p18F67J60.asm
                  ERXRDPT   0x000eec       data     extern C:\MCC18\src\traditional\proc\p18F67J60.asm
                 ERXRDPTH   0x000eed       data     extern C:\MCC18\src\traditional\proc\p18F67J60.asm
                 ERXRDPTL   0x000eec       data     extern C:\MCC18\src\traditional\proc\p18F67J60.asm
                    ERXST   0x000ee8       data     extern C:\MCC18\src\traditional\proc\p18F67J60.asm
                   ERXSTH   0x000ee9       data     extern C:\MCC18\src\traditional\proc\p18F67J60.asm
                   ERXSTL   0x000ee8       data     extern C:\MCC18\src\traditional\proc\p18F67J60.asm
                  ERXWRPT   0x000eee       data     extern C:\MCC18\src\traditional\proc\p18F67J60.asm
                 ERXWRPTH   0x000eef       data     extern C:\MCC18\src\traditional\proc\p18F67J60.asm
                 ERXWRPTL   0x000eee       data     extern C:\MCC18\src\traditional\proc\p18F67J60.asm
                    ESTAT   0x000efd       data     extern C:\MCC18\src\traditional\proc\p18F67J60.asm
                ESTATbits   0x000efd       data     extern C:\MCC18\src\traditional\proc\p18F67J60.asm
                    ETXND   0x000ee6       data     extern C:\MCC18\src\traditional\proc\p18F67J60.asm
                   ETXNDH   0x000ee7       data     extern C:\MCC18\src\traditional\proc\p18F67J60.asm
                   ETXNDL   0x000ee6       data     extern C:\MCC18\src\traditional\proc\p18F67J60.asm
                    ETXST   0x000ee4       data     extern C:\MCC18\src\traditional\proc\p18F67J60.asm
                   ETXSTH   0x000ee5       data     extern C:\MCC18\src\traditional\proc\p18F67J60.asm
                   ETXSTL   0x000ee4       data     extern C:\MCC18\src\traditional\proc\p18F67J60.asm
                    EWRPT   0x000ee2       data     extern C:\MCC18\src\traditional\proc\p18F67J60.asm
                   EWRPTH   0x000ee3       data     extern C:\MCC18\src\traditional\proc\p18F67J60.asm
                   EWRPTL   0x000ee2       data     extern C:\MCC18\src\traditional\proc\p18F67J60.asm
                     FSR0   0x000fe9       data     extern C:\MCC18\src\traditional\proc\p18F67J60.asm
                    FSR0H   0x000fea       data     extern C:\MCC18\src\traditional\proc\p18F67J60.asm
                    FSR0L   0x000fe9       data     extern C:\MCC18\src\traditional\proc\p18F67J60.asm
                     FSR1   0x000fe1       data     extern C:\MCC18\src\traditional\proc\p18F67J60.asm
                    FSR1H   0x000fe2       data     extern C:\MCC18\src\traditional\proc\p18F67J60.asm
                    FSR1L   0x000fe1       data     extern C:\MCC18\src\traditional\proc\p18F67J60.asm
                     FSR2   0x000fd9       data     extern C:\MCC18\src\traditional\proc\p18F67J60.asm
                    FSR2H   0x000fda       data     extern C:\MCC18\src\traditional\proc\p18F67J60.asm
                    FSR2L   0x000fd9       data     extern C:\MCC18\src\traditional\proc\p18F67J60.asm
                    Flags   0x0002b1       data     static E:\Users\Pal\DEVICES\Kern_dev_\SOFT2\MCHP\Kern_v6\Microchip\TCPIP Stack\UDP.c
                  GIESave   0x000ba5       data     static E:\Users\Pal\DEVICES\Kern_dev_\SOFT2\MCHP\Kern_v6\Microchip\TCPIP Stack\ETH97J60.c
                Getbulk_M   0x000bc1       data     static E:\Users\Pal\DEVICES\Kern_dev_\SOFT2\MCHP\Kern_v6\Microchip\TCPIP Stack\SNMP.c
                Getbulk_N   0x000bc0       data     static E:\Users\Pal\DEVICES\Kern_dev_\SOFT2\MCHP\Kern_v6\Microchip\TCPIP Stack\SNMP.c
                Getbulk_R   0x000bc2       data     static E:\Users\Pal\DEVICES\Kern_dev_\SOFT2\MCHP\Kern_v6\Microchip\TCPIP Stack\SNMP.c
                    INDF0   0x000fef       data     extern C:\MCC18\src\traditional\proc\p18F67J60.asm
                    INDF1   0x000fe7       data     extern C:\MCC18\src\traditional\proc\p18F67J60.asm
                    INDF2   0x000fdf       data     extern C:\MCC18\src\traditional\proc\p18F67J60.asm
                   INTCON   0x000ff2       data     extern C:\MCC18\src\traditional\proc\p18F67J60.asm
                  INTCON2   0x000ff1       data     extern C:\MCC18\src\traditional\proc\p18F67J60.asm
              INTCON2bits   0x000ff1       data     extern C:\MCC18\src\traditional\proc\p18F67J60.asm
                  INTCON3   0x000ff0       data     extern C:\MCC18\src\traditional\proc\p18F67J60.asm
              INTCON3bits   0x000ff0       data     extern C:\MCC18\src\traditional\proc\p18F67J60.asm
               INTCONbits   0x000ff2       data     extern C:\MCC18\src\traditional\proc\p18F67J60.asm
                   IPAddr   0x0002f8       data     static E:\Users\Pal\DEVICES\Kern_dev_\SOFT2\MCHP\Kern_v6\Microchip\TCPIP Stack\ARP.c
                   IPAddr   0x0002fa       data     static E:\Users\Pal\DEVICES\Kern_dev_\SOFT2\MCHP\Kern_v6\Microchip\TCPIP Stack\ARP.c
                IPAddress   0x0007d1       data     static E:\Users\Pal\DEVICES\Kern_dev_\SOFT2\MCHP\Kern_v6\Microchip\TCPIP Stack\Helpers.c
                IPAddress   0x0007d6       data     static E:\Users\Pal\DEVICES\Kern_dev_\SOFT2\MCHP\Kern_v6\Microchip\TCPIP Stack\Helpers.c
              IPHeaderLen   0x0008e1       data     static E:\Users\Pal\DEVICES\Kern_dev_\SOFT2\MCHP\Kern_v6\Microchip\TCPIP Stack\IP.c
                     IPR1   0x000f9f       data     extern C:\MCC18\src\traditional\proc\p18F67J60.asm
                 IPR1bits   0x000f9f       data     extern C:\MCC18\src\traditional\proc\p18F67J60.asm
                     IPR2   0x000fa2       data     extern C:\MCC18\src\traditional\proc\p18F67J60.asm
                 IPR2bits   0x000fa2       data     extern C:\MCC18\src\traditional\proc\p18F67J60.asm
                     IPR3   0x000fa5       data     extern C:\MCC18\src\traditional\proc\p18F67J60.asm
                 IPR3bits   0x000fa5       data     extern C:\MCC18\src\traditional\proc\p18F67J60.asm
               IpAddr_def   0x000800       data     extern E:\Users\Pal\DEVICES\Kern_dev_\SOFT2\MCHP\Kern_v6\Kern\ParamsList.c
                     LATA   0x000f89       data     extern C:\MCC18\src\traditional\proc\p18F67J60.asm
                 LATAbits   0x000f89       data     extern C:\MCC18\src\traditional\proc\p18F67J60.asm
                     LATB   0x000f8a       data     extern C:\MCC18\src\traditional\proc\p18F67J60.asm
                 LATBbits   0x000f8a       data     extern C:\MCC18\src\traditional\proc\p18F67J60.asm
                     LATC   0x000f8b       data     extern C:\MCC18\src\traditional\proc\p18F67J60.asm
                 LATCbits   0x000f8b       data     extern C:\MCC18\src\traditional\proc\p18F67J60.asm
                     LATD   0x000f8c       data     extern C:\MCC18\src\traditional\proc\p18F67J60.asm
                 LATDbits   0x000f8c       data     extern C:\MCC18\src\traditional\proc\p18F67J60.asm
                     LATE   0x000f8d       data     extern C:\MCC18\src\traditional\proc\p18F67J60.asm
                 LATEbits   0x000f8d       data     extern C:\MCC18\src\traditional\proc\p18F67J60.asm
                     LATF   0x000f8e       data     extern C:\MCC18\src\traditional\proc\p18F67J60.asm
                 LATFbits   0x000f8e       data     extern C:\MCC18\src\traditional\proc\p18F67J60.asm
                     LATG   0x000f8f       data     extern C:\MCC18\src\traditional\proc\p18F67J60.asm
                 LATGbits   0x000f8f       data     extern C:\MCC18\src\traditional\proc\p18F67J60.asm
            LastPutSocket   0x0003fe       data     static E:\Users\Pal\DEVICES\Kern_dev_\SOFT2\MCHP\Kern_v6\Microchip\TCPIP Stack\UDP.c
             LongPushFlag   0x0001fc       data     static E:\Users\Pal\DEVICES\Kern_dev_\SOFT2\MCHP\Kern_v6\Kern\Main.c
                   MAADR1   0x000e84       data     extern C:\MCC18\src\traditional\proc\p18F67J60.asm
                   MAADR2   0x000e85       data     extern C:\MCC18\src\traditional\proc\p18F67J60.asm
                   MAADR3   0x000e82       data     extern C:\MCC18\src\traditional\proc\p18F67J60.asm
                   MAADR4   0x000e83       data     extern C:\MCC18\src\traditional\proc\p18F67J60.asm
                   MAADR5   0x000e80       data     extern C:\MCC18\src\traditional\proc\p18F67J60.asm
                   MAADR6   0x000e81       data     extern C:\MCC18\src\traditional\proc\p18F67J60.asm
                  MABBIPG   0x000ea4       data     extern C:\MCC18\src\traditional\proc\p18F67J60.asm
              MABBIPGbits   0x000ea4       data     extern C:\MCC18\src\traditional\proc\p18F67J60.asm
                  MACAddr   0x0002fc       data     static E:\Users\Pal\DEVICES\Kern_dev_\SOFT2\MCHP\Kern_v6\Microchip\TCPIP Stack\ARP.c
                   MACON1   0x000ea0       data     extern C:\MCC18\src\traditional\proc\p18F67J60.asm
               MACON1bits   0x000ea0       data     extern C:\MCC18\src\traditional\proc\p18F67J60.asm
                   MACON3   0x000ea2       data     extern C:\MCC18\src\traditional\proc\p18F67J60.asm
               MACON3bits   0x000ea2       data     extern C:\MCC18\src\traditional\proc\p18F67J60.asm
                   MACON4   0x000ea3       data     extern C:\MCC18\src\traditional\proc\p18F67J60.asm
               MACON4bits   0x000ea3       data     extern C:\MCC18\src\traditional\proc\p18F67J60.asm
                    MAIPG   0x000ea6       data     extern C:\MCC18\src\traditional\proc\p18F67J60.asm
                   MAIPGH   0x000ea7       data     extern C:\MCC18\src\traditional\proc\p18F67J60.asm
                   MAIPGL   0x000ea6       data     extern C:\MCC18\src\traditional\proc\p18F67J60.asm
                   MAMXFL   0x000eaa       data     extern C:\MCC18\src\traditional\proc\p18F67J60.asm
                  MAMXFLH   0x000eab       data     extern C:\MCC18\src\traditional\proc\p18F67J60.asm
                  MAMXFLL   0x000eaa       data     extern C:\MCC18\src\traditional\proc\p18F67J60.asm
                    MICMD   0x000eb2       data     extern C:\MCC18\src\traditional\proc\p18F67J60.asm
                MICMDbits   0x000eb2       data     extern C:\MCC18\src\traditional\proc\p18F67J60.asm
                     MIRD   0x000eb8       data     extern C:\MCC18\src\traditional\proc\p18F67J60.asm
                    MIRDH   0x000eb9       data     extern C:\MCC18\src\traditional\proc\p18F67J60.asm
                    MIRDL   0x000eb8       data     extern C:\MCC18\src\traditional\proc\p18F67J60.asm
                 MIREGADR   0x000eb4       data     extern C:\MCC18\src\traditional\proc\p18F67J60.asm
                   MISTAT   0x000e8a       data     extern C:\MCC18\src\traditional\proc\p18F67J60.asm
               MISTATbits   0x000e8a       data     extern C:\MCC18\src\traditional\proc\p18F67J60.asm
                     MIWR   0x000eb6       data     extern C:\MCC18\src\traditional\proc\p18F67J60.asm
                    MIWRH   0x000eb7       data     extern C:\MCC18\src\traditional\proc\p18F67J60.asm
                    MIWRL   0x000eb6       data     extern C:\MCC18\src\traditional\proc\p18F67J60.asm
                MPFSStubs   0x000060       data     static E:\Users\Pal\DEVICES\Kern_dev_\SOFT2\MCHP\Kern_v6\Microchip\TCPIP Stack\MPFS2.c
                     MyIP   0x000ba6       data     static E:\Users\Pal\DEVICES\Kern_dev_\SOFT2\MCHP\Kern_v6\Microchip\TCPIP Stack\DHCP.c
                 MySocket   0x0004fb       data     static E:\Users\Pal\DEVICES\Kern_dev_\SOFT2\MCHP\Kern_v6\Kern\UdpSet.c
                 MySocket   0x000bac       data     static E:\Users\Pal\DEVICES\Kern_dev_\SOFT2\MCHP\Kern_v6\Kern\UdpSet.c
                 MySocket   0x0007ff       data     static E:\Users\Pal\DEVICES\Kern_dev_\SOFT2\MCHP\Kern_v6\Microchip\TCPIP Stack\Reboot.c
                 MySocket   0x000e7b       data     static E:\Users\Pal\DEVICES\Kern_dev_\SOFT2\MCHP\Kern_v6\Microchip\TCPIP Stack\NBNS.c
                    MyTCB   0x000302       data     static E:\Users\Pal\DEVICES\Kern_dev_\SOFT2\MCHP\Kern_v6\Microchip\TCPIP Stack\TCP.c
                MyTCBStub   0x000329       data     static E:\Users\Pal\DEVICES\Kern_dev_\SOFT2\MCHP\Kern_v6\Microchip\TCPIP Stack\TCP.c
               NBNSHeader   0x000baa       data     static E:\Users\Pal\DEVICES\Kern_dev_\SOFT2\MCHP\Kern_v6\Microchip\TCPIP Stack\NBNS.c
                     Name   0x0007f8       data     static E:\Users\Pal\DEVICES\Kern_dev_\SOFT2\MCHP\Kern_v6\Microchip\TCPIP Stack\Helpers.c
               NameString   0x000bb6       data     static E:\Users\Pal\DEVICES\Kern_dev_\SOFT2\MCHP\Kern_v6\Microchip\TCPIP Stack\NBNS.c
             NeedRedirect   0x0005cf       data     static E:\Users\Pal\DEVICES\Kern_dev_\SOFT2\MCHP\Kern_v6\Kern\CustomHTTPApp.c
   NeedRefreshNetworkSett   0x0005d0       data     static E:\Users\Pal\DEVICES\Kern_dev_\SOFT2\MCHP\Kern_v6\Kern\CustomHTTPApp.c
              NetMask_def   0x000804       data     extern E:\Users\Pal\DEVICES\Kern_dev_\SOFT2\MCHP\Kern_v6\Kern\ParamsList.c
          NewRXRDLocation   0x000bca       data     static E:\Users\Pal\DEVICES\Kern_dev_\SOFT2\MCHP\Kern_v6\Microchip\TCPIP Stack\ETH97J60.c
       NextPacketLocation   0x0004c7       data     static E:\Users\Pal\DEVICES\Kern_dev_\SOFT2\MCHP\Kern_v6\Microchip\TCPIP Stack\ETH97J60.c
                 NextPort   0x000300       data     static E:\Users\Pal\DEVICES\Kern_dev_\SOFT2\MCHP\Kern_v6\Microchip\TCPIP Stack\TCP.c
                 NextPort   0x0002b8       data     static E:\Users\Pal\DEVICES\Kern_dev_\SOFT2\MCHP\Kern_v6\Microchip\TCPIP Stack\UDP.c
                  OIDInfo   0x000be6       data     static E:\Users\Pal\DEVICES\Kern_dev_\SOFT2\MCHP\Kern_v6\Microchip\TCPIP Stack\SNMP.c
                   OIDLen   0x000bb6       data     static E:\Users\Pal\DEVICES\Kern_dev_\SOFT2\MCHP\Kern_v6\Microchip\TCPIP Stack\SNMP.c
                   OIDLen   0x000c2d       data     static E:\Users\Pal\DEVICES\Kern_dev_\SOFT2\MCHP\Kern_v6\Microchip\TCPIP Stack\SNMP.c
                   OIDLen   0x000c04       data     static E:\Users\Pal\DEVICES\Kern_dev_\SOFT2\MCHP\Kern_v6\Microchip\TCPIP Stack\SNMP.c
                   OIDLen   0x000bb7       data     static E:\Users\Pal\DEVICES\Kern_dev_\SOFT2\MCHP\Kern_v6\Microchip\TCPIP Stack\SNMP.c
             OIDValOffset   0x000c23       data     static E:\Users\Pal\DEVICES\Kern_dev_\SOFT2\MCHP\Kern_v6\Microchip\TCPIP Stack\SNMP.c
             OIDValOffset   0x000c31       data     static E:\Users\Pal\DEVICES\Kern_dev_\SOFT2\MCHP\Kern_v6\Microchip\TCPIP Stack\SNMP.c
                 OIDValue   0x000c1e       data     static E:\Users\Pal\DEVICES\Kern_dev_\SOFT2\MCHP\Kern_v6\Microchip\TCPIP Stack\SNMP.c
                 OIDValue   0x000ba8       data     static E:\Users\Pal\DEVICES\Kern_dev_\SOFT2\MCHP\Kern_v6\Microchip\TCPIP Stack\SNMP.c
                 OIDValue   0x000ba7       data     static E:\Users\Pal\DEVICES\Kern_dev_\SOFT2\MCHP\Kern_v6\Microchip\TCPIP Stack\SNMP.c
              OIDValuePtr   0x0005b0       data     static E:\Users\Pal\DEVICES\Kern_dev_\SOFT2\MCHP\Kern_v6\Microchip\TCPIP Stack\SNMP.c
                   OSCCON   0x000fd3       data     extern C:\MCC18\src\traditional\proc\p18F67J60.asm
               OSCCONbits   0x000fd3       data     extern C:\MCC18\src\traditional\proc\p18F67J60.asm
                  OSCTUNE   0x000f9b       data     extern C:\MCC18\src\traditional\proc\p18F67J60.asm
              OSCTUNEbits   0x000f9b       data     extern C:\MCC18\src\traditional\proc\p18F67J60.asm
                   Offset   0x0008ef       data     static E:\Users\Pal\DEVICES\Kern_dev_\SOFT2\MCHP\Kern_v6\Microchip\TCPIP Stack\IP.c
                       PC   0x000ff9       data     extern C:\MCC18\src\traditional\proc\p18F67J60.asm
                      PCL   0x000ff9       data     extern C:\MCC18\src\traditional\proc\p18F67J60.asm
                   PCLATH   0x000ffa       data     extern C:\MCC18\src\traditional\proc\p18F67J60.asm
                   PCLATU   0x000ffb       data     extern C:\MCC18\src\traditional\proc\p18F67J60.asm
                     PIE1   0x000f9d       data     extern C:\MCC18\src\traditional\proc\p18F67J60.asm
                 PIE1bits   0x000f9d       data     extern C:\MCC18\src\traditional\proc\p18F67J60.asm
                     PIE2   0x000fa0       data     extern C:\MCC18\src\traditional\proc\p18F67J60.asm
                 PIE2bits   0x000fa0       data     extern C:\MCC18\src\traditional\proc\p18F67J60.asm
                     PIE3   0x000fa3       data     extern C:\MCC18\src\traditional\proc\p18F67J60.asm
                 PIE3bits   0x000fa3       data     extern C:\MCC18\src\traditional\proc\p18F67J60.asm
                     PIR1   0x000f9e       data     extern C:\MCC18\src\traditional\proc\p18F67J60.asm
                 PIR1bits   0x000f9e       data     extern C:\MCC18\src\traditional\proc\p18F67J60.asm
                     PIR2   0x000fa1       data     extern C:\MCC18\src\traditional\proc\p18F67J60.asm
                 PIR2bits   0x000fa1       data     extern C:\MCC18\src\traditional\proc\p18F67J60.asm
                     PIR3   0x000fa4       data     extern C:\MCC18\src\traditional\proc\p18F67J60.asm
                 PIR3bits   0x000fa4       data     extern C:\MCC18\src\traditional\proc\p18F67J60.asm
                   PLUSW0   0x000feb       data     extern C:\MCC18\src\traditional\proc\p18F67J60.asm
                   PLUSW1   0x000fe3       data     extern C:\MCC18\src\traditional\proc\p18F67J60.asm
                   PLUSW2   0x000fdb       data     extern C:\MCC18\src\traditional\proc\p18F67J60.asm
                    PORTA   0x000f80       data     extern C:\MCC18\src\traditional\proc\p18F67J60.asm
                PORTAbits   0x000f80       data     extern C:\MCC18\src\traditional\proc\p18F67J60.asm
                    PORTB   0x000f81       data     extern C:\MCC18\src\traditional\proc\p18F67J60.asm
                PORTBbits   0x000f81       data     extern C:\MCC18\src\traditional\proc\p18F67J60.asm
                    PORTC   0x000f82       data     extern C:\MCC18\src\traditional\proc\p18F67J60.asm
                PORTCbits   0x000f82       data     extern C:\MCC18\src\traditional\proc\p18F67J60.asm
                    PORTD   0x000f83       data     extern C:\MCC18\src\traditional\proc\p18F67J60.asm
                PORTDbits   0x000f83       data     extern C:\MCC18\src\traditional\proc\p18F67J60.asm
                    PORTE   0x000f84       data     extern C:\MCC18\src\traditional\proc\p18F67J60.asm
                PORTEbits   0x000f84       data     extern C:\MCC18\src\traditional\proc\p18F67J60.asm
                    PORTF   0x000f85       data     extern C:\MCC18\src\traditional\proc\p18F67J60.asm
                PORTFbits   0x000f85       data     extern C:\MCC18\src\traditional\proc\p18F67J60.asm
                    PORTG   0x000f86       data     extern C:\MCC18\src\traditional\proc\p18F67J60.asm
                PORTGbits   0x000f86       data     extern C:\MCC18\src\traditional\proc\p18F67J60.asm
                 POSTDEC0   0x000fed       data     extern C:\MCC18\src\traditional\proc\p18F67J60.asm
                 POSTDEC1   0x000fe5       data     extern C:\MCC18\src\traditional\proc\p18F67J60.asm
                 POSTDEC2   0x000fdd       data     extern C:\MCC18\src\traditional\proc\p18F67J60.asm
                 POSTINC0   0x000fee       data     extern C:\MCC18\src\traditional\proc\p18F67J60.asm
                 POSTINC1   0x000fe6       data     extern C:\MCC18\src\traditional\proc\p18F67J60.asm
                 POSTINC2   0x000fde       data     extern C:\MCC18\src\traditional\proc\p18F67J60.asm
                      PR2   0x000fcb       data     extern C:\MCC18\src\traditional\proc\p18F67J60.asm
                      PR4   0x000f77       data     extern C:\MCC18\src\traditional\proc\p18F67J60.asm
                  PREINC0   0x000fec       data     extern C:\MCC18\src\traditional\proc\p18F67J60.asm
                  PREINC1   0x000fe4       data     extern C:\MCC18\src\traditional\proc\p18F67J60.asm
                  PREINC2   0x000fdc       data     extern C:\MCC18\src\traditional\proc\p18F67J60.asm
                     PROD   0x000ff3       data     extern C:\MCC18\src\traditional\proc\p18F67J60.asm
                    PRODH   0x000ff4       data     extern C:\MCC18\src\traditional\proc\p18F67J60.asm
                    PRODL   0x000ff3       data     extern C:\MCC18\src\traditional\proc\p18F67J60.asm
                     PUIB   0x000472       data     extern E:\Users\Pal\DEVICES\Kern_dev_\SOFT2\MCHP\Kern_v6\Kern\PAL_pUART.c
                  ParAddr   0x0006ef       data     static E:\Users\Pal\DEVICES\Kern_dev_\SOFT2\MCHP\Kern_v6\Kern\ParamsTable.c
                  ParSize   0x0006f1       data     static E:\Users\Pal\DEVICES\Kern_dev_\SOFT2\MCHP\Kern_v6\Kern\ParamsTable.c
                  Printed   0x000baa       data     static E:\Users\Pal\DEVICES\Kern_dev_\SOFT2\MCHP\Kern_v6\Microchip\TCPIP Stack\Helpers.c
                     RCON   0x000fd0       data     extern C:\MCC18\src\traditional\proc\p18F67J60.asm
                 RCONbits   0x000fd0       data     extern C:\MCC18\src\traditional\proc\p18F67J60.asm
                    RCREG   0x000fae       data     extern C:\MCC18\src\traditional\proc\p18F67J60.asm
                   RCREG1   0x000fae       data     extern C:\MCC18\src\traditional\proc\p18F67J60.asm
                    RCSTA   0x000fab       data     extern C:\MCC18\src\traditional\proc\p18F67J60.asm
                   RCSTA1   0x000fab       data     extern C:\MCC18\src\traditional\proc\p18F67J60.asm
               RCSTA1bits   0x000fab       data     extern C:\MCC18\src\traditional\proc\p18F67J60.asm
                RCSTAbits   0x000fab       data     extern C:\MCC18\src\traditional\proc\p18F67J60.asm
                   RDSave   0x000bbd       data     static E:\Users\Pal\DEVICES\Kern_dev_\SOFT2\MCHP\Kern_v6\Microchip\TCPIP Stack\ETH97J60.c
                  RamData   0x0006ed       data     static E:\Users\Pal\DEVICES\Kern_dev_\SOFT2\MCHP\Kern_v6\Kern\ParamsTable.c
                   ReadPT   0x000c1b       data     static E:\Users\Pal\DEVICES\Kern_dev_\SOFT2\MCHP\Kern_v6\Microchip\TCPIP Stack\ETH97J60.c
                   ReadPT   0x000c1b       data     static E:\Users\Pal\DEVICES\Kern_dev_\SOFT2\MCHP\Kern_v6\Microchip\TCPIP Stack\ETH97J60.c
                 ReadPort   0x00052b       data     static E:\Users\Pal\DEVICES\Kern_dev_\SOFT2\MCHP\Kern_v6\Microchip\TCPIP Stack\SNMP.c
                 ReadSave   0x000c1b       data     static E:\Users\Pal\DEVICES\Kern_dev_\SOFT2\MCHP\Kern_v6\Microchip\TCPIP Stack\ETH97J60.c
                 Register   0x0004f8       data     static E:\Users\Pal\DEVICES\Kern_dev_\SOFT2\MCHP\Kern_v6\Microchip\TCPIP Stack\ETH97J60.c
                 Register   0x0004f7       data     static E:\Users\Pal\DEVICES\Kern_dev_\SOFT2\MCHP\Kern_v6\Microchip\TCPIP Stack\ETH97J60.c
               RemoteInfo   0x000353       data     static E:\Users\Pal\DEVICES\Kern_dev_\SOFT2\MCHP\Kern_v6\Microchip\TCPIP Stack\TCP.c
      ResetIpLongPushTime   0x0001fe       data     static E:\Users\Pal\DEVICES\Kern_dev_\SOFT2\MCHP\Kern_v6\Kern\Main.c
     ResetIpShortPushTime   0x0001fd       data     static E:\Users\Pal\DEVICES\Kern_dev_\SOFT2\MCHP\Kern_v6\Kern\Main.c
              ResetStatus   0x000659       data     extern E:\Users\Pal\DEVICES\Kern_dev_\SOFT2\MCHP\Kern_v6\Kern\Main.c
                   Result   0x000ba5       data     static E:\Users\Pal\DEVICES\Kern_dev_\SOFT2\MCHP\Kern_v6\Microchip\TCPIP Stack\ETH97J60.c
                 RightLen   0x000ba7       data     static E:\Users\Pal\DEVICES\Kern_dev_\SOFT2\MCHP\Kern_v6\Microchip\TCPIP Stack\TCP.c
                     SIGN   0x000000       data     extern C:\MCC18\src\traditional\math\cmath18.asm
          SNMPAgentSocket   0x000900       data     static E:\Users\Pal\DEVICES\Kern_dev_\SOFT2\MCHP\Kern_v6\Microchip\TCPIP Stack\SNMP.c
SNMPNeedRefreshNetworkSett   0x000e76       data     extern E:\Users\Pal\DEVICES\Kern_dev_\SOFT2\MCHP\Kern_v6\Kern\CustomSNMPApp.c
           SNMPNotifyInfo   0x000512       data     extern E:\Users\Pal\DEVICES\Kern_dev_\SOFT2\MCHP\Kern_v6\Microchip\TCPIP Stack\SNMP.c
SNMPReadCommunityName_def   0x000824       data     extern E:\Users\Pal\DEVICES\Kern_dev_\SOFT2\MCHP\Kern_v6\Kern\ParamsList.c
         SNMPReadPort_def   0x000820       data     extern E:\Users\Pal\DEVICES\Kern_dev_\SOFT2\MCHP\Kern_v6\Kern\ParamsList.c
             SNMPRxOffset   0x000502       data     static E:\Users\Pal\DEVICES\Kern_dev_\SOFT2\MCHP\Kern_v6\Microchip\TCPIP Stack\SNMP.c
               SNMPStatus   0x000504       data     static E:\Users\Pal\DEVICES\Kern_dev_\SOFT2\MCHP\Kern_v6\Microchip\TCPIP Stack\SNMP.c
      SNMPTrapServer1_def   0x00080c       data     extern E:\Users\Pal\DEVICES\Kern_dev_\SOFT2\MCHP\Kern_v6\Kern\ParamsList.c
      SNMPTrapServer2_def   0x000810       data     extern E:\Users\Pal\DEVICES\Kern_dev_\SOFT2\MCHP\Kern_v6\Kern\ParamsList.c
      SNMPTrapServer3_def   0x000814       data     extern E:\Users\Pal\DEVICES\Kern_dev_\SOFT2\MCHP\Kern_v6\Kern\ParamsList.c
      SNMPTrapServer4_def   0x000818       data     extern E:\Users\Pal\DEVICES\Kern_dev_\SOFT2\MCHP\Kern_v6\Kern\ParamsList.c
      SNMPTrapServer5_def   0x00081c       data     extern E:\Users\Pal\DEVICES\Kern_dev_\SOFT2\MCHP\Kern_v6\Kern\ParamsList.c
             SNMPTxOffset   0x000500       data     extern E:\Users\Pal\DEVICES\Kern_dev_\SOFT2\MCHP\Kern_v6\Microchip\TCPIP Stack\SNMP.c
SNMPWriteCommunityName_def   0x000853       data     extern E:\Users\Pal\DEVICES\Kern_dev_\SOFT2\MCHP\Kern_v6\Kern\ParamsList.c
        SNMPWritePort_def   0x000822       data     extern E:\Users\Pal\DEVICES\Kern_dev_\SOFT2\MCHP\Kern_v6\Kern\ParamsList.c
                    SPBRG   0x000faf       data     extern C:\MCC18\src\traditional\proc\p18F67J60.asm
                   SPBRG1   0x000faf       data     extern C:\MCC18\src\traditional\proc\p18F67J60.asm
                   SPBRGH   0x000f7f       data     extern C:\MCC18\src\traditional\proc\p18F67J60.asm
                  SPBRGH1   0x000f7f       data     extern C:\MCC18\src\traditional\proc\p18F67J60.asm
                  SSP1ADD   0x000fc8       data     extern C:\MCC18\src\traditional\proc\p18F67J60.asm
                  SSP1BUF   0x000fc9       data     extern C:\MCC18\src\traditional\proc\p18F67J60.asm
                 SSP1CON1   0x000fc6       data     extern C:\MCC18\src\traditional\proc\p18F67J60.asm
             SSP1CON1bits   0x000fc6       data     extern C:\MCC18\src\traditional\proc\p18F67J60.asm
                 SSP1CON2   0x000fc5       data     extern C:\MCC18\src\traditional\proc\p18F67J60.asm
             SSP1CON2bits   0x000fc5       data     extern C:\MCC18\src\traditional\proc\p18F67J60.asm
                 SSP1STAT   0x000fc7       data     extern C:\MCC18\src\traditional\proc\p18F67J60.asm
             SSP1STATbits   0x000fc7       data     extern C:\MCC18\src\traditional\proc\p18F67J60.asm
                   SSPADD   0x000fc8       data     extern C:\MCC18\src\traditional\proc\p18F67J60.asm
                   SSPBUF   0x000fc9       data     extern C:\MCC18\src\traditional\proc\p18F67J60.asm
                  SSPCON1   0x000fc6       data     extern C:\MCC18\src\traditional\proc\p18F67J60.asm
              SSPCON1bits   0x000fc6       data     extern C:\MCC18\src\traditional\proc\p18F67J60.asm
                  SSPCON2   0x000fc5       data     extern C:\MCC18\src\traditional\proc\p18F67J60.asm
              SSPCON2bits   0x000fc5       data     extern C:\MCC18\src\traditional\proc\p18F67J60.asm
                  SSPSTAT   0x000fc7       data     extern C:\MCC18\src\traditional\proc\p18F67J60.asm
              SSPSTATbits   0x000fc7       data     extern C:\MCC18\src\traditional\proc\p18F67J60.asm
                   STATUS   0x000fd8       data     extern C:\MCC18\src\traditional\proc\p18F67J60.asm
               STATUSbits   0x000fd8       data     extern C:\MCC18\src\traditional\proc\p18F67J60.asm
                   STKPTR   0x000ffc       data     extern C:\MCC18\src\traditional\proc\p18F67J60.asm
               STKPTRbits   0x000ffc       data     extern C:\MCC18\src\traditional\proc\p18F67J60.asm
                 SYNQueue   0x000767       data     static E:\Users\Pal\DEVICES\Kern_dev_\SOFT2\MCHP\Kern_v6\Microchip\TCPIP Stack\TCP.c
            SettingsTable   0x00075b       data     extern E:\Users\Pal\DEVICES\Kern_dev_\SOFT2\MCHP\Kern_v6\Kern\ParamsTable.c
            ShortPushFlag   0x0001fb       data     static E:\Users\Pal\DEVICES\Kern_dev_\SOFT2\MCHP\Kern_v6\Kern\Main.c
             SnmpTrapPort   0x00053a       data     static E:\Users\Pal\DEVICES\Kern_dev_\SOFT2\MCHP\Kern_v6\Microchip\TCPIP Stack\SNMP.c
         SocketWithRxData   0x0003ff       data     static E:\Users\Pal\DEVICES\Kern_dev_\SOFT2\MCHP\Kern_v6\Microchip\TCPIP Stack\UDP.c
                    Start   0x000c3b       data     static E:\Users\Pal\DEVICES\Kern_dev_\SOFT2\MCHP\Kern_v6\Microchip\TCPIP Stack\ETH97J60.c
               StartIndex   0x0005bd       data     static E:\Users\Pal\DEVICES\Kern_dev_\SOFT2\MCHP\Kern_v6\Kern\I2cEEPROM.c
               StartIndex   0x0005b9       data     static E:\Users\Pal\DEVICES\Kern_dev_\SOFT2\MCHP\Kern_v6\Kern\I2cEEPROM.c
                   String   0x000e7c       data     static E:\Users\Pal\DEVICES\Kern_dev_\SOFT2\MCHP\Kern_v6\Microchip\TCPIP Stack\NBNS.c
                   String   0x000e7e       data     static E:\Users\Pal\DEVICES\Kern_dev_\SOFT2\MCHP\Kern_v6\Microchip\TCPIP Stack\NBNS.c
              SuspendFlag   0x0001fa       data     static E:\Users\Pal\DEVICES\Kern_dev_\SOFT2\MCHP\Kern_v6\Kern\Main.c
                    T0CON   0x000fd5       data     extern C:\MCC18\src\traditional\proc\p18F67J60.asm
                T0CONSave   0x000bb6       data     static E:\Users\Pal\DEVICES\Kern_dev_\SOFT2\MCHP\Kern_v6\Microchip\TCPIP Stack\Helpers.c
                T0CONbits   0x000fd5       data     extern C:\MCC18\src\traditional\proc\p18F67J60.asm
                    T1CON   0x000fcd       data     extern C:\MCC18\src\traditional\proc\p18F67J60.asm
                T1CONbits   0x000fcd       data     extern C:\MCC18\src\traditional\proc\p18F67J60.asm
                    T2CON   0x000fca       data     extern C:\MCC18\src\traditional\proc\p18F67J60.asm
                T2CONbits   0x000fca       data     extern C:\MCC18\src\traditional\proc\p18F67J60.asm
                    T3CON   0x000fb1       data     extern C:\MCC18\src\traditional\proc\p18F67J60.asm
                T3CONbits   0x000fb1       data     extern C:\MCC18\src\traditional\proc\p18F67J60.asm
                    T4CON   0x000f76       data     extern C:\MCC18\src\traditional\proc\p18F67J60.asm
                T4CONbits   0x000f76       data     extern C:\MCC18\src\traditional\proc\p18F67J60.asm
                   TABLAT   0x000ff5       data     extern C:\MCC18\src\traditional\proc\p18F67J60.asm
                   TBLPTR   0x000ff6       data     extern C:\MCC18\src\traditional\proc\p18F67J60.asm
                  TBLPTRH   0x000ff7       data     extern C:\MCC18\src\traditional\proc\p18F67J60.asm
                  TBLPTRL   0x000ff6       data     extern C:\MCC18\src\traditional\proc\p18F67J60.asm
                  TBLPTRU   0x000ff8       data     extern C:\MCC18\src\traditional\proc\p18F67J60.asm
                 TCBStubs   0x000671       data     static E:\Users\Pal\DEVICES\Kern_dev_\SOFT2\MCHP\Kern_v6\Microchip\TCPIP Stack\TCP.c
                TCPHeader   0x000ba5       data     static E:\Users\Pal\DEVICES\Kern_dev_\SOFT2\MCHP\Kern_v6\Microchip\TCPIP Stack\TCP.c
                    TMR0H   0x000fd7       data     extern C:\MCC18\src\traditional\proc\p18F67J60.asm
                TMR0HSave   0x000bb7       data     static E:\Users\Pal\DEVICES\Kern_dev_\SOFT2\MCHP\Kern_v6\Microchip\TCPIP Stack\Helpers.c
                    TMR0L   0x000fd6       data     extern C:\MCC18\src\traditional\proc\p18F67J60.asm
                TMR0LSave   0x000bb8       data     static E:\Users\Pal\DEVICES\Kern_dev_\SOFT2\MCHP\Kern_v6\Microchip\TCPIP Stack\Helpers.c
                    TMR1H   0x000fcf       data     extern C:\MCC18\src\traditional\proc\p18F67J60.asm
                    TMR1L   0x000fce       data     extern C:\MCC18\src\traditional\proc\p18F67J60.asm
                     TMR2   0x000fcc       data     extern C:\MCC18\src\traditional\proc\p18F67J60.asm
                    TMR3H   0x000fb3       data     extern C:\MCC18\src\traditional\proc\p18F67J60.asm
                    TMR3L   0x000fb2       data     extern C:\MCC18\src\traditional\proc\p18F67J60.asm
                     TMR4   0x000f78       data     extern C:\MCC18\src\traditional\proc\p18F67J60.asm
                      TOS   0x000ffd       data     extern C:\MCC18\src\traditional\proc\p18F67J60.asm
                     TOSH   0x000ffe       data     extern C:\MCC18\src\traditional\proc\p18F67J60.asm
                     TOSL   0x000ffd       data     extern C:\MCC18\src\traditional\proc\p18F67J60.asm
                     TOSU   0x000fff       data     extern C:\MCC18\src\traditional\proc\p18F67J60.asm
                    TRISA   0x000f92       data     extern C:\MCC18\src\traditional\proc\p18F67J60.asm
                TRISAbits   0x000f92       data     extern C:\MCC18\src\traditional\proc\p18F67J60.asm
                    TRISB   0x000f93       data     extern C:\MCC18\src\traditional\proc\p18F67J60.asm
                TRISBbits   0x000f93       data     extern C:\MCC18\src\traditional\proc\p18F67J60.asm
                    TRISC   0x000f94       data     extern C:\MCC18\src\traditional\proc\p18F67J60.asm
                TRISCbits   0x000f94       data     extern C:\MCC18\src\traditional\proc\p18F67J60.asm
                    TRISD   0x000f95       data     extern C:\MCC18\src\traditional\proc\p18F67J60.asm
                TRISDbits   0x000f95       data     extern C:\MCC18\src\traditional\proc\p18F67J60.asm
                    TRISE   0x000f96       data     extern C:\MCC18\src\traditional\proc\p18F67J60.asm
                TRISEbits   0x000f96       data     extern C:\MCC18\src\traditional\proc\p18F67J60.asm
                    TRISF   0x000f97       data     extern C:\MCC18\src\traditional\proc\p18F67J60.asm
                TRISFbits   0x000f97       data     extern C:\MCC18\src\traditional\proc\p18F67J60.asm
                    TRISG   0x000f98       data     extern C:\MCC18\src\traditional\proc\p18F67J60.asm
                TRISGbits   0x000f98       data     extern C:\MCC18\src\traditional\proc\p18F67J60.asm
                TXHeadPtr   0x000e74       data     static E:\Users\Pal\DEVICES\Kern_dev_\SOFT2\MCHP\Kern_v6\Kern\CustomSNMPApp.c
                    TXREG   0x000fad       data     extern C:\MCC18\src\traditional\proc\p18F67J60.asm
                   TXREG1   0x000fad       data     extern C:\MCC18\src\traditional\proc\p18F67J60.asm
                    TXSTA   0x000fac       data     extern C:\MCC18\src\traditional\proc\p18F67J60.asm
                   TXSTA1   0x000fac       data     extern C:\MCC18\src\traditional\proc\p18F67J60.asm
               TXSTA1bits   0x000fac       data     extern C:\MCC18\src\traditional\proc\p18F67J60.asm
                TXSTAbits   0x000fac       data     extern C:\MCC18\src\traditional\proc\p18F67J60.asm
                TXTailPtr   0x000e75       data     static E:\Users\Pal\DEVICES\Kern_dev_\SOFT2\MCHP\Kern_v6\Kern\CustomSNMPApp.c
                   Target   0x0002ee       data     static E:\Users\Pal\DEVICES\Kern_dev_\SOFT2\MCHP\Kern_v6\Microchip\TCPIP Stack\ARP.c
                TimerRead   0x000b77       data     static E:\Users\Pal\DEVICES\Kern_dev_\SOFT2\MCHP\Kern_v6\Kern\CustomSNMPApp.c
                      Tmp   0x000bb7       data     static E:\Users\Pal\DEVICES\Kern_dev_\SOFT2\MCHP\Kern_v6\Kern\CustomHTTPApp.c
                      Tmp   0x000bb8       data     static E:\Users\Pal\DEVICES\Kern_dev_\SOFT2\MCHP\Kern_v6\Kern\CustomHTTPApp.c
                      Tmp   0x000ba5       data     static E:\Users\Pal\DEVICES\Kern_dev_\SOFT2\MCHP\Kern_v6\Kern\UdpSet.c
             TxTrapBuffer   0x000aa0       data     static E:\Users\Pal\DEVICES\Kern_dev_\SOFT2\MCHP\Kern_v6\Kern\CustomSNMPApp.c
                     Type   0x000ba6       data     static E:\Users\Pal\DEVICES\Kern_dev_\SOFT2\MCHP\Kern_v6\Microchip\TCPIP Stack\NBNS.c
               UDPRxCount   0x0002ab       data     extern E:\Users\Pal\DEVICES\Kern_dev_\SOFT2\MCHP\Kern_v6\Microchip\TCPIP Stack\UDP.c
            UDPSocketInfo   0x000200       data     extern E:\Users\Pal\DEVICES\Kern_dev_\SOFT2\MCHP\Kern_v6\Microchip\TCPIP Stack\UDP.c
               UDPTxCount   0x0002a9       data     extern E:\Users\Pal\DEVICES\Kern_dev_\SOFT2\MCHP\Kern_v6\Microchip\TCPIP Stack\UDP.c
                     UOB0   0x000c03       data     static E:\Users\Pal\DEVICES\Kern_dev_\SOFT2\MCHP\Kern_v6\Kern\PAL_pUART.c
        UpdateReadPointer   0x000c20       data     static E:\Users\Pal\DEVICES\Kern_dev_\SOFT2\MCHP\Kern_v6\Microchip\TCPIP Stack\ETH97J60.c
       UpdateWritePointer   0x000c1f       data     static E:\Users\Pal\DEVICES\Kern_dev_\SOFT2\MCHP\Kern_v6\Microchip\TCPIP Stack\ETH97J60.c
                    Value   0x0007d8       data     static E:\Users\Pal\DEVICES\Kern_dev_\SOFT2\MCHP\Kern_v6\Microchip\TCPIP Stack\Helpers.c
                   WDTCON   0x000fd1       data     extern C:\MCC18\src\traditional\proc\p18F67J60.asm
               WDTCONbits   0x000fd1       data     extern C:\MCC18\src\traditional\proc\p18F67J60.asm
                     WREG   0x000fe8       data     extern C:\MCC18\src\traditional\proc\p18F67J60.asm
                  WritePT   0x000c1d       data     static E:\Users\Pal\DEVICES\Kern_dev_\SOFT2\MCHP\Kern_v6\Microchip\TCPIP Stack\ETH97J60.c
                WriteSave   0x000c1d       data     static E:\Users\Pal\DEVICES\Kern_dev_\SOFT2\MCHP\Kern_v6\Microchip\TCPIP Stack\ETH97J60.c
              _Identifier   0x0005d1       data     static E:\Users\Pal\DEVICES\Kern_dev_\SOFT2\MCHP\Kern_v6\Microchip\TCPIP Stack\IP.c
                 __AARGB0   0x000009       data     extern C:\MCC18\src\traditional\math\aarg.asm
                 __AARGB1   0x000008       data     extern C:\MCC18\src\traditional\math\aarg.asm
                 __AARGB2   0x000007       data     extern C:\MCC18\src\traditional\math\aarg.asm
                 __AARGB3   0x000006       data     extern C:\MCC18\src\traditional\math\aarg.asm
                 __AARGB4   0x000005       data     extern C:\MCC18\src\traditional\math\aarg.asm
                 __AARGB5   0x000004       data     extern C:\MCC18\src\traditional\math\aarg.asm
                 __AARGB6   0x000003       data     extern C:\MCC18\src\traditional\math\aarg.asm
                 __AARGB7   0x000002       data     extern C:\MCC18\src\traditional\math\aarg.asm
                   __AEXP   0x00000a       data     extern C:\MCC18\src\traditional\math\aarg.asm
        __ARPIsResolved:0   0x0002fa       data     extern E:\Users\Pal\DEVICES\Kern_dev_\SOFT2\MCHP\Kern_v6\Microchip\TCPIP Stack\ARP.c
        __ARPIsResolved:1   0x0002fc       data     extern E:\Users\Pal\DEVICES\Kern_dev_\SOFT2\MCHP\Kern_v6\Microchip\TCPIP Stack\ARP.c
               __ARPPut:0   0x0002ec       data     static E:\Users\Pal\DEVICES\Kern_dev_\SOFT2\MCHP\Kern_v6\Microchip\TCPIP Stack\ARP.c
           __ARPResolve:0   0x0002f8       data     extern E:\Users\Pal\DEVICES\Kern_dev_\SOFT2\MCHP\Kern_v6\Microchip\TCPIP Stack\ARP.c
                 __BARGB0   0x00000e       data     extern C:\MCC18\src\traditional\math\barg.asm
                 __BARGB1   0x00000d       data     extern C:\MCC18\src\traditional\math\barg.asm
                 __BARGB2   0x00000c       data     extern C:\MCC18\src\traditional\math\barg.asm
                 __BARGB3   0x00000b       data     extern C:\MCC18\src\traditional\math\barg.asm
                   __BEXP   0x00000f       data     extern C:\MCC18\src\traditional\math\barg.asm
 __CalcIPBufferChecksum:0   0x0004e1       data     extern E:\Users\Pal\DEVICES\Kern_dev_\SOFT2\MCHP\Kern_v6\Microchip\TCPIP Stack\ETH97J60.c
       __CalcIPChecksum:0   0x0007eb       data     extern E:\Users\Pal\DEVICES\Kern_dev_\SOFT2\MCHP\Kern_v6\Microchip\TCPIP Stack\Helpers.c
       __CalcIPChecksum:1   0x0007ed       data     extern E:\Users\Pal\DEVICES\Kern_dev_\SOFT2\MCHP\Kern_v6\Microchip\TCPIP Stack\Helpers.c
          __DHCPDisable:0   0x0003ec       data     extern E:\Users\Pal\DEVICES\Kern_dev_\SOFT2\MCHP\Kern_v6\Microchip\TCPIP Stack\DHCP.c
           __DHCPEnable:0   0x0003ed       data     extern E:\Users\Pal\DEVICES\Kern_dev_\SOFT2\MCHP\Kern_v6\Microchip\TCPIP Stack\DHCP.c
             __DHCPInit:0   0x0003eb       data     extern E:\Users\Pal\DEVICES\Kern_dev_\SOFT2\MCHP\Kern_v6\Microchip\TCPIP Stack\DHCP.c
          __DHCPIsBound:0   0x0003ef       data     extern E:\Users\Pal\DEVICES\Kern_dev_\SOFT2\MCHP\Kern_v6\Microchip\TCPIP Stack\DHCP.c
        __DHCPIsEnabled:0   0x0003ee       data     extern E:\Users\Pal\DEVICES\Kern_dev_\SOFT2\MCHP\Kern_v6\Microchip\TCPIP Stack\DHCP.c
 __DHCPIsServerDetected:0   0x0003f1       data     extern E:\Users\Pal\DEVICES\Kern_dev_\SOFT2\MCHP\Kern_v6\Microchip\TCPIP Stack\DHCP.c
     __DHCPStateChanged:0   0x0003f0       data     extern E:\Users\Pal\DEVICES\Kern_dev_\SOFT2\MCHP\Kern_v6\Microchip\TCPIP Stack\DHCP.c
     __EEPROM_ReadArray:0   0x0005bd       data     extern E:\Users\Pal\DEVICES\Kern_dev_\SOFT2\MCHP\Kern_v6\Kern\I2cEEPROM.c
     __EEPROM_ReadArray:1   0x0005be       data     extern E:\Users\Pal\DEVICES\Kern_dev_\SOFT2\MCHP\Kern_v6\Kern\I2cEEPROM.c
     __EEPROM_ReadArray:2   0x0005c0       data     extern E:\Users\Pal\DEVICES\Kern_dev_\SOFT2\MCHP\Kern_v6\Kern\I2cEEPROM.c
      __EEPROM_ReadByte:0   0x0005b6       data     extern E:\Users\Pal\DEVICES\Kern_dev_\SOFT2\MCHP\Kern_v6\Kern\I2cEEPROM.c
       __EEPROM_ReadMAC:0   0x0005b7       data     extern E:\Users\Pal\DEVICES\Kern_dev_\SOFT2\MCHP\Kern_v6\Kern\I2cEEPROM.c
    __EEPROM_WriteArray:0   0x0005b9       data     extern E:\Users\Pal\DEVICES\Kern_dev_\SOFT2\MCHP\Kern_v6\Kern\I2cEEPROM.c
    __EEPROM_WriteArray:1   0x0005ba       data     extern E:\Users\Pal\DEVICES\Kern_dev_\SOFT2\MCHP\Kern_v6\Kern\I2cEEPROM.c
    __EEPROM_WriteArray:2   0x0005bc       data     extern E:\Users\Pal\DEVICES\Kern_dev_\SOFT2\MCHP\Kern_v6\Kern\I2cEEPROM.c
     __EEPROM_WriteByte:0   0x0005b4       data     extern E:\Users\Pal\DEVICES\Kern_dev_\SOFT2\MCHP\Kern_v6\Kern\I2cEEPROM.c
     __EEPROM_WriteByte:1   0x0005b5       data     extern E:\Users\Pal\DEVICES\Kern_dev_\SOFT2\MCHP\Kern_v6\Kern\I2cEEPROM.c
                __FPFLAGS   0x000001       data     extern C:\MCC18\src\traditional\math\cmath18.asm
            __FPFLAGSbits   0x000001       data     extern C:\MCC18\src\traditional\math\cmath18.asm
   __FindMatchingSocket:0   0x0002dc       data     static E:\Users\Pal\DEVICES\Kern_dev_\SOFT2\MCHP\Kern_v6\Microchip\TCPIP Stack\UDP.c
   __FindMatchingSocket:0   0x0003af       data     static E:\Users\Pal\DEVICES\Kern_dev_\SOFT2\MCHP\Kern_v6\Microchip\TCPIP Stack\TCP.c
   __FindMatchingSocket:1   0x0002de       data     static E:\Users\Pal\DEVICES\Kern_dev_\SOFT2\MCHP\Kern_v6\Microchip\TCPIP Stack\UDP.c
   __FindMatchingSocket:1   0x0003b1       data     static E:\Users\Pal\DEVICES\Kern_dev_\SOFT2\MCHP\Kern_v6\Microchip\TCPIP Stack\TCP.c
   __FindMatchingSocket:2   0x0002e0       data     static E:\Users\Pal\DEVICES\Kern_dev_\SOFT2\MCHP\Kern_v6\Microchip\TCPIP Stack\UDP.c
    __FindOIDsInRequest:0   0x0005ae       data     static E:\Users\Pal\DEVICES\Kern_dev_\SOFT2\MCHP\Kern_v6\Microchip\TCPIP Stack\SNMP.c
    __FormatNetBIOSName:0   0x0007f8       data     extern E:\Users\Pal\DEVICES\Kern_dev_\SOFT2\MCHP\Kern_v6\Microchip\TCPIP Stack\Helpers.c
      __GetDataTypeInfo:0   0x00059a       data     extern E:\Users\Pal\DEVICES\Kern_dev_\SOFT2\MCHP\Kern_v6\Microchip\TCPIP Stack\SNMP.c
      __GetDataTypeInfo:1   0x00059b       data     extern E:\Users\Pal\DEVICES\Kern_dev_\SOFT2\MCHP\Kern_v6\Microchip\TCPIP Stack\SNMP.c
          __GetNextLeaf:0   0x000573       data     extern E:\Users\Pal\DEVICES\Kern_dev_\SOFT2\MCHP\Kern_v6\Microchip\TCPIP Stack\SNMP.c
   __GetOIDStringByAddr:0   0x00058e       data     extern E:\Users\Pal\DEVICES\Kern_dev_\SOFT2\MCHP\Kern_v6\Microchip\TCPIP Stack\SNMP.c
   __GetOIDStringByAddr:1   0x000590       data     extern E:\Users\Pal\DEVICES\Kern_dev_\SOFT2\MCHP\Kern_v6\Microchip\TCPIP Stack\SNMP.c
   __GetOIDStringByAddr:2   0x000592       data     extern E:\Users\Pal\DEVICES\Kern_dev_\SOFT2\MCHP\Kern_v6\Microchip\TCPIP Stack\SNMP.c
     __GetOIDStringByID:0   0x000587       data     extern E:\Users\Pal\DEVICES\Kern_dev_\SOFT2\MCHP\Kern_v6\Microchip\TCPIP Stack\SNMP.c
     __GetOIDStringByID:1   0x000588       data     extern E:\Users\Pal\DEVICES\Kern_dev_\SOFT2\MCHP\Kern_v6\Microchip\TCPIP Stack\SNMP.c
     __GetOIDStringByID:2   0x00058a       data     extern E:\Users\Pal\DEVICES\Kern_dev_\SOFT2\MCHP\Kern_v6\Microchip\TCPIP Stack\SNMP.c
     __GetOIDStringByID:3   0x00058c       data     extern E:\Users\Pal\DEVICES\Kern_dev_\SOFT2\MCHP\Kern_v6\Microchip\TCPIP Stack\SNMP.c
           __HTTPGetArg:0   0x0008c8       data     extern E:\Users\Pal\DEVICES\Kern_dev_\SOFT2\MCHP\Kern_v6\Microchip\TCPIP Stack\HTTP2.c
           __HTTPGetArg:1   0x0008ca       data     extern E:\Users\Pal\DEVICES\Kern_dev_\SOFT2\MCHP\Kern_v6\Microchip\TCPIP Stack\HTTP2.c
        __HTTPGetROMArg:0   0x0008cc       data     extern E:\Users\Pal\DEVICES\Kern_dev_\SOFT2\MCHP\Kern_v6\Microchip\TCPIP Stack\HTTP2.c
        __HTTPGetROMArg:1   0x0008ce       data     extern E:\Users\Pal\DEVICES\Kern_dev_\SOFT2\MCHP\Kern_v6\Microchip\TCPIP Stack\HTTP2.c
__HTTPHeaderParseLookup:0   0x0008c5       data     static E:\Users\Pal\DEVICES\Kern_dev_\SOFT2\MCHP\Kern_v6\Microchip\TCPIP Stack\HTTP2.c
          __HTTPIncFile:0   0x0008de       data     extern E:\Users\Pal\DEVICES\Kern_dev_\SOFT2\MCHP\Kern_v6\Microchip\TCPIP Stack\HTTP2.c
         __HTTPLoadConn:0   0x0008c4       data     static E:\Users\Pal\DEVICES\Kern_dev_\SOFT2\MCHP\Kern_v6\Microchip\TCPIP Stack\HTTP2.c
            __HTTPPrint:0   0x0008c0       data     extern E:\Users\Pal\DEVICES\Kern_dev_\SOFT2\MCHP\Kern_v6\Kern\HTTPPrint.h
          __HTTPPrintIP:0   0x0008bc       data     extern E:\Users\Pal\DEVICES\Kern_dev_\SOFT2\MCHP\Kern_v6\Kern\CustomHTTPApp.c
     __HTTPReadPostName:0   0x0008d1       data     extern E:\Users\Pal\DEVICES\Kern_dev_\SOFT2\MCHP\Kern_v6\Microchip\TCPIP Stack\HTTP2.c
     __HTTPReadPostName:1   0x0008d3       data     extern E:\Users\Pal\DEVICES\Kern_dev_\SOFT2\MCHP\Kern_v6\Microchip\TCPIP Stack\HTTP2.c
    __HTTPReadPostValue:0   0x0008d5       data     extern E:\Users\Pal\DEVICES\Kern_dev_\SOFT2\MCHP\Kern_v6\Microchip\TCPIP Stack\HTTP2.c
    __HTTPReadPostValue:1   0x0008d7       data     extern E:\Users\Pal\DEVICES\Kern_dev_\SOFT2\MCHP\Kern_v6\Microchip\TCPIP Stack\HTTP2.c
           __HTTPReadTo:0   0x0008d9       data     static E:\Users\Pal\DEVICES\Kern_dev_\SOFT2\MCHP\Kern_v6\Microchip\TCPIP Stack\HTTP2.c
           __HTTPReadTo:1   0x0008da       data     static E:\Users\Pal\DEVICES\Kern_dev_\SOFT2\MCHP\Kern_v6\Microchip\TCPIP Stack\HTTP2.c
           __HTTPReadTo:2   0x0008dc       data     static E:\Users\Pal\DEVICES\Kern_dev_\SOFT2\MCHP\Kern_v6\Microchip\TCPIP Stack\HTTP2.c
        __HTTPURLDecode:0   0x0008c6       data     extern E:\Users\Pal\DEVICES\Kern_dev_\SOFT2\MCHP\Kern_v6\Microchip\TCPIP Stack\HTTP2.c
         __HandleTCPSeg:0   0x0003b5       data     static E:\Users\Pal\DEVICES\Kern_dev_\SOFT2\MCHP\Kern_v6\Microchip\TCPIP Stack\TCP.c
         __HandleTCPSeg:1   0x0003b7       data     static E:\Users\Pal\DEVICES\Kern_dev_\SOFT2\MCHP\Kern_v6\Microchip\TCPIP Stack\TCP.c
          __ICMPProcess:0   0x0005c1       data     extern E:\Users\Pal\DEVICES\Kern_dev_\SOFT2\MCHP\Kern_v6\Microchip\TCPIP Stack\ICMP.c
          __ICMPProcess:1   0x0005c3       data     extern E:\Users\Pal\DEVICES\Kern_dev_\SOFT2\MCHP\Kern_v6\Microchip\TCPIP Stack\ICMP.c
          __IPGetHeader:0   0x0008e2       data     extern E:\Users\Pal\DEVICES\Kern_dev_\SOFT2\MCHP\Kern_v6\Microchip\TCPIP Stack\IP.c
          __IPGetHeader:1   0x0008e4       data     extern E:\Users\Pal\DEVICES\Kern_dev_\SOFT2\MCHP\Kern_v6\Microchip\TCPIP Stack\IP.c
          __IPGetHeader:2   0x0008e6       data     extern E:\Users\Pal\DEVICES\Kern_dev_\SOFT2\MCHP\Kern_v6\Microchip\TCPIP Stack\IP.c
          __IPGetHeader:3   0x0008e8       data     extern E:\Users\Pal\DEVICES\Kern_dev_\SOFT2\MCHP\Kern_v6\Microchip\TCPIP Stack\IP.c
          __IPPutHeader:0   0x0008ea       data     extern E:\Users\Pal\DEVICES\Kern_dev_\SOFT2\MCHP\Kern_v6\Microchip\TCPIP Stack\IP.c
          __IPPutHeader:1   0x0008ec       data     extern E:\Users\Pal\DEVICES\Kern_dev_\SOFT2\MCHP\Kern_v6\Microchip\TCPIP Stack\IP.c
          __IPPutHeader:2   0x0008ed       data     extern E:\Users\Pal\DEVICES\Kern_dev_\SOFT2\MCHP\Kern_v6\Microchip\TCPIP Stack\IP.c
        __IPSetRxBuffer:0   0x0008ef       data     extern E:\Users\Pal\DEVICES\Kern_dev_\SOFT2\MCHP\Kern_v6\Microchip\TCPIP Stack\IP.c
     __IsValidCommunity:0   0x000575       data     static E:\Users\Pal\DEVICES\Kern_dev_\SOFT2\MCHP\Kern_v6\Microchip\TCPIP Stack\SNMP.c
     __IsValidCommunity:1   0x000577       data     static E:\Users\Pal\DEVICES\Kern_dev_\SOFT2\MCHP\Kern_v6\Microchip\TCPIP Stack\SNMP.c
           __IsValidInt:0   0x000579       data     extern E:\Users\Pal\DEVICES\Kern_dev_\SOFT2\MCHP\Kern_v6\Microchip\TCPIP Stack\SNMP.c
        __IsValidLength:0   0x00057d       data     extern E:\Users\Pal\DEVICES\Kern_dev_\SOFT2\MCHP\Kern_v6\Microchip\TCPIP Stack\SNMP.c
           __IsValidOID:0   0x00057f       data     static E:\Users\Pal\DEVICES\Kern_dev_\SOFT2\MCHP\Kern_v6\Microchip\TCPIP Stack\SNMP.c
           __IsValidOID:1   0x000581       data     static E:\Users\Pal\DEVICES\Kern_dev_\SOFT2\MCHP\Kern_v6\Microchip\TCPIP Stack\SNMP.c
           __IsValidPDU:0   0x00057b       data     static E:\Users\Pal\DEVICES\Kern_dev_\SOFT2\MCHP\Kern_v6\Microchip\TCPIP Stack\SNMP.c
     __IsValidStructure:0   0x000583       data     extern E:\Users\Pal\DEVICES\Kern_dev_\SOFT2\MCHP\Kern_v6\Microchip\TCPIP Stack\SNMP.c
         __LFSRSeedRand:0   0x0007cb       data     extern E:\Users\Pal\DEVICES\Kern_dev_\SOFT2\MCHP\Kern_v6\Microchip\TCPIP Stack\Helpers.c
    __MACCalcRxChecksum:0   0x0004dd       data     extern E:\Users\Pal\DEVICES\Kern_dev_\SOFT2\MCHP\Kern_v6\Microchip\TCPIP Stack\ETH97J60.c
    __MACCalcRxChecksum:1   0x0004df       data     extern E:\Users\Pal\DEVICES\Kern_dev_\SOFT2\MCHP\Kern_v6\Microchip\TCPIP Stack\ETH97J60.c
          __MACGetArray:0   0x0004e9       data     extern E:\Users\Pal\DEVICES\Kern_dev_\SOFT2\MCHP\Kern_v6\Microchip\TCPIP Stack\ETH97J60.c
          __MACGetArray:1   0x0004eb       data     extern E:\Users\Pal\DEVICES\Kern_dev_\SOFT2\MCHP\Kern_v6\Microchip\TCPIP Stack\ETH97J60.c
         __MACGetHeader:0   0x0004ce       data     extern E:\Users\Pal\DEVICES\Kern_dev_\SOFT2\MCHP\Kern_v6\Microchip\TCPIP Stack\ETH97J60.c
         __MACGetHeader:1   0x0004d0       data     extern E:\Users\Pal\DEVICES\Kern_dev_\SOFT2\MCHP\Kern_v6\Microchip\TCPIP Stack\ETH97J60.c
      __MACMemCopyAsync:0   0x0004e3       data     extern E:\Users\Pal\DEVICES\Kern_dev_\SOFT2\MCHP\Kern_v6\Microchip\TCPIP Stack\ETH97J60.c
      __MACMemCopyAsync:1   0x0004e5       data     extern E:\Users\Pal\DEVICES\Kern_dev_\SOFT2\MCHP\Kern_v6\Microchip\TCPIP Stack\ETH97J60.c
      __MACMemCopyAsync:2   0x0004e7       data     extern E:\Users\Pal\DEVICES\Kern_dev_\SOFT2\MCHP\Kern_v6\Microchip\TCPIP Stack\ETH97J60.c
               __MACPut:0   0x0004ed       data     extern E:\Users\Pal\DEVICES\Kern_dev_\SOFT2\MCHP\Kern_v6\Microchip\TCPIP Stack\ETH97J60.c
          __MACPutArray:0   0x0004ee       data     extern E:\Users\Pal\DEVICES\Kern_dev_\SOFT2\MCHP\Kern_v6\Microchip\TCPIP Stack\ETH97J60.c
          __MACPutArray:1   0x0004f0       data     extern E:\Users\Pal\DEVICES\Kern_dev_\SOFT2\MCHP\Kern_v6\Microchip\TCPIP Stack\ETH97J60.c
         __MACPutHeader:0   0x0004d2       data     extern E:\Users\Pal\DEVICES\Kern_dev_\SOFT2\MCHP\Kern_v6\Microchip\TCPIP Stack\ETH97J60.c
         __MACPutHeader:1   0x0004d4       data     extern E:\Users\Pal\DEVICES\Kern_dev_\SOFT2\MCHP\Kern_v6\Microchip\TCPIP Stack\ETH97J60.c
         __MACPutHeader:2   0x0004d5       data     extern E:\Users\Pal\DEVICES\Kern_dev_\SOFT2\MCHP\Kern_v6\Microchip\TCPIP Stack\ETH97J60.c
       __MACPutROMArray:0   0x0004f2       data     extern E:\Users\Pal\DEVICES\Kern_dev_\SOFT2\MCHP\Kern_v6\Microchip\TCPIP Stack\ETH97J60.c
       __MACPutROMArray:1   0x0004f5       data     extern E:\Users\Pal\DEVICES\Kern_dev_\SOFT2\MCHP\Kern_v6\Microchip\TCPIP Stack\ETH97J60.c
        __MACSetReadPtr:0   0x0004db       data     extern E:\Users\Pal\DEVICES\Kern_dev_\SOFT2\MCHP\Kern_v6\Microchip\TCPIP Stack\ETH97J60.c
    __MACSetReadPtrInRx:0   0x0004d7       data     extern E:\Users\Pal\DEVICES\Kern_dev_\SOFT2\MCHP\Kern_v6\Microchip\TCPIP Stack\ETH97J60.c
       __MACSetWritePtr:0   0x0004d9       data     extern E:\Users\Pal\DEVICES\Kern_dev_\SOFT2\MCHP\Kern_v6\Microchip\TCPIP Stack\ETH97J60.c
            __MPFSClose:0   0x0000d2       data     extern E:\Users\Pal\DEVICES\Kern_dev_\SOFT2\MCHP\Kern_v6\Microchip\TCPIP Stack\MPFS2.c
              __MPFSGet:0   0x0000d3       data     extern E:\Users\Pal\DEVICES\Kern_dev_\SOFT2\MCHP\Kern_v6\Microchip\TCPIP Stack\MPFS2.c
              __MPFSGet:1   0x0000d4       data     extern E:\Users\Pal\DEVICES\Kern_dev_\SOFT2\MCHP\Kern_v6\Microchip\TCPIP Stack\MPFS2.c
         __MPFSGetArray:0   0x0000d6       data     extern E:\Users\Pal\DEVICES\Kern_dev_\SOFT2\MCHP\Kern_v6\Microchip\TCPIP Stack\MPFS2.c
         __MPFSGetArray:1   0x0000d7       data     extern E:\Users\Pal\DEVICES\Kern_dev_\SOFT2\MCHP\Kern_v6\Microchip\TCPIP Stack\MPFS2.c
         __MPFSGetArray:2   0x0000d9       data     extern E:\Users\Pal\DEVICES\Kern_dev_\SOFT2\MCHP\Kern_v6\Microchip\TCPIP Stack\MPFS2.c
      __MPFSGetBytesRem:0   0x0000ea       data     extern E:\Users\Pal\DEVICES\Kern_dev_\SOFT2\MCHP\Kern_v6\Microchip\TCPIP Stack\MPFS2.c
       __MPFSGetEndAddr:0   0x0000ec       data     extern E:\Users\Pal\DEVICES\Kern_dev_\SOFT2\MCHP\Kern_v6\Microchip\TCPIP Stack\MPFS2.c
      __MPFSGetFilename:0   0x0000ed       data     extern E:\Users\Pal\DEVICES\Kern_dev_\SOFT2\MCHP\Kern_v6\Microchip\TCPIP Stack\MPFS2.c
      __MPFSGetFilename:1   0x0000ee       data     extern E:\Users\Pal\DEVICES\Kern_dev_\SOFT2\MCHP\Kern_v6\Microchip\TCPIP Stack\MPFS2.c
      __MPFSGetFilename:2   0x0000f0       data     extern E:\Users\Pal\DEVICES\Kern_dev_\SOFT2\MCHP\Kern_v6\Microchip\TCPIP Stack\MPFS2.c
         __MPFSGetFlags:0   0x0000e8       data     extern E:\Users\Pal\DEVICES\Kern_dev_\SOFT2\MCHP\Kern_v6\Microchip\TCPIP Stack\MPFS2.c
            __MPFSGetID:0   0x0000f3       data     extern E:\Users\Pal\DEVICES\Kern_dev_\SOFT2\MCHP\Kern_v6\Microchip\TCPIP Stack\MPFS2.c
          __MPFSGetLong:0   0x0000db       data     extern E:\Users\Pal\DEVICES\Kern_dev_\SOFT2\MCHP\Kern_v6\Microchip\TCPIP Stack\MPFS2.c
          __MPFSGetLong:1   0x0000dc       data     extern E:\Users\Pal\DEVICES\Kern_dev_\SOFT2\MCHP\Kern_v6\Microchip\TCPIP Stack\MPFS2.c
     __MPFSGetMicrotime:0   0x0000e7       data     extern E:\Users\Pal\DEVICES\Kern_dev_\SOFT2\MCHP\Kern_v6\Microchip\TCPIP Stack\MPFS2.c
      __MPFSGetPosition:0   0x0000f2       data     extern E:\Users\Pal\DEVICES\Kern_dev_\SOFT2\MCHP\Kern_v6\Microchip\TCPIP Stack\MPFS2.c
          __MPFSGetSize:0   0x0000e9       data     extern E:\Users\Pal\DEVICES\Kern_dev_\SOFT2\MCHP\Kern_v6\Microchip\TCPIP Stack\MPFS2.c
     __MPFSGetStartAddr:0   0x0000eb       data     extern E:\Users\Pal\DEVICES\Kern_dev_\SOFT2\MCHP\Kern_v6\Microchip\TCPIP Stack\MPFS2.c
     __MPFSGetTimestamp:0   0x0000e6       data     extern E:\Users\Pal\DEVICES\Kern_dev_\SOFT2\MCHP\Kern_v6\Microchip\TCPIP Stack\MPFS2.c
             __MPFSOpen:0   0x0000cb       data     extern E:\Users\Pal\DEVICES\Kern_dev_\SOFT2\MCHP\Kern_v6\Microchip\TCPIP Stack\MPFS2.c
           __MPFSOpenID:0   0x0000d0       data     extern E:\Users\Pal\DEVICES\Kern_dev_\SOFT2\MCHP\Kern_v6\Microchip\TCPIP Stack\MPFS2.c
          __MPFSOpenROM:0   0x0000cd       data     extern E:\Users\Pal\DEVICES\Kern_dev_\SOFT2\MCHP\Kern_v6\Microchip\TCPIP Stack\MPFS2.c
             __MPFSSeek:0   0x0000de       data     extern E:\Users\Pal\DEVICES\Kern_dev_\SOFT2\MCHP\Kern_v6\Microchip\TCPIP Stack\MPFS2.c
             __MPFSSeek:1   0x0000df       data     extern E:\Users\Pal\DEVICES\Kern_dev_\SOFT2\MCHP\Kern_v6\Microchip\TCPIP Stack\MPFS2.c
             __MPFSSeek:2   0x0000e3       data     extern E:\Users\Pal\DEVICES\Kern_dev_\SOFT2\MCHP\Kern_v6\Microchip\TCPIP Stack\MPFS2.c
          __NBNSGetName:0   0x000e7e       data     static E:\Users\Pal\DEVICES\Kern_dev_\SOFT2\MCHP\Kern_v6\Microchip\TCPIP Stack\NBNS.c
          __NBNSPutName:0   0x000e7c       data     static E:\Users\Pal\DEVICES\Kern_dev_\SOFT2\MCHP\Kern_v6\Microchip\TCPIP Stack\NBNS.c
            __OIDLookup:0   0x00056c       data     extern E:\Users\Pal\DEVICES\Kern_dev_\SOFT2\MCHP\Kern_v6\Microchip\TCPIP Stack\SNMP.c
            __OIDLookup:1   0x00056e       data     extern E:\Users\Pal\DEVICES\Kern_dev_\SOFT2\MCHP\Kern_v6\Microchip\TCPIP Stack\SNMP.c
            __OIDLookup:2   0x000570       data     extern E:\Users\Pal\DEVICES\Kern_dev_\SOFT2\MCHP\Kern_v6\Microchip\TCPIP Stack\SNMP.c
            __OIDLookup:3   0x000571       data     extern E:\Users\Pal\DEVICES\Kern_dev_\SOFT2\MCHP\Kern_v6\Microchip\TCPIP Stack\SNMP.c
    __ProcessGetBulkVar:0   0x00055c       data     extern E:\Users\Pal\DEVICES\Kern_dev_\SOFT2\MCHP\Kern_v6\Microchip\TCPIP Stack\SNMP.c
    __ProcessGetBulkVar:1   0x00055e       data     extern E:\Users\Pal\DEVICES\Kern_dev_\SOFT2\MCHP\Kern_v6\Microchip\TCPIP Stack\SNMP.c
    __ProcessGetBulkVar:2   0x000560       data     extern E:\Users\Pal\DEVICES\Kern_dev_\SOFT2\MCHP\Kern_v6\Microchip\TCPIP Stack\SNMP.c
    __ProcessGetBulkVar:3   0x000562       data     extern E:\Users\Pal\DEVICES\Kern_dev_\SOFT2\MCHP\Kern_v6\Microchip\TCPIP Stack\SNMP.c
    __ProcessGetBulkVar:4   0x000564       data     extern E:\Users\Pal\DEVICES\Kern_dev_\SOFT2\MCHP\Kern_v6\Microchip\TCPIP Stack\SNMP.c
    __ProcessGetNextVar:0   0x000552       data     extern E:\Users\Pal\DEVICES\Kern_dev_\SOFT2\MCHP\Kern_v6\Microchip\TCPIP Stack\SNMP.c
    __ProcessGetNextVar:1   0x000554       data     extern E:\Users\Pal\DEVICES\Kern_dev_\SOFT2\MCHP\Kern_v6\Microchip\TCPIP Stack\SNMP.c
  __ProcessGetSetHeader:0   0x00054b       data     static E:\Users\Pal\DEVICES\Kern_dev_\SOFT2\MCHP\Kern_v6\Microchip\TCPIP Stack\SNMP.c
        __ProcessGetVar:0   0x0005a3       data     extern E:\Users\Pal\DEVICES\Kern_dev_\SOFT2\MCHP\Kern_v6\Microchip\TCPIP Stack\SNMP.c
        __ProcessGetVar:1   0x0005a5       data     extern E:\Users\Pal\DEVICES\Kern_dev_\SOFT2\MCHP\Kern_v6\Microchip\TCPIP Stack\SNMP.c
        __ProcessGetVar:2   0x0005a6       data     extern E:\Users\Pal\DEVICES\Kern_dev_\SOFT2\MCHP\Kern_v6\Microchip\TCPIP Stack\SNMP.c
        __ProcessHeader:0   0x000545       data     static E:\Users\Pal\DEVICES\Kern_dev_\SOFT2\MCHP\Kern_v6\Microchip\TCPIP Stack\SNMP.c
        __ProcessHeader:1   0x000547       data     static E:\Users\Pal\DEVICES\Kern_dev_\SOFT2\MCHP\Kern_v6\Microchip\TCPIP Stack\SNMP.c
        __ProcessHeader:2   0x000549       data     static E:\Users\Pal\DEVICES\Kern_dev_\SOFT2\MCHP\Kern_v6\Microchip\TCPIP Stack\SNMP.c
        __ProcessSetVar:0   0x00059d       data     extern E:\Users\Pal\DEVICES\Kern_dev_\SOFT2\MCHP\Kern_v6\Microchip\TCPIP Stack\SNMP.c
        __ProcessSetVar:1   0x00059f       data     extern E:\Users\Pal\DEVICES\Kern_dev_\SOFT2\MCHP\Kern_v6\Microchip\TCPIP Stack\SNMP.c
        __ProcessSetVar:2   0x0005a1       data     extern E:\Users\Pal\DEVICES\Kern_dev_\SOFT2\MCHP\Kern_v6\Microchip\TCPIP Stack\SNMP.c
     __ProcessVariables:0   0x00054d       data     static E:\Users\Pal\DEVICES\Kern_dev_\SOFT2\MCHP\Kern_v6\Microchip\TCPIP Stack\SNMP.c
     __ProcessVariables:1   0x00054f       data     static E:\Users\Pal\DEVICES\Kern_dev_\SOFT2\MCHP\Kern_v6\Microchip\TCPIP Stack\SNMP.c
     __ProcessVariables:2   0x000551       data     static E:\Users\Pal\DEVICES\Kern_dev_\SOFT2\MCHP\Kern_v6\Microchip\TCPIP Stack\SNMP.c
                  __REMB0   0x000005       data     extern C:\MCC18\src\traditional\math\aarg.asm
                  __REMB1   0x000004       data     extern C:\MCC18\src\traditional\math\aarg.asm
                  __REMB2   0x000003       data     extern C:\MCC18\src\traditional\math\aarg.asm
                  __REMB3   0x000002       data     extern C:\MCC18\src\traditional\math\aarg.asm
 __ROMStringToIPAddress:0   0x0007d3       data     extern E:\Users\Pal\DEVICES\Kern_dev_\SOFT2\MCHP\Kern_v6\Microchip\TCPIP Stack\Helpers.c
 __ROMStringToIPAddress:1   0x0007d6       data     extern E:\Users\Pal\DEVICES\Kern_dev_\SOFT2\MCHP\Kern_v6\Microchip\TCPIP Stack\Helpers.c
        __ReadMIBRecord:0   0x000594       data     static E:\Users\Pal\DEVICES\Kern_dev_\SOFT2\MCHP\Kern_v6\Microchip\TCPIP Stack\SNMP.c
        __ReadMIBRecord:1   0x000598       data     static E:\Users\Pal\DEVICES\Kern_dev_\SOFT2\MCHP\Kern_v6\Microchip\TCPIP Stack\SNMP.c
           __ReadPHYReg:0   0x0004f7       data     extern E:\Users\Pal\DEVICES\Kern_dev_\SOFT2\MCHP\Kern_v6\Microchip\TCPIP Stack\ETH97J60.c
__SNMPCheckIfPvtMibObjRequested:0   0x0005b0       data     static E:\Users\Pal\DEVICES\Kern_dev_\SOFT2\MCHP\Kern_v6\Microchip\TCPIP Stack\SNMP.c
    __SNMPGetExactIndex:0   0x000b93       data     extern E:\Users\Pal\DEVICES\Kern_dev_\SOFT2\MCHP\Kern_v6\Kern\CustomSNMPApp.c
    __SNMPGetExactIndex:1   0x000b94       data     extern E:\Users\Pal\DEVICES\Kern_dev_\SOFT2\MCHP\Kern_v6\Kern\CustomSNMPApp.c
     __SNMPGetNextIndex:0   0x000b95       data     extern E:\Users\Pal\DEVICES\Kern_dev_\SOFT2\MCHP\Kern_v6\Kern\CustomSNMPApp.c
     __SNMPGetNextIndex:1   0x000b96       data     extern E:\Users\Pal\DEVICES\Kern_dev_\SOFT2\MCHP\Kern_v6\Kern\CustomSNMPApp.c
           __SNMPGetVar:0   0x000b9f       data     extern E:\Users\Pal\DEVICES\Kern_dev_\SOFT2\MCHP\Kern_v6\Kern\CustomSNMPApp.c
           __SNMPGetVar:1   0x000ba0       data     extern E:\Users\Pal\DEVICES\Kern_dev_\SOFT2\MCHP\Kern_v6\Kern\CustomSNMPApp.c
           __SNMPGetVar:2   0x000ba1       data     extern E:\Users\Pal\DEVICES\Kern_dev_\SOFT2\MCHP\Kern_v6\Kern\CustomSNMPApp.c
           __SNMPGetVar:3   0x000ba3       data     extern E:\Users\Pal\DEVICES\Kern_dev_\SOFT2\MCHP\Kern_v6\Kern\CustomSNMPApp.c
__SNMPIdRecrdValidation:0   0x000b98       data     extern E:\Users\Pal\DEVICES\Kern_dev_\SOFT2\MCHP\Kern_v6\Kern\CustomSNMPApp.c
__SNMPIdRecrdValidation:1   0x000b9a       data     extern E:\Users\Pal\DEVICES\Kern_dev_\SOFT2\MCHP\Kern_v6\Kern\CustomSNMPApp.c
__SNMPIdRecrdValidation:2   0x000b9c       data     extern E:\Users\Pal\DEVICES\Kern_dev_\SOFT2\MCHP\Kern_v6\Kern\CustomSNMPApp.c
__SNMPIdRecrdValidation:3   0x000b9e       data     extern E:\Users\Pal\DEVICES\Kern_dev_\SOFT2\MCHP\Kern_v6\Kern\CustomSNMPApp.c
    __SNMPIsNotifyReady:0   0x000538       data     extern E:\Users\Pal\DEVICES\Kern_dev_\SOFT2\MCHP\Kern_v6\Microchip\TCPIP Stack\SNMP.c
    __SNMPIsNotifyReady:1   0x00053a       data     extern E:\Users\Pal\DEVICES\Kern_dev_\SOFT2\MCHP\Kern_v6\Microchip\TCPIP Stack\SNMP.c
    __SNMPIsValidSetLen:0   0x000b89       data     extern E:\Users\Pal\DEVICES\Kern_dev_\SOFT2\MCHP\Kern_v6\Kern\CustomSNMPApp.c
    __SNMPIsValidSetLen:1   0x000b8a       data     extern E:\Users\Pal\DEVICES\Kern_dev_\SOFT2\MCHP\Kern_v6\Kern\CustomSNMPApp.c
    __SNMPIsValidSetLen:2   0x000b8b       data     extern E:\Users\Pal\DEVICES\Kern_dev_\SOFT2\MCHP\Kern_v6\Kern\CustomSNMPApp.c
           __SNMPNotify:0   0x00053f       data     extern E:\Users\Pal\DEVICES\Kern_dev_\SOFT2\MCHP\Kern_v6\Microchip\TCPIP Stack\SNMP.c
           __SNMPNotify:1   0x000540       data     extern E:\Users\Pal\DEVICES\Kern_dev_\SOFT2\MCHP\Kern_v6\Microchip\TCPIP Stack\SNMP.c
           __SNMPNotify:2   0x000544       data     extern E:\Users\Pal\DEVICES\Kern_dev_\SOFT2\MCHP\Kern_v6\Microchip\TCPIP Stack\SNMP.c
    __SNMPNotifyPrepare:0   0x00052d       data     extern E:\Users\Pal\DEVICES\Kern_dev_\SOFT2\MCHP\Kern_v6\Microchip\TCPIP Stack\SNMP.c
    __SNMPNotifyPrepare:1   0x00052f       data     extern E:\Users\Pal\DEVICES\Kern_dev_\SOFT2\MCHP\Kern_v6\Microchip\TCPIP Stack\SNMP.c
    __SNMPNotifyPrepare:2   0x000531       data     extern E:\Users\Pal\DEVICES\Kern_dev_\SOFT2\MCHP\Kern_v6\Microchip\TCPIP Stack\SNMP.c
    __SNMPNotifyPrepare:3   0x000532       data     extern E:\Users\Pal\DEVICES\Kern_dev_\SOFT2\MCHP\Kern_v6\Microchip\TCPIP Stack\SNMP.c
    __SNMPNotifyPrepare:4   0x000533       data     extern E:\Users\Pal\DEVICES\Kern_dev_\SOFT2\MCHP\Kern_v6\Microchip\TCPIP Stack\SNMP.c
    __SNMPNotifyPrepare:5   0x000534       data     extern E:\Users\Pal\DEVICES\Kern_dev_\SOFT2\MCHP\Kern_v6\Microchip\TCPIP Stack\SNMP.c
   __SNMPSendSpaSibTrap:0   0x000b6b       data     extern E:\Users\Pal\DEVICES\Kern_dev_\SOFT2\MCHP\Kern_v6\Kern\CustomSNMPApp.c
   __SNMPSendSpaSibTrap:1   0x000b6c       data     extern E:\Users\Pal\DEVICES\Kern_dev_\SOFT2\MCHP\Kern_v6\Kern\CustomSNMPApp.c
   __SNMPSendSpaSibTrap:2   0x000b70       data     extern E:\Users\Pal\DEVICES\Kern_dev_\SOFT2\MCHP\Kern_v6\Kern\CustomSNMPApp.c
   __SNMPSendSpaSibTrap:3   0x000b74       data     extern E:\Users\Pal\DEVICES\Kern_dev_\SOFT2\MCHP\Kern_v6\Kern\CustomSNMPApp.c
__SNMPSendSpaSibTrapAll:0   0x000b60       data     extern E:\Users\Pal\DEVICES\Kern_dev_\SOFT2\MCHP\Kern_v6\Kern\CustomSNMPApp.c
__SNMPSendSpaSibTrapAll:1   0x000b64       data     extern E:\Users\Pal\DEVICES\Kern_dev_\SOFT2\MCHP\Kern_v6\Kern\CustomSNMPApp.c
__SNMPSendSpaSibTrapAll:2   0x000b68       data     extern E:\Users\Pal\DEVICES\Kern_dev_\SOFT2\MCHP\Kern_v6\Kern\CustomSNMPApp.c
           __SNMPSetVar:0   0x000b8c       data     extern E:\Users\Pal\DEVICES\Kern_dev_\SOFT2\MCHP\Kern_v6\Kern\CustomSNMPApp.c
           __SNMPSetVar:1   0x000b8d       data     extern E:\Users\Pal\DEVICES\Kern_dev_\SOFT2\MCHP\Kern_v6\Kern\CustomSNMPApp.c
           __SNMPSetVar:2   0x000b8e       data     extern E:\Users\Pal\DEVICES\Kern_dev_\SOFT2\MCHP\Kern_v6\Kern\CustomSNMPApp.c
           __SNMPSetVar:3   0x000b8f       data     extern E:\Users\Pal\DEVICES\Kern_dev_\SOFT2\MCHP\Kern_v6\Kern\CustomSNMPApp.c
__SNMPValidateCommunity:0   0x000b87       data     extern E:\Users\Pal\DEVICES\Kern_dev_\SOFT2\MCHP\Kern_v6\Kern\CustomSNMPApp.c
        __SaveAppConfig:0   0x00066f       data     extern E:\Users\Pal\DEVICES\Kern_dev_\SOFT2\MCHP\Kern_v6\Kern\Main.c
             __SendByte:0   0x0005b2       data     extern E:\Users\Pal\DEVICES\Kern_dev_\SOFT2\MCHP\Kern_v6\Kern\I2cEEPROM.c
      __SendDataToUdpTx:0   0x0004fc       data     extern E:\Users\Pal\DEVICES\Kern_dev_\SOFT2\MCHP\Kern_v6\Kern\UdpSet.c
      __SendDataToUdpTx:1   0x0004fe       data     extern E:\Users\Pal\DEVICES\Kern_dev_\SOFT2\MCHP\Kern_v6\Kern\UdpSet.c
               __SendID:0   0x0005b3       data     extern E:\Users\Pal\DEVICES\Kern_dev_\SOFT2\MCHP\Kern_v6\Kern\I2cEEPROM.c
              __SendTCP:0   0x0003ad       data     static E:\Users\Pal\DEVICES\Kern_dev_\SOFT2\MCHP\Kern_v6\Microchip\TCPIP Stack\TCP.c
              __SendTCP:1   0x0003ae       data     static E:\Users\Pal\DEVICES\Kern_dev_\SOFT2\MCHP\Kern_v6\Microchip\TCPIP Stack\TCP.c
       __SetErrorStatus:0   0x0005a8       data     extern E:\Users\Pal\DEVICES\Kern_dev_\SOFT2\MCHP\Kern_v6\Microchip\TCPIP Stack\SNMP.c
       __SetErrorStatus:1   0x0005aa       data     extern E:\Users\Pal\DEVICES\Kern_dev_\SOFT2\MCHP\Kern_v6\Microchip\TCPIP Stack\SNMP.c
       __SetErrorStatus:2   0x0005ac       data     extern E:\Users\Pal\DEVICES\Kern_dev_\SOFT2\MCHP\Kern_v6\Microchip\TCPIP Stack\SNMP.c
       __SetErrorStatus:3   0x0005ad       data     extern E:\Users\Pal\DEVICES\Kern_dev_\SOFT2\MCHP\Kern_v6\Microchip\TCPIP Stack\SNMP.c
         __SettingsInit:0   0x0006e1       data     extern E:\Users\Pal\DEVICES\Kern_dev_\SOFT2\MCHP\Kern_v6\Kern\ParamsTable.c
         __SettingsLoad:0   0x0006e5       data     extern E:\Users\Pal\DEVICES\Kern_dev_\SOFT2\MCHP\Kern_v6\Kern\ParamsTable.c
         __SettingsLoad:1   0x0006e7       data     extern E:\Users\Pal\DEVICES\Kern_dev_\SOFT2\MCHP\Kern_v6\Kern\ParamsTable.c
  __SettingsLoadPointer:0   0x0006e9       data     extern E:\Users\Pal\DEVICES\Kern_dev_\SOFT2\MCHP\Kern_v6\Kern\ParamsTable.c
  __SettingsLoadPointer:1   0x0006eb       data     extern E:\Users\Pal\DEVICES\Kern_dev_\SOFT2\MCHP\Kern_v6\Kern\ParamsTable.c
        __SettingsReset:0   0x0006f8       data     extern E:\Users\Pal\DEVICES\Kern_dev_\SOFT2\MCHP\Kern_v6\Kern\ParamsTable.c
        __SettingsReset:1   0x0006fa       data     extern E:\Users\Pal\DEVICES\Kern_dev_\SOFT2\MCHP\Kern_v6\Kern\ParamsTable.c
 __SettingsResetPointer:0   0x0006fc       data     extern E:\Users\Pal\DEVICES\Kern_dev_\SOFT2\MCHP\Kern_v6\Kern\ParamsTable.c
 __SettingsResetPointer:1   0x0006fe       data     extern E:\Users\Pal\DEVICES\Kern_dev_\SOFT2\MCHP\Kern_v6\Kern\ParamsTable.c
         __SettingsSave:0   0x0006f2       data     extern E:\Users\Pal\DEVICES\Kern_dev_\SOFT2\MCHP\Kern_v6\Kern\ParamsTable.c
  __SettingsSavePointer:0   0x0006f4       data     extern E:\Users\Pal\DEVICES\Kern_dev_\SOFT2\MCHP\Kern_v6\Kern\ParamsTable.c
  __SettingsSavePointer:1   0x0006f6       data     extern E:\Users\Pal\DEVICES\Kern_dev_\SOFT2\MCHP\Kern_v6\Kern\ParamsTable.c
    __SettingsSetDefaul:0   0x0006e3       data     extern E:\Users\Pal\DEVICES\Kern_dev_\SOFT2\MCHP\Kern_v6\Kern\ParamsTable.c
       __SpaSibSNMPInit:0   0x00052b       data     extern E:\Users\Pal\DEVICES\Kern_dev_\SOFT2\MCHP\Kern_v6\Microchip\TCPIP Stack\SNMP.c
    __StringToIPAddress:0   0x0007cf       data     extern E:\Users\Pal\DEVICES\Kern_dev_\SOFT2\MCHP\Kern_v6\Microchip\TCPIP Stack\Helpers.c
    __StringToIPAddress:1   0x0007d1       data     extern E:\Users\Pal\DEVICES\Kern_dev_\SOFT2\MCHP\Kern_v6\Microchip\TCPIP Stack\Helpers.c
        __SwapARPPacket:0   0x0002fe       data     extern E:\Users\Pal\DEVICES\Kern_dev_\SOFT2\MCHP\Kern_v6\Microchip\TCPIP Stack\ARP.c
         __SwapIPHeader:0   0x0008f1       data     static E:\Users\Pal\DEVICES\Kern_dev_\SOFT2\MCHP\Kern_v6\Microchip\TCPIP Stack\IP.c
        __SwapTCPHeader:0   0x0003b3       data     static E:\Users\Pal\DEVICES\Kern_dev_\SOFT2\MCHP\Kern_v6\Microchip\TCPIP Stack\TCP.c
          __SyncTCBStub:0   0x000345       data     static E:\Users\Pal\DEVICES\Kern_dev_\SOFT2\MCHP\Kern_v6\Microchip\TCPIP Stack\TCP.c
    __TCPAdjustFIFOSize:0   0x0003b9       data     extern E:\Users\Pal\DEVICES\Kern_dev_\SOFT2\MCHP\Kern_v6\Microchip\TCPIP Stack\TCP.c
    __TCPAdjustFIFOSize:1   0x0003ba       data     extern E:\Users\Pal\DEVICES\Kern_dev_\SOFT2\MCHP\Kern_v6\Microchip\TCPIP Stack\TCP.c
    __TCPAdjustFIFOSize:2   0x0003bc       data     extern E:\Users\Pal\DEVICES\Kern_dev_\SOFT2\MCHP\Kern_v6\Microchip\TCPIP Stack\TCP.c
    __TCPAdjustFIFOSize:3   0x0003be       data     extern E:\Users\Pal\DEVICES\Kern_dev_\SOFT2\MCHP\Kern_v6\Microchip\TCPIP Stack\TCP.c
             __TCPClose:0   0x000351       data     extern E:\Users\Pal\DEVICES\Kern_dev_\SOFT2\MCHP\Kern_v6\Microchip\TCPIP Stack\TCP.c
           __TCPDiscard:0   0x000376       data     extern E:\Users\Pal\DEVICES\Kern_dev_\SOFT2\MCHP\Kern_v6\Microchip\TCPIP Stack\TCP.c
        __TCPDisconnect:0   0x000350       data     extern E:\Users\Pal\DEVICES\Kern_dev_\SOFT2\MCHP\Kern_v6\Microchip\TCPIP Stack\TCP.c
       __TCPFindArrayEx:0   0x00038b       data     extern E:\Users\Pal\DEVICES\Kern_dev_\SOFT2\MCHP\Kern_v6\Microchip\TCPIP Stack\TCP.c
       __TCPFindArrayEx:1   0x00038c       data     extern E:\Users\Pal\DEVICES\Kern_dev_\SOFT2\MCHP\Kern_v6\Microchip\TCPIP Stack\TCP.c
       __TCPFindArrayEx:2   0x00038e       data     extern E:\Users\Pal\DEVICES\Kern_dev_\SOFT2\MCHP\Kern_v6\Microchip\TCPIP Stack\TCP.c
       __TCPFindArrayEx:3   0x000390       data     extern E:\Users\Pal\DEVICES\Kern_dev_\SOFT2\MCHP\Kern_v6\Microchip\TCPIP Stack\TCP.c
       __TCPFindArrayEx:4   0x000392       data     extern E:\Users\Pal\DEVICES\Kern_dev_\SOFT2\MCHP\Kern_v6\Microchip\TCPIP Stack\TCP.c
       __TCPFindArrayEx:5   0x000394       data     extern E:\Users\Pal\DEVICES\Kern_dev_\SOFT2\MCHP\Kern_v6\Microchip\TCPIP Stack\TCP.c
            __TCPFindEx:0   0x0003a0       data     extern E:\Users\Pal\DEVICES\Kern_dev_\SOFT2\MCHP\Kern_v6\Microchip\TCPIP Stack\TCP.c
            __TCPFindEx:1   0x0003a1       data     extern E:\Users\Pal\DEVICES\Kern_dev_\SOFT2\MCHP\Kern_v6\Microchip\TCPIP Stack\TCP.c
            __TCPFindEx:2   0x0003a2       data     extern E:\Users\Pal\DEVICES\Kern_dev_\SOFT2\MCHP\Kern_v6\Microchip\TCPIP Stack\TCP.c
            __TCPFindEx:3   0x0003a4       data     extern E:\Users\Pal\DEVICES\Kern_dev_\SOFT2\MCHP\Kern_v6\Microchip\TCPIP Stack\TCP.c
            __TCPFindEx:4   0x0003a6       data     extern E:\Users\Pal\DEVICES\Kern_dev_\SOFT2\MCHP\Kern_v6\Microchip\TCPIP Stack\TCP.c
    __TCPFindROMArrayEx:0   0x000395       data     extern E:\Users\Pal\DEVICES\Kern_dev_\SOFT2\MCHP\Kern_v6\Microchip\TCPIP Stack\TCP.c
    __TCPFindROMArrayEx:1   0x000396       data     extern E:\Users\Pal\DEVICES\Kern_dev_\SOFT2\MCHP\Kern_v6\Microchip\TCPIP Stack\TCP.c
    __TCPFindROMArrayEx:2   0x000399       data     extern E:\Users\Pal\DEVICES\Kern_dev_\SOFT2\MCHP\Kern_v6\Microchip\TCPIP Stack\TCP.c
    __TCPFindROMArrayEx:3   0x00039b       data     extern E:\Users\Pal\DEVICES\Kern_dev_\SOFT2\MCHP\Kern_v6\Microchip\TCPIP Stack\TCP.c
    __TCPFindROMArrayEx:4   0x00039d       data     extern E:\Users\Pal\DEVICES\Kern_dev_\SOFT2\MCHP\Kern_v6\Microchip\TCPIP Stack\TCP.c
    __TCPFindROMArrayEx:5   0x00039f       data     extern E:\Users\Pal\DEVICES\Kern_dev_\SOFT2\MCHP\Kern_v6\Microchip\TCPIP Stack\TCP.c
             __TCPFlush:0   0x00035f       data     extern E:\Users\Pal\DEVICES\Kern_dev_\SOFT2\MCHP\Kern_v6\Microchip\TCPIP Stack\TCP.c
               __TCPGet:0   0x000378       data     extern E:\Users\Pal\DEVICES\Kern_dev_\SOFT2\MCHP\Kern_v6\Microchip\TCPIP Stack\TCP.c
               __TCPGet:1   0x000379       data     extern E:\Users\Pal\DEVICES\Kern_dev_\SOFT2\MCHP\Kern_v6\Microchip\TCPIP Stack\TCP.c
          __TCPGetArray:0   0x00037b       data     extern E:\Users\Pal\DEVICES\Kern_dev_\SOFT2\MCHP\Kern_v6\Microchip\TCPIP Stack\TCP.c
          __TCPGetArray:1   0x00037c       data     extern E:\Users\Pal\DEVICES\Kern_dev_\SOFT2\MCHP\Kern_v6\Microchip\TCPIP Stack\TCP.c
          __TCPGetArray:2   0x00037e       data     extern E:\Users\Pal\DEVICES\Kern_dev_\SOFT2\MCHP\Kern_v6\Microchip\TCPIP Stack\TCP.c
     __TCPGetRemoteInfo:0   0x000352       data     extern E:\Users\Pal\DEVICES\Kern_dev_\SOFT2\MCHP\Kern_v6\Microchip\TCPIP Stack\TCP.c
     __TCPGetRxFIFOFree:0   0x000380       data     extern E:\Users\Pal\DEVICES\Kern_dev_\SOFT2\MCHP\Kern_v6\Microchip\TCPIP Stack\TCP.c
     __TCPGetTxFIFOFull:0   0x000375       data     extern E:\Users\Pal\DEVICES\Kern_dev_\SOFT2\MCHP\Kern_v6\Microchip\TCPIP Stack\TCP.c
       __TCPIsConnected:0   0x00034f       data     extern E:\Users\Pal\DEVICES\Kern_dev_\SOFT2\MCHP\Kern_v6\Microchip\TCPIP Stack\TCP.c
        __TCPIsGetReady:0   0x000377       data     extern E:\Users\Pal\DEVICES\Kern_dev_\SOFT2\MCHP\Kern_v6\Microchip\TCPIP Stack\TCP.c
        __TCPIsPutReady:0   0x000360       data     extern E:\Users\Pal\DEVICES\Kern_dev_\SOFT2\MCHP\Kern_v6\Microchip\TCPIP Stack\TCP.c
              __TCPOpen:0   0x000346       data     extern E:\Users\Pal\DEVICES\Kern_dev_\SOFT2\MCHP\Kern_v6\Microchip\TCPIP Stack\TCP.c
              __TCPOpen:1   0x00034a       data     extern E:\Users\Pal\DEVICES\Kern_dev_\SOFT2\MCHP\Kern_v6\Microchip\TCPIP Stack\TCP.c
              __TCPOpen:2   0x00034b       data     extern E:\Users\Pal\DEVICES\Kern_dev_\SOFT2\MCHP\Kern_v6\Microchip\TCPIP Stack\TCP.c
              __TCPOpen:3   0x00034d       data     extern E:\Users\Pal\DEVICES\Kern_dev_\SOFT2\MCHP\Kern_v6\Microchip\TCPIP Stack\TCP.c
              __TCPPeek:0   0x000388       data     extern E:\Users\Pal\DEVICES\Kern_dev_\SOFT2\MCHP\Kern_v6\Microchip\TCPIP Stack\TCP.c
              __TCPPeek:1   0x000389       data     extern E:\Users\Pal\DEVICES\Kern_dev_\SOFT2\MCHP\Kern_v6\Microchip\TCPIP Stack\TCP.c
         __TCPPeekArray:0   0x000381       data     extern E:\Users\Pal\DEVICES\Kern_dev_\SOFT2\MCHP\Kern_v6\Microchip\TCPIP Stack\TCP.c
         __TCPPeekArray:1   0x000382       data     extern E:\Users\Pal\DEVICES\Kern_dev_\SOFT2\MCHP\Kern_v6\Microchip\TCPIP Stack\TCP.c
         __TCPPeekArray:2   0x000384       data     extern E:\Users\Pal\DEVICES\Kern_dev_\SOFT2\MCHP\Kern_v6\Microchip\TCPIP Stack\TCP.c
         __TCPPeekArray:3   0x000386       data     extern E:\Users\Pal\DEVICES\Kern_dev_\SOFT2\MCHP\Kern_v6\Microchip\TCPIP Stack\TCP.c
           __TCPProcess:0   0x0003a7       data     extern E:\Users\Pal\DEVICES\Kern_dev_\SOFT2\MCHP\Kern_v6\Microchip\TCPIP Stack\TCP.c
           __TCPProcess:1   0x0003a9       data     extern E:\Users\Pal\DEVICES\Kern_dev_\SOFT2\MCHP\Kern_v6\Microchip\TCPIP Stack\TCP.c
           __TCPProcess:2   0x0003ab       data     extern E:\Users\Pal\DEVICES\Kern_dev_\SOFT2\MCHP\Kern_v6\Microchip\TCPIP Stack\TCP.c
               __TCPPut:0   0x000361       data     extern E:\Users\Pal\DEVICES\Kern_dev_\SOFT2\MCHP\Kern_v6\Microchip\TCPIP Stack\TCP.c
               __TCPPut:1   0x000362       data     extern E:\Users\Pal\DEVICES\Kern_dev_\SOFT2\MCHP\Kern_v6\Microchip\TCPIP Stack\TCP.c
          __TCPPutArray:0   0x000363       data     extern E:\Users\Pal\DEVICES\Kern_dev_\SOFT2\MCHP\Kern_v6\Microchip\TCPIP Stack\TCP.c
          __TCPPutArray:1   0x000364       data     extern E:\Users\Pal\DEVICES\Kern_dev_\SOFT2\MCHP\Kern_v6\Microchip\TCPIP Stack\TCP.c
          __TCPPutArray:2   0x000366       data     extern E:\Users\Pal\DEVICES\Kern_dev_\SOFT2\MCHP\Kern_v6\Microchip\TCPIP Stack\TCP.c
       __TCPPutROMArray:0   0x000368       data     extern E:\Users\Pal\DEVICES\Kern_dev_\SOFT2\MCHP\Kern_v6\Microchip\TCPIP Stack\TCP.c
       __TCPPutROMArray:1   0x000369       data     extern E:\Users\Pal\DEVICES\Kern_dev_\SOFT2\MCHP\Kern_v6\Microchip\TCPIP Stack\TCP.c
       __TCPPutROMArray:2   0x00036c       data     extern E:\Users\Pal\DEVICES\Kern_dev_\SOFT2\MCHP\Kern_v6\Microchip\TCPIP Stack\TCP.c
      __TCPPutROMString:0   0x000371       data     extern E:\Users\Pal\DEVICES\Kern_dev_\SOFT2\MCHP\Kern_v6\Microchip\TCPIP Stack\TCP.c
      __TCPPutROMString:1   0x000372       data     extern E:\Users\Pal\DEVICES\Kern_dev_\SOFT2\MCHP\Kern_v6\Microchip\TCPIP Stack\TCP.c
         __TCPPutString:0   0x00036e       data     extern E:\Users\Pal\DEVICES\Kern_dev_\SOFT2\MCHP\Kern_v6\Microchip\TCPIP Stack\TCP.c
         __TCPPutString:1   0x00036f       data     extern E:\Users\Pal\DEVICES\Kern_dev_\SOFT2\MCHP\Kern_v6\Microchip\TCPIP Stack\TCP.c
           __TCPRAMCopy:0   0x0003bf       data     static E:\Users\Pal\DEVICES\Kern_dev_\SOFT2\MCHP\Kern_v6\Microchip\TCPIP Stack\TCP.c
           __TCPRAMCopy:1   0x0003c1       data     static E:\Users\Pal\DEVICES\Kern_dev_\SOFT2\MCHP\Kern_v6\Microchip\TCPIP Stack\TCP.c
           __TCPRAMCopy:2   0x0003c2       data     static E:\Users\Pal\DEVICES\Kern_dev_\SOFT2\MCHP\Kern_v6\Microchip\TCPIP Stack\TCP.c
           __TCPRAMCopy:3   0x0003c4       data     static E:\Users\Pal\DEVICES\Kern_dev_\SOFT2\MCHP\Kern_v6\Microchip\TCPIP Stack\TCP.c
           __TCPRAMCopy:4   0x0003c5       data     static E:\Users\Pal\DEVICES\Kern_dev_\SOFT2\MCHP\Kern_v6\Microchip\TCPIP Stack\TCP.c
        __TCPRAMCopyROM:0   0x0003c7       data     static E:\Users\Pal\DEVICES\Kern_dev_\SOFT2\MCHP\Kern_v6\Microchip\TCPIP Stack\TCP.c
        __TCPRAMCopyROM:1   0x0003c9       data     static E:\Users\Pal\DEVICES\Kern_dev_\SOFT2\MCHP\Kern_v6\Microchip\TCPIP Stack\TCP.c
        __TCPRAMCopyROM:2   0x0003ca       data     static E:\Users\Pal\DEVICES\Kern_dev_\SOFT2\MCHP\Kern_v6\Microchip\TCPIP Stack\TCP.c
        __TCPRAMCopyROM:3   0x0003cd       data     static E:\Users\Pal\DEVICES\Kern_dev_\SOFT2\MCHP\Kern_v6\Microchip\TCPIP Stack\TCP.c
          __TCPWasReset:0   0x00034e       data     extern E:\Users\Pal\DEVICES\Kern_dev_\SOFT2\MCHP\Kern_v6\Microchip\TCPIP Stack\TCP.c
                   __TEMP   0x000013       data     extern C:\MCC18\src\traditional\math\temparg.asm
                 __TEMPB0   0x000013       data     extern C:\MCC18\src\traditional\math\temparg.asm
                 __TEMPB1   0x000012       data     extern C:\MCC18\src\traditional\math\temparg.asm
                 __TEMPB2   0x000011       data     extern C:\MCC18\src\traditional\math\temparg.asm
                 __TEMPB3   0x000010       data     extern C:\MCC18\src\traditional\math\temparg.asm
        __TestSaveParam:0   0x0006ed       data     extern E:\Users\Pal\DEVICES\Kern_dev_\SOFT2\MCHP\Kern_v6\Kern\ParamsTable.c
        __TestSaveParam:1   0x0006ef       data     extern E:\Users\Pal\DEVICES\Kern_dev_\SOFT2\MCHP\Kern_v6\Kern\ParamsTable.c
        __TestSaveParam:2   0x0006f1       data     extern E:\Users\Pal\DEVICES\Kern_dev_\SOFT2\MCHP\Kern_v6\Kern\ParamsTable.c
__TickConvertToMilliseconds:0   0x0008f9       data     extern E:\Users\Pal\DEVICES\Kern_dev_\SOFT2\MCHP\Kern_v6\Microchip\TCPIP Stack\Tick.c
             __UDPClose:0   0x0002ba       data     extern E:\Users\Pal\DEVICES\Kern_dev_\SOFT2\MCHP\Kern_v6\Microchip\TCPIP Stack\UDP.c
               __UDPGet:0   0x0002d0       data     extern E:\Users\Pal\DEVICES\Kern_dev_\SOFT2\MCHP\Kern_v6\Microchip\TCPIP Stack\UDP.c
          __UDPGetArray:0   0x0002d2       data     extern E:\Users\Pal\DEVICES\Kern_dev_\SOFT2\MCHP\Kern_v6\Microchip\TCPIP Stack\UDP.c
          __UDPGetArray:1   0x0002d4       data     extern E:\Users\Pal\DEVICES\Kern_dev_\SOFT2\MCHP\Kern_v6\Microchip\TCPIP Stack\UDP.c
        __UDPIsGetReady:0   0x0002cf       data     extern E:\Users\Pal\DEVICES\Kern_dev_\SOFT2\MCHP\Kern_v6\Microchip\TCPIP Stack\UDP.c
        __UDPIsPutReady:0   0x0002bf       data     extern E:\Users\Pal\DEVICES\Kern_dev_\SOFT2\MCHP\Kern_v6\Microchip\TCPIP Stack\UDP.c
              __UDPOpen:0   0x0002b2       data     extern E:\Users\Pal\DEVICES\Kern_dev_\SOFT2\MCHP\Kern_v6\Microchip\TCPIP Stack\UDP.c
              __UDPOpen:1   0x0002b4       data     extern E:\Users\Pal\DEVICES\Kern_dev_\SOFT2\MCHP\Kern_v6\Microchip\TCPIP Stack\UDP.c
              __UDPOpen:2   0x0002b6       data     extern E:\Users\Pal\DEVICES\Kern_dev_\SOFT2\MCHP\Kern_v6\Microchip\TCPIP Stack\UDP.c
           __UDPProcess:0   0x0002d6       data     extern E:\Users\Pal\DEVICES\Kern_dev_\SOFT2\MCHP\Kern_v6\Microchip\TCPIP Stack\UDP.c
           __UDPProcess:1   0x0002d8       data     extern E:\Users\Pal\DEVICES\Kern_dev_\SOFT2\MCHP\Kern_v6\Microchip\TCPIP Stack\UDP.c
           __UDPProcess:2   0x0002da       data     extern E:\Users\Pal\DEVICES\Kern_dev_\SOFT2\MCHP\Kern_v6\Microchip\TCPIP Stack\UDP.c
               __UDPPut:0   0x0002c0       data     extern E:\Users\Pal\DEVICES\Kern_dev_\SOFT2\MCHP\Kern_v6\Microchip\TCPIP Stack\UDP.c
          __UDPPutArray:0   0x0002c1       data     extern E:\Users\Pal\DEVICES\Kern_dev_\SOFT2\MCHP\Kern_v6\Microchip\TCPIP Stack\UDP.c
          __UDPPutArray:1   0x0002c3       data     extern E:\Users\Pal\DEVICES\Kern_dev_\SOFT2\MCHP\Kern_v6\Microchip\TCPIP Stack\UDP.c
       __UDPPutROMArray:0   0x0002c5       data     extern E:\Users\Pal\DEVICES\Kern_dev_\SOFT2\MCHP\Kern_v6\Microchip\TCPIP Stack\UDP.c
       __UDPPutROMArray:1   0x0002c8       data     extern E:\Users\Pal\DEVICES\Kern_dev_\SOFT2\MCHP\Kern_v6\Microchip\TCPIP Stack\UDP.c
      __UDPPutROMString:0   0x0002cc       data     extern E:\Users\Pal\DEVICES\Kern_dev_\SOFT2\MCHP\Kern_v6\Microchip\TCPIP Stack\UDP.c
         __UDPPutString:0   0x0002ca       data     extern E:\Users\Pal\DEVICES\Kern_dev_\SOFT2\MCHP\Kern_v6\Microchip\TCPIP Stack\UDP.c
       __UDPSetRxBuffer:0   0x0002bd       data     extern E:\Users\Pal\DEVICES\Kern_dev_\SOFT2\MCHP\Kern_v6\Microchip\TCPIP Stack\UDP.c
       __UDPSetTxBuffer:0   0x0002bb       data     extern E:\Users\Pal\DEVICES\Kern_dev_\SOFT2\MCHP\Kern_v6\Microchip\TCPIP Stack\UDP.c
          __WritePHYReg:0   0x0004f8       data     extern E:\Users\Pal\DEVICES\Kern_dev_\SOFT2\MCHP\Kern_v6\Microchip\TCPIP Stack\ETH97J60.c
          __WritePHYReg:1   0x0004f9       data     extern E:\Users\Pal\DEVICES\Kern_dev_\SOFT2\MCHP\Kern_v6\Microchip\TCPIP Stack\ETH97J60.c
            ___DHCPSend:0   0x0003f2       data     static E:\Users\Pal\DEVICES\Kern_dev_\SOFT2\MCHP\Kern_v6\Microchip\TCPIP Stack\DHCP.c
            ___DHCPSend:1   0x0003f3       data     static E:\Users\Pal\DEVICES\Kern_dev_\SOFT2\MCHP\Kern_v6\Microchip\TCPIP Stack\DHCP.c
       ___LoadFATRecord:0   0x0000e4       data     static E:\Users\Pal\DEVICES\Kern_dev_\SOFT2\MCHP\Kern_v6\Microchip\TCPIP Stack\MPFS2.c
      ___SNMPDuplexInit:0   0x000585       data     extern E:\Users\Pal\DEVICES\Kern_dev_\SOFT2\MCHP\Kern_v6\Microchip\TCPIP Stack\SNMP.c
             ___SNMPPut:0   0x000586       data     extern E:\Users\Pal\DEVICES\Kern_dev_\SOFT2\MCHP\Kern_v6\Microchip\TCPIP Stack\SNMP.c
         __btohexa_high:0   0x0007de       data     extern E:\Users\Pal\DEVICES\Kern_dev_\SOFT2\MCHP\Kern_v6\Microchip\TCPIP Stack\Helpers.c
          __btohexa_low:0   0x0007df       data     extern E:\Users\Pal\DEVICES\Kern_dev_\SOFT2\MCHP\Kern_v6\Microchip\TCPIP Stack\Helpers.c
  __getSnmpV2GenTrapOid:0   0x00053c       data     extern E:\Users\Pal\DEVICES\Kern_dev_\SOFT2\MCHP\Kern_v6\Microchip\TCPIP Stack\SNMP.c
  __getSnmpV2GenTrapOid:1   0x00053d       data     extern E:\Users\Pal\DEVICES\Kern_dev_\SOFT2\MCHP\Kern_v6\Microchip\TCPIP Stack\SNMP.c
              __hexatob:0   0x0007dc       data     extern E:\Users\Pal\DEVICES\Kern_dev_\SOFT2\MCHP\Kern_v6\Microchip\TCPIP Stack\Helpers.c
      __leftRotateDWORD:0   0x0007f3       data     extern E:\Users\Pal\DEVICES\Kern_dev_\SOFT2\MCHP\Kern_v6\Microchip\TCPIP Stack\Helpers.c
      __leftRotateDWORD:1   0x0007f7       data     extern E:\Users\Pal\DEVICES\Kern_dev_\SOFT2\MCHP\Kern_v6\Microchip\TCPIP Stack\Helpers.c
             __pputchar:0   0x0004c0       data     extern E:\Users\Pal\DEVICES\Kern_dev_\SOFT2\MCHP\Kern_v6\Kern\PAL_pUART.c
  __puart_control_check:0   0x0004c6       data     extern E:\Users\Pal\DEVICES\Kern_dev_\SOFT2\MCHP\Kern_v6\Kern\PAL_pUART.c
   __puart_index_offset:0   0x0004c2       data     extern E:\Users\Pal\DEVICES\Kern_dev_\SOFT2\MCHP\Kern_v6\Kern\PAL_pUART.c
   __puart_index_offset:1   0x0004c4       data     extern E:\Users\Pal\DEVICES\Kern_dev_\SOFT2\MCHP\Kern_v6\Kern\PAL_pUART.c
            __puart_out:0   0x0004b6       data     extern E:\Users\Pal\DEVICES\Kern_dev_\SOFT2\MCHP\Kern_v6\Kern\PAL_pUART.c
            __puart_out:1   0x0004b7       data     extern E:\Users\Pal\DEVICES\Kern_dev_\SOFT2\MCHP\Kern_v6\Kern\PAL_pUART.c
            __puart_out:2   0x0004b8       data     extern E:\Users\Pal\DEVICES\Kern_dev_\SOFT2\MCHP\Kern_v6\Kern\PAL_pUART.c
            __puart_out:3   0x0004b9       data     extern E:\Users\Pal\DEVICES\Kern_dev_\SOFT2\MCHP\Kern_v6\Kern\PAL_pUART.c
            __puart_out:4   0x0004ba       data     extern E:\Users\Pal\DEVICES\Kern_dev_\SOFT2\MCHP\Kern_v6\Kern\PAL_pUART.c
            __puart_out:5   0x0004bb       data     extern E:\Users\Pal\DEVICES\Kern_dev_\SOFT2\MCHP\Kern_v6\Kern\PAL_pUART.c
            __puart_out:6   0x0004bc       data     extern E:\Users\Pal\DEVICES\Kern_dev_\SOFT2\MCHP\Kern_v6\Kern\PAL_pUART.c
       __stricmppgm2ram:0   0x0007e0       data     extern E:\Users\Pal\DEVICES\Kern_dev_\SOFT2\MCHP\Kern_v6\Microchip\TCPIP Stack\Helpers.c
       __stricmppgm2ram:1   0x0007e2       data     extern E:\Users\Pal\DEVICES\Kern_dev_\SOFT2\MCHP\Kern_v6\Microchip\TCPIP Stack\Helpers.c
              __strnchr:0   0x0007fa       data     extern E:\Users\Pal\DEVICES\Kern_dev_\SOFT2\MCHP\Kern_v6\Microchip\TCPIP Stack\Helpers.c
              __strnchr:1   0x0007fc       data     extern E:\Users\Pal\DEVICES\Kern_dev_\SOFT2\MCHP\Kern_v6\Microchip\TCPIP Stack\Helpers.c
              __strnchr:2   0x0007fe       data     extern E:\Users\Pal\DEVICES\Kern_dev_\SOFT2\MCHP\Kern_v6\Microchip\TCPIP Stack\Helpers.c
                __swapl:0   0x0007e7       data     extern E:\Users\Pal\DEVICES\Kern_dev_\SOFT2\MCHP\Kern_v6\Microchip\TCPIP Stack\Helpers.c
                __swaps:0   0x0007e5       data     extern E:\Users\Pal\DEVICES\Kern_dev_\SOFT2\MCHP\Kern_v6\Microchip\TCPIP Stack\Helpers.c
                  __tmp_0   0x000014       data     static E:\Users\Pal\DEVICES\Kern_dev_\SOFT2\MCHP\Kern_v6\Microchip\TCPIP Stack\MPFS2.c
                  __tmp_0   0x000014       data     static E:\Users\Pal\DEVICES\Kern_dev_\SOFT2\MCHP\Kern_v6\Kern\ParamsTable.c
                  __tmp_0   0x000014       data     static E:\Users\Pal\DEVICES\Kern_dev_\SOFT2\MCHP\Kern_v6\Microchip\TCPIP Stack\NBNS.c
                  __tmp_0   0x000014       data     static E:\Users\Pal\DEVICES\Kern_dev_\SOFT2\MCHP\Kern_v6\Microchip\TCPIP Stack\Helpers.c
                  __tmp_0   0x000014       data     static E:\Users\Pal\DEVICES\Kern_dev_\SOFT2\MCHP\Kern_v6\Microchip\TCPIP Stack\Reboot.c
                  __tmp_0   0x000014       data     static E:\Users\Pal\DEVICES\Kern_dev_\SOFT2\MCHP\Kern_v6\Microchip\TCPIP Stack\ETH97J60.c
                  __tmp_0   0x000014       data     static E:\Users\Pal\DEVICES\Kern_dev_\SOFT2\MCHP\Kern_v6\Microchip\TCPIP Stack\SNMP.c
                  __tmp_0   0x000014       data     static E:\Users\Pal\DEVICES\Kern_dev_\SOFT2\MCHP\Kern_v6\Kern\PAL_pUART.c
                  __tmp_0   0x000014       data     static E:\Users\Pal\DEVICES\Kern_dev_\SOFT2\MCHP\Kern_v6\Kern\Main.c
                  __tmp_0   0x000014       data     static E:\Users\Pal\DEVICES\Kern_dev_\SOFT2\MCHP\Kern_v6\Microchip\TCPIP Stack\UDP.c
                  __tmp_0   0x000014       data     static E:\Users\Pal\DEVICES\Kern_dev_\SOFT2\MCHP\Kern_v6\Kern\UdpSet.c
                  __tmp_0   0x000014       data     static E:\Users\Pal\DEVICES\Kern_dev_\SOFT2\MCHP\Kern_v6\Microchip\TCPIP Stack\IP.c
                  __tmp_0   0x000014       data     static E:\Users\Pal\DEVICES\Kern_dev_\SOFT2\MCHP\Kern_v6\Kern\CustomHTTPApp.c
                  __tmp_0   0x000014       data     static E:\Users\Pal\DEVICES\Kern_dev_\SOFT2\MCHP\Kern_v6\Microchip\TCPIP Stack\ICMP.c
                  __tmp_0   0x000014       data     static E:\Users\Pal\DEVICES\Kern_dev_\SOFT2\MCHP\Kern_v6\Microchip\TCPIP Stack\HTTP2.c
                  __tmp_0   0x000014       data     static E:\Users\Pal\DEVICES\Kern_dev_\SOFT2\MCHP\Kern_v6\Kern\DeviceData.c
                  __tmp_0   0x000014       data     static E:\Users\Pal\DEVICES\Kern_dev_\SOFT2\MCHP\Kern_v6\Microchip\TCPIP Stack\DHCP.c
                  __tmp_0   0x000014       data     static E:\Users\Pal\DEVICES\Kern_dev_\SOFT2\MCHP\Kern_v6\Microchip\TCPIP Stack\TCP.c
                  __tmp_0   0x000014       data     static E:\Users\Pal\DEVICES\Kern_dev_\SOFT2\MCHP\Kern_v6\Kern\CustomSNMPApp.c
                  __tmp_0   0x000014       data     static E:\Users\Pal\DEVICES\Kern_dev_\SOFT2\MCHP\Kern_v6\Microchip\TCPIP Stack\ARP.c
                  __tmp_0   0x000014       data     static E:\Users\Pal\DEVICES\Kern_dev_\SOFT2\MCHP\Kern_v6\Kern\I2cEEPROM.c
                  __tmp_0   0x000014       data     static E:\Users\Pal\DEVICES\Kern_dev_\SOFT2\MCHP\Kern_v6\Microchip\TCPIP Stack\StackTsk.c
         __uart_out_adr:0   0x0004bd       data     extern E:\Users\Pal\DEVICES\Kern_dev_\SOFT2\MCHP\Kern_v6\Kern\PAL_pUART.c
         __uart_out_adr:1   0x0004bf       data     extern E:\Users\Pal\DEVICES\Kern_dev_\SOFT2\MCHP\Kern_v6\Kern\PAL_pUART.c
                __uitoa:0   0x0007d8       data     extern E:\Users\Pal\DEVICES\Kern_dev_\SOFT2\MCHP\Kern_v6\Microchip\TCPIP Stack\Helpers.c
                __uitoa:1   0x0007da       data     extern E:\Users\Pal\DEVICES\Kern_dev_\SOFT2\MCHP\Kern_v6\Microchip\TCPIP Stack\Helpers.c
                 _message   0x000b68       data     static E:\Users\Pal\DEVICES\Kern_dev_\SOFT2\MCHP\Kern_v6\Kern\CustomSNMPApp.c
                    _val1   0x000b60       data     static E:\Users\Pal\DEVICES\Kern_dev_\SOFT2\MCHP\Kern_v6\Kern\CustomSNMPApp.c
                    _val2   0x000b64       data     static E:\Users\Pal\DEVICES\Kern_dev_\SOFT2\MCHP\Kern_v6\Kern\CustomSNMPApp.c
                        a   0x0007e0       data     static E:\Users\Pal\DEVICES\Kern_dev_\SOFT2\MCHP\Kern_v6\Microchip\TCPIP Stack\Helpers.c
                        a   0x000c01       data     static E:\Users\Pal\DEVICES\Kern_dev_\SOFT2\MCHP\Kern_v6\Microchip\TCPIP Stack\SNMP.c
          activeUDPSocket   0x0002a8       data     extern E:\Users\Pal\DEVICES\Kern_dev_\SOFT2\MCHP\Kern_v6\Microchip\TCPIP Stack\UDP.c
       actualDataTypeInfo   0x000cd7       data     static E:\Users\Pal\DEVICES\Kern_dev_\SOFT2\MCHP\Kern_v6\Microchip\TCPIP Stack\SNMP.c
                     addr   0x000ba5       data     static E:\Users\Pal\DEVICES\Kern_dev_\SOFT2\MCHP\Kern_v6\Microchip\TCPIP Stack\MPFS2.c
                  address   0x0004d9       data     static E:\Users\Pal\DEVICES\Kern_dev_\SOFT2\MCHP\Kern_v6\Microchip\TCPIP Stack\ETH97J60.c
                  address   0x0004db       data     static E:\Users\Pal\DEVICES\Kern_dev_\SOFT2\MCHP\Kern_v6\Microchip\TCPIP Stack\ETH97J60.c
               agentIDLen   0x000bb8       data     static E:\Users\Pal\DEVICES\Kern_dev_\SOFT2\MCHP\Kern_v6\Microchip\TCPIP Stack\SNMP.c
               agentIDVar   0x000532       data     static E:\Users\Pal\DEVICES\Kern_dev_\SOFT2\MCHP\Kern_v6\Microchip\TCPIP Stack\SNMP.c
          appendZeroToOID   0x000509       data     extern E:\Users\Pal\DEVICES\Kern_dev_\SOFT2\MCHP\Kern_v6\Microchip\TCPIP Stack\SNMP.c
                 asciiStr   0x000bed       data     static E:\Users\Pal\DEVICES\Kern_dev_\SOFT2\MCHP\Kern_v6\Microchip\TCPIP Stack\SNMP.c
                        b   0x0007de       data     static E:\Users\Pal\DEVICES\Kern_dev_\SOFT2\MCHP\Kern_v6\Microchip\TCPIP Stack\Helpers.c
                        b   0x000c51       data     static E:\Users\Pal\DEVICES\Kern_dev_\SOFT2\MCHP\Kern_v6\Microchip\TCPIP Stack\Helpers.c
                        b   0x0007e2       data     static E:\Users\Pal\DEVICES\Kern_dev_\SOFT2\MCHP\Kern_v6\Microchip\TCPIP Stack\Helpers.c
                        b   0x0007df       data     static E:\Users\Pal\DEVICES\Kern_dev_\SOFT2\MCHP\Kern_v6\Microchip\TCPIP Stack\Helpers.c
                  b1000Hz   0x000668       data     extern E:\Users\Pal\DEVICES\Kern_dev_\SOFT2\MCHP\Kern_v6\Kern\Main.c
                   b100Hz   0x000669       data     extern E:\Users\Pal\DEVICES\Kern_dev_\SOFT2\MCHP\Kern_v6\Kern\Main.c
                    b10Hz   0x00066a       data     extern E:\Users\Pal\DEVICES\Kern_dev_\SOFT2\MCHP\Kern_v6\Kern\Main.c
                     b1Hz   0x00066d       data     extern E:\Users\Pal\DEVICES\Kern_dev_\SOFT2\MCHP\Kern_v6\Kern\Main.c
                     b2Hz   0x00066c       data     extern E:\Users\Pal\DEVICES\Kern_dev_\SOFT2\MCHP\Kern_v6\Kern\Main.c
                     b5Hz   0x00066b       data     extern E:\Users\Pal\DEVICES\Kern_dev_\SOFT2\MCHP\Kern_v6\Kern\Main.c
                   bAsOID   0x0005a5       data     static E:\Users\Pal\DEVICES\Kern_dev_\SOFT2\MCHP\Kern_v6\Microchip\TCPIP Stack\SNMP.c
             bCloseSocket   0x000bc3       data     static E:\Users\Pal\DEVICES\Kern_dev_\SOFT2\MCHP\Kern_v6\Microchip\TCPIP Stack\TCP.c
        bCurrentLinkState   0x000c1a       data     static E:\Users\Pal\DEVICES\Kern_dev_\SOFT2\MCHP\Kern_v6\Microchip\TCPIP Stack\StackTsk.c
           bLastLinkState   0x0001ff       data     static E:\Users\Pal\DEVICES\Kern_dev_\SOFT2\MCHP\Kern_v6\Microchip\TCPIP Stack\StackTsk.c
              bPUART_RXIN   0x000471       data     extern E:\Users\Pal\DEVICES\Kern_dev_\SOFT2\MCHP\Kern_v6\Kern\PAL_pUART.c
             bPUART_STROB   0x0004b5       data     extern E:\Users\Pal\DEVICES\Kern_dev_\SOFT2\MCHP\Kern_v6\Kern\PAL_pUART.c
         bPUART_STROB_OLD   0x0004b4       data     extern E:\Users\Pal\DEVICES\Kern_dev_\SOFT2\MCHP\Kern_v6\Kern\PAL_pUART.c
                bRenewing   0x0003f3       data     static E:\Users\Pal\DEVICES\Kern_dev_\SOFT2\MCHP\Kern_v6\Microchip\TCPIP Stack\DHCP.c
              bRetransmit   0x000bc2       data     static E:\Users\Pal\DEVICES\Kern_dev_\SOFT2\MCHP\Kern_v6\Microchip\TCPIP Stack\TCP.c
       bSegmentAcceptable   0x000be3       data     static E:\Users\Pal\DEVICES\Kern_dev_\SOFT2\MCHP\Kern_v6\Microchip\TCPIP Stack\TCP.c
             bTextCompare   0x00039f       data     static E:\Users\Pal\DEVICES\Kern_dev_\SOFT2\MCHP\Kern_v6\Microchip\TCPIP Stack\TCP.c
             bTextCompare   0x0003a6       data     static E:\Users\Pal\DEVICES\Kern_dev_\SOFT2\MCHP\Kern_v6\Microchip\TCPIP Stack\TCP.c
             bTextCompare   0x000394       data     static E:\Users\Pal\DEVICES\Kern_dev_\SOFT2\MCHP\Kern_v6\Microchip\TCPIP Stack\TCP.c
                     bits   0x0007f7       data     static E:\Users\Pal\DEVICES\Kern_dev_\SOFT2\MCHP\Kern_v6\Microchip\TCPIP Stack\Helpers.c
                      buf   0x000bd8       data     static E:\Users\Pal\DEVICES\Kern_dev_\SOFT2\MCHP\Kern_v6\Microchip\TCPIP Stack\HTTP2.c
                   buffer   0x000bb5       data     static E:\Users\Pal\DEVICES\Kern_dev_\SOFT2\MCHP\Kern_v6\Microchip\TCPIP Stack\TCP.c
                   buffer   0x0007eb       data     static E:\Users\Pal\DEVICES\Kern_dev_\SOFT2\MCHP\Kern_v6\Microchip\TCPIP Stack\Helpers.c
                   buffer   0x000c63       data     static E:\Users\Pal\DEVICES\Kern_dev_\SOFT2\MCHP\Kern_v6\Microchip\TCPIP Stack\HTTP2.c
                   buffer   0x00037c       data     static E:\Users\Pal\DEVICES\Kern_dev_\SOFT2\MCHP\Kern_v6\Microchip\TCPIP Stack\TCP.c
                   buffer   0x000bb6       data     static E:\Users\Pal\DEVICES\Kern_dev_\SOFT2\MCHP\Kern_v6\Microchip\TCPIP Stack\TCP.c
                     byte   0x000362       data     static E:\Users\Pal\DEVICES\Kern_dev_\SOFT2\MCHP\Kern_v6\Microchip\TCPIP Stack\TCP.c
                     byte   0x000379       data     static E:\Users\Pal\DEVICES\Kern_dev_\SOFT2\MCHP\Kern_v6\Microchip\TCPIP Stack\TCP.c
           bytesAdded2Pdu   0x000bff       data     static E:\Users\Pal\DEVICES\Kern_dev_\SOFT2\MCHP\Kern_v6\Microchip\TCPIP Stack\SNMP.c
                        c   0x000bbc       data     static E:\Users\Pal\DEVICES\Kern_dev_\SOFT2\MCHP\Kern_v6\Microchip\TCPIP Stack\MPFS2.c
                        c   0x000bec       data     static E:\Users\Pal\DEVICES\Kern_dev_\SOFT2\MCHP\Kern_v6\Microchip\TCPIP Stack\SNMP.c
                        c   0x000beb       data     static E:\Users\Pal\DEVICES\Kern_dev_\SOFT2\MCHP\Kern_v6\Microchip\TCPIP Stack\SNMP.c
                        c   0x000bab       data     static E:\Users\Pal\DEVICES\Kern_dev_\SOFT2\MCHP\Kern_v6\Microchip\TCPIP Stack\HTTP2.c
                        c   0x0004c0       data     static E:\Users\Pal\DEVICES\Kern_dev_\SOFT2\MCHP\Kern_v6\Kern\PAL_pUART.c
                        c   0x000ba9       data     static E:\Users\Pal\DEVICES\Kern_dev_\SOFT2\MCHP\Kern_v6\Microchip\TCPIP Stack\HTTP2.c
                        c   0x000c5e       data     static E:\Users\Pal\DEVICES\Kern_dev_\SOFT2\MCHP\Kern_v6\Microchip\TCPIP Stack\HTTP2.c
                        c   0x000c53       data     static E:\Users\Pal\DEVICES\Kern_dev_\SOFT2\MCHP\Kern_v6\Microchip\TCPIP Stack\MPFS2.c
                        c   0x0000d4       data     static E:\Users\Pal\DEVICES\Kern_dev_\SOFT2\MCHP\Kern_v6\Microchip\TCPIP Stack\MPFS2.c
                        c   0x000c45       data     static E:\Users\Pal\DEVICES\Kern_dev_\SOFT2\MCHP\Kern_v6\Microchip\TCPIP Stack\SNMP.c
                        c   0x000ba5       data     static E:\Users\Pal\DEVICES\Kern_dev_\SOFT2\MCHP\Kern_v6\Kern\I2cEEPROM.c
                        c   0x0007fe       data     static E:\Users\Pal\DEVICES\Kern_dev_\SOFT2\MCHP\Kern_v6\Microchip\TCPIP Stack\Helpers.c
                       c2   0x000ba5       data     static E:\Users\Pal\DEVICES\Kern_dev_\SOFT2\MCHP\Kern_v6\Microchip\TCPIP Stack\Helpers.c
                       cA   0x000ba5       data     static E:\Users\Pal\DEVICES\Kern_dev_\SOFT2\MCHP\Kern_v6\Microchip\TCPIP Stack\Helpers.c
                     cArg   0x0008ca       data     static E:\Users\Pal\DEVICES\Kern_dev_\SOFT2\MCHP\Kern_v6\Microchip\TCPIP Stack\HTTP2.c
                     cArg   0x0008ce       data     static E:\Users\Pal\DEVICES\Kern_dev_\SOFT2\MCHP\Kern_v6\Microchip\TCPIP Stack\HTTP2.c
                       cB   0x000ba6       data     static E:\Users\Pal\DEVICES\Kern_dev_\SOFT2\MCHP\Kern_v6\Microchip\TCPIP Stack\Helpers.c
                    cData   0x0002c1       data     static E:\Users\Pal\DEVICES\Kern_dev_\SOFT2\MCHP\Kern_v6\Microchip\TCPIP Stack\UDP.c
                    cData   0x0002c5       data     static E:\Users\Pal\DEVICES\Kern_dev_\SOFT2\MCHP\Kern_v6\Microchip\TCPIP Stack\UDP.c
                    cData   0x0002d2       data     static E:\Users\Pal\DEVICES\Kern_dev_\SOFT2\MCHP\Kern_v6\Microchip\TCPIP Stack\UDP.c
                    cData   0x0000d7       data     static E:\Users\Pal\DEVICES\Kern_dev_\SOFT2\MCHP\Kern_v6\Microchip\TCPIP Stack\MPFS2.c
                    cData   0x0008da       data     static E:\Users\Pal\DEVICES\Kern_dev_\SOFT2\MCHP\Kern_v6\Microchip\TCPIP Stack\HTTP2.c
                    cData   0x0008d5       data     static E:\Users\Pal\DEVICES\Kern_dev_\SOFT2\MCHP\Kern_v6\Microchip\TCPIP Stack\HTTP2.c
                    cData   0x0008c6       data     static E:\Users\Pal\DEVICES\Kern_dev_\SOFT2\MCHP\Kern_v6\Microchip\TCPIP Stack\HTTP2.c
                    cData   0x0008d1       data     static E:\Users\Pal\DEVICES\Kern_dev_\SOFT2\MCHP\Kern_v6\Microchip\TCPIP Stack\HTTP2.c
                    cData   0x0008cc       data     static E:\Users\Pal\DEVICES\Kern_dev_\SOFT2\MCHP\Kern_v6\Microchip\TCPIP Stack\HTTP2.c
                    cData   0x0008c8       data     static E:\Users\Pal\DEVICES\Kern_dev_\SOFT2\MCHP\Kern_v6\Microchip\TCPIP Stack\HTTP2.c
                   cDelim   0x0008d9       data     static E:\Users\Pal\DEVICES\Kern_dev_\SOFT2\MCHP\Kern_v6\Microchip\TCPIP Stack\HTTP2.c
                    cFile   0x0000cd       data     static E:\Users\Pal\DEVICES\Kern_dev_\SOFT2\MCHP\Kern_v6\Microchip\TCPIP Stack\MPFS2.c
                    cFile   0x0000cb       data     static E:\Users\Pal\DEVICES\Kern_dev_\SOFT2\MCHP\Kern_v6\Microchip\TCPIP Stack\MPFS2.c
                    cFile   0x0008de       data     static E:\Users\Pal\DEVICES\Kern_dev_\SOFT2\MCHP\Kern_v6\Microchip\TCPIP Stack\HTTP2.c
                    cFind   0x0003a1       data     static E:\Users\Pal\DEVICES\Kern_dev_\SOFT2\MCHP\Kern_v6\Microchip\TCPIP Stack\TCP.c
               cFindArray   0x000396       data     static E:\Users\Pal\DEVICES\Kern_dev_\SOFT2\MCHP\Kern_v6\Microchip\TCPIP Stack\TCP.c
               cFindArray   0x00038c       data     static E:\Users\Pal\DEVICES\Kern_dev_\SOFT2\MCHP\Kern_v6\Microchip\TCPIP Stack\TCP.c
          cFindArrayStart   0x000baf       data     static E:\Users\Pal\DEVICES\Kern_dev_\SOFT2\MCHP\Kern_v6\Microchip\TCPIP Stack\TCP.c
          cFindArrayStart   0x000baf       data     static E:\Users\Pal\DEVICES\Kern_dev_\SOFT2\MCHP\Kern_v6\Microchip\TCPIP Stack\TCP.c
               cFrameType   0x000c18       data     static E:\Users\Pal\DEVICES\Kern_dev_\SOFT2\MCHP\Kern_v6\Microchip\TCPIP Stack\StackTsk.c
             cIPFrameType   0x000c19       data     static E:\Users\Pal\DEVICES\Kern_dev_\SOFT2\MCHP\Kern_v6\Microchip\TCPIP Stack\StackTsk.c
                    cName   0x0000ee       data     static E:\Users\Pal\DEVICES\Kern_dev_\SOFT2\MCHP\Kern_v6\Microchip\TCPIP Stack\MPFS2.c
               callbackID   0x0008c0       data     static E:\Users\Pal\DEVICES\Kern_dev_\SOFT2\MCHP\Kern_v6\Kern\HTTPPrint.h
                  charLen   0x000baa       data     static E:\Users\Pal\DEVICES\Kern_dev_\SOFT2\MCHP\Kern_v6\Microchip\TCPIP Stack\Helpers.c
                  charLen   0x000baa       data     static E:\Users\Pal\DEVICES\Kern_dev_\SOFT2\MCHP\Kern_v6\Microchip\TCPIP Stack\Helpers.c
                checksum1   0x000bc5       data     static E:\Users\Pal\DEVICES\Kern_dev_\SOFT2\MCHP\Kern_v6\Microchip\TCPIP Stack\TCP.c
                checksum2   0x000bc7       data     static E:\Users\Pal\DEVICES\Kern_dev_\SOFT2\MCHP\Kern_v6\Microchip\TCPIP Stack\TCP.c
                checksums   0x000bba       data     static E:\Users\Pal\DEVICES\Kern_dev_\SOFT2\MCHP\Kern_v6\Microchip\TCPIP Stack\UDP.c
                      cnt   0x000c01       data     static E:\Users\Pal\DEVICES\Kern_dev_\SOFT2\MCHP\Kern_v6\Microchip\TCPIP Stack\SNMP.c
              cnt_cnt_cnt   0x0001e8       data     extern E:\Users\Pal\DEVICES\Kern_dev_\SOFT2\MCHP\Kern_v6\Kern\Main.c
                     cntr   0x000c03       data     static E:\Users\Pal\DEVICES\Kern_dev_\SOFT2\MCHP\Kern_v6\Microchip\TCPIP Stack\SNMP.c
    comapreOidWithSibling   0x000c09       data     static E:\Users\Pal\DEVICES\Kern_dev_\SOFT2\MCHP\Kern_v6\Microchip\TCPIP Stack\SNMP.c
               commRetVal   0x000bba       data     static E:\Users\Pal\DEVICES\Kern_dev_\SOFT2\MCHP\Kern_v6\Microchip\TCPIP Stack\SNMP.c
                community   0x000b87       data     static E:\Users\Pal\DEVICES\Kern_dev_\SOFT2\MCHP\Kern_v6\Kern\CustomSNMPApp.c
                community   0x000575       data     static E:\Users\Pal\DEVICES\Kern_dev_\SOFT2\MCHP\Kern_v6\Microchip\TCPIP Stack\SNMP.c
                community   0x000cb3       data     static E:\Users\Pal\DEVICES\Kern_dev_\SOFT2\MCHP\Kern_v6\Microchip\TCPIP Stack\SNMP.c
                community   0x00052f       data     static E:\Users\Pal\DEVICES\Kern_dev_\SOFT2\MCHP\Kern_v6\Microchip\TCPIP Stack\SNMP.c
                community   0x000547       data     static E:\Users\Pal\DEVICES\Kern_dev_\SOFT2\MCHP\Kern_v6\Microchip\TCPIP Stack\SNMP.c
                community   0x00054f       data     static E:\Users\Pal\DEVICES\Kern_dev_\SOFT2\MCHP\Kern_v6\Microchip\TCPIP Stack\SNMP.c
             communityLen   0x000cc3       data     static E:\Users\Pal\DEVICES\Kern_dev_\SOFT2\MCHP\Kern_v6\Microchip\TCPIP Stack\SNMP.c
             communityLen   0x000531       data     static E:\Users\Pal\DEVICES\Kern_dev_\SOFT2\MCHP\Kern_v6\Microchip\TCPIP Stack\SNMP.c
             communityLen   0x000bb9       data     static E:\Users\Pal\DEVICES\Kern_dev_\SOFT2\MCHP\Kern_v6\Microchip\TCPIP Stack\SNMP.c
                     conn   0x000c78       data     static E:\Users\Pal\DEVICES\Kern_dev_\SOFT2\MCHP\Kern_v6\Microchip\TCPIP Stack\HTTP2.c
             control_temp   0x00046f       data     extern E:\Users\Pal\DEVICES\Kern_dev_\SOFT2\MCHP\Kern_v6\Kern\PAL_pUART.c
              copiedBytes   0x000cd5       data     static E:\Users\Pal\DEVICES\Kern_dev_\SOFT2\MCHP\Kern_v6\Microchip\TCPIP Stack\SNMP.c
                    count   0x000bba       data     static E:\Users\Pal\DEVICES\Kern_dev_\SOFT2\MCHP\Kern_v6\Kern\PAL_pUART.c
                    count   0x0007ed       data     static E:\Users\Pal\DEVICES\Kern_dev_\SOFT2\MCHP\Kern_v6\Microchip\TCPIP Stack\Helpers.c
                    count   0x0007fc       data     static E:\Users\Pal\DEVICES\Kern_dev_\SOFT2\MCHP\Kern_v6\Microchip\TCPIP Stack\Helpers.c
                      crc   0x000ba9       data     static E:\Users\Pal\DEVICES\Kern_dev_\SOFT2\MCHP\Kern_v6\Kern\ParamsTable.c
                      crc   0x000ce5       data     static E:\Users\Pal\DEVICES\Kern_dev_\SOFT2\MCHP\Kern_v6\Kern\ParamsTable.c
                  crcCalc   0x000ba7       data     static E:\Users\Pal\DEVICES\Kern_dev_\SOFT2\MCHP\Kern_v6\Kern\ParamsTable.c
                  crcRead   0x000ba5       data     static E:\Users\Pal\DEVICES\Kern_dev_\SOFT2\MCHP\Kern_v6\Kern\ParamsTable.c
                  curHTTP   0x000100       data     extern E:\Users\Pal\DEVICES\Kern_dev_\SOFT2\MCHP\Kern_v6\Microchip\TCPIP Stack\HTTP2.c
                curHTTPID   0x0001e7       data     extern E:\Users\Pal\DEVICES\Kern_dev_\SOFT2\MCHP\Kern_v6\Microchip\TCPIP Stack\HTTP2.c
                curr_byte   0x0003f7       data     static C:\MCC18\src\traditional\startup\c018i.c
               curr_entry   0x0003f9       data     static C:\MCC18\src\traditional\startup\c018i.c
               currentMIB   0x000c47       data     static E:\Users\Pal\DEVICES\Kern_dev_\SOFT2\MCHP\Kern_v6\Microchip\TCPIP Stack\SNMP.c
             currentOctet   0x000bab       data     static E:\Users\Pal\DEVICES\Kern_dev_\SOFT2\MCHP\Kern_v6\Microchip\TCPIP Stack\Helpers.c
             currentOctet   0x000bab       data     static E:\Users\Pal\DEVICES\Kern_dev_\SOFT2\MCHP\Kern_v6\Microchip\TCPIP Stack\Helpers.c
                     data   0x000372       data     static E:\Users\Pal\DEVICES\Kern_dev_\SOFT2\MCHP\Kern_v6\Microchip\TCPIP Stack\TCP.c
                     data   0x00036f       data     static E:\Users\Pal\DEVICES\Kern_dev_\SOFT2\MCHP\Kern_v6\Microchip\TCPIP Stack\TCP.c
                     data   0x000369       data     static E:\Users\Pal\DEVICES\Kern_dev_\SOFT2\MCHP\Kern_v6\Microchip\TCPIP Stack\TCP.c
                     data   0x000364       data     static E:\Users\Pal\DEVICES\Kern_dev_\SOFT2\MCHP\Kern_v6\Microchip\TCPIP Stack\TCP.c
                     data   0x000baa       data     static E:\Users\Pal\DEVICES\Kern_dev_\SOFT2\MCHP\Kern_v6\Microchip\TCPIP Stack\HTTP2.c
                     data   0x000ba9       data     static E:\Users\Pal\DEVICES\Kern_dev_\SOFT2\MCHP\Kern_v6\Microchip\TCPIP Stack\HTTP2.c
                    data0   0x0004b7       data     static E:\Users\Pal\DEVICES\Kern_dev_\SOFT2\MCHP\Kern_v6\Kern\PAL_pUART.c
                    data1   0x0004b8       data     static E:\Users\Pal\DEVICES\Kern_dev_\SOFT2\MCHP\Kern_v6\Kern\PAL_pUART.c
                    data2   0x0004b9       data     static E:\Users\Pal\DEVICES\Kern_dev_\SOFT2\MCHP\Kern_v6\Kern\PAL_pUART.c
                    data3   0x0004ba       data     static E:\Users\Pal\DEVICES\Kern_dev_\SOFT2\MCHP\Kern_v6\Kern\PAL_pUART.c
                    data4   0x0004bb       data     static E:\Users\Pal\DEVICES\Kern_dev_\SOFT2\MCHP\Kern_v6\Kern\PAL_pUART.c
                    data5   0x0004bc       data     static E:\Users\Pal\DEVICES\Kern_dev_\SOFT2\MCHP\Kern_v6\Kern\PAL_pUART.c
                dataCount   0x000c12       data     static E:\Users\Pal\DEVICES\Kern_dev_\SOFT2\MCHP\Kern_v6\Microchip\TCPIP Stack\StackTsk.c
                  dataLen   0x000583       data     static E:\Users\Pal\DEVICES\Kern_dev_\SOFT2\MCHP\Kern_v6\Microchip\TCPIP Stack\SNMP.c
                  dataLen   0x0004d5       data     static E:\Users\Pal\DEVICES\Kern_dev_\SOFT2\MCHP\Kern_v6\Microchip\TCPIP Stack\ETH97J60.c
                  dataLen   0x000cd4       data     static E:\Users\Pal\DEVICES\Kern_dev_\SOFT2\MCHP\Kern_v6\Microchip\TCPIP Stack\SNMP.c
                 dataType   0x00059a       data     static E:\Users\Pal\DEVICES\Kern_dev_\SOFT2\MCHP\Kern_v6\Microchip\TCPIP Stack\SNMP.c
                 dataType   0x000cd3       data     static E:\Users\Pal\DEVICES\Kern_dev_\SOFT2\MCHP\Kern_v6\Microchip\TCPIP Stack\SNMP.c
                 dataType   0x000c3a       data     static E:\Users\Pal\DEVICES\Kern_dev_\SOFT2\MCHP\Kern_v6\Microchip\TCPIP Stack\SNMP.c
             dataTypeInfo   0x000bd5       data     static E:\Users\Pal\DEVICES\Kern_dev_\SOFT2\MCHP\Kern_v6\Microchip\TCPIP Stack\SNMP.c
             dataTypeInfo   0x000c43       data     static E:\Users\Pal\DEVICES\Kern_dev_\SOFT2\MCHP\Kern_v6\Microchip\TCPIP Stack\SNMP.c
                dataValue   0x000cd9       data     static E:\Users\Pal\DEVICES\Kern_dev_\SOFT2\MCHP\Kern_v6\Microchip\TCPIP Stack\SNMP.c
                 data_ptr   0x0003fb       data     static C:\MCC18\src\traditional\startup\c018i.c
                data_temp   0x00046e       data     extern E:\Users\Pal\DEVICES\Kern_dev_\SOFT2\MCHP\Kern_v6\Kern\PAL_pUART.c
                 destAddr   0x0004e3       data     static E:\Users\Pal\DEVICES\Kern_dev_\SOFT2\MCHP\Kern_v6\Microchip\TCPIP Stack\ETH97J60.c
             device_alarm   0x000bb5       data     static E:\Users\Pal\DEVICES\Kern_dev_\SOFT2\MCHP\Kern_v6\Kern\PAL_pUART.c
             device_group   0x000bb3       data     static E:\Users\Pal\DEVICES\Kern_dev_\SOFT2\MCHP\Kern_v6\Kern\PAL_pUART.c
               device_num   0x000bb4       data     static E:\Users\Pal\DEVICES\Kern_dev_\SOFT2\MCHP\Kern_v6\Kern\PAL_pUART.c
                   digits   0x000bb1       data     static E:\Users\Pal\DEVICES\Kern_dev_\SOFT2\MCHP\Kern_v6\Kern\CustomHTTPApp.c
                       dt   0x000bab       data     static E:\Users\Pal\DEVICES\Kern_dev_\SOFT2\MCHP\Kern_v6\Kern\Main.c
                       dw   0x000bb5       data     static E:\Users\Pal\DEVICES\Kern_dev_\SOFT2\MCHP\Kern_v6\Microchip\TCPIP Stack\Tick.c
                       dw   0x000bef       data     static E:\Users\Pal\DEVICES\Kern_dev_\SOFT2\MCHP\Kern_v6\Microchip\TCPIP Stack\Tick.c
                       dw   0x000bad       data     static E:\Users\Pal\DEVICES\Kern_dev_\SOFT2\MCHP\Kern_v6\Kern\CustomSNMPApp.c
       dwHITECHWorkaround   0x000c73       data     static E:\Users\Pal\DEVICES\Kern_dev_\SOFT2\MCHP\Kern_v6\Microchip\TCPIP Stack\MPFS2.c
       dwHITECHWorkaround   0x000c73       data     static E:\Users\Pal\DEVICES\Kern_dev_\SOFT2\MCHP\Kern_v6\Microchip\TCPIP Stack\MPFS2.c
          dwInternalTicks   0x0005c5       data     static E:\Users\Pal\DEVICES\Kern_dev_\SOFT2\MCHP\Kern_v6\Microchip\TCPIP Stack\Tick.c
           dwLFSRRandSeed   0x0005c9       data     static E:\Users\Pal\DEVICES\Kern_dev_\SOFT2\MCHP\Kern_v6\Microchip\TCPIP Stack\Helpers.c
                 dwLastIP   0x0001ea       data     static E:\Users\Pal\DEVICES\Kern_dev_\SOFT2\MCHP\Kern_v6\Kern\Main.c
                 dwOffset   0x0000df       data     static E:\Users\Pal\DEVICES\Kern_dev_\SOFT2\MCHP\Kern_v6\Microchip\TCPIP Stack\MPFS2.c
                dwOldSeed   0x000bc4       data     static E:\Users\Pal\DEVICES\Kern_dev_\SOFT2\MCHP\Kern_v6\Microchip\TCPIP Stack\Helpers.c
             dwRemoteHost   0x000346       data     static E:\Users\Pal\DEVICES\Kern_dev_\SOFT2\MCHP\Kern_v6\Microchip\TCPIP Stack\TCP.c
                   dwSeed   0x0007cb       data     static E:\Users\Pal\DEVICES\Kern_dev_\SOFT2\MCHP\Kern_v6\Microchip\TCPIP Stack\Helpers.c
                   dwTemp   0x000bca       data     static E:\Users\Pal\DEVICES\Kern_dev_\SOFT2\MCHP\Kern_v6\Microchip\TCPIP Stack\TCP.c
              dwTickValue   0x0008f9       data     static E:\Users\Pal\DEVICES\Kern_dev_\SOFT2\MCHP\Kern_v6\Microchip\TCPIP Stack\Tick.c
              dwTotalTime   0x000bac       data     static E:\Users\Pal\DEVICES\Kern_dev_\SOFT2\MCHP\Kern_v6\Microchip\TCPIP Stack\Helpers.c
                    dwVal   0x000ba5       data     static E:\Users\Pal\DEVICES\Kern_dev_\SOFT2\MCHP\Kern_v6\Microchip\TCPIP Stack\Helpers.c
                    dwVal   0x000ba5       data     static E:\Users\Pal\DEVICES\Kern_dev_\SOFT2\MCHP\Kern_v6\Microchip\TCPIP Stack\Helpers.c
                    dwVal   0x000ba5       data     static E:\Users\Pal\DEVICES\Kern_dev_\SOFT2\MCHP\Kern_v6\Microchip\TCPIP Stack\ICMP.c
                  dwvHigh   0x000ba5       data     static E:\Users\Pal\DEVICES\Kern_dev_\SOFT2\MCHP\Kern_v6\Kern\CustomSNMPApp.c
                   dwvLow   0x000ba9       data     static E:\Users\Pal\DEVICES\Kern_dev_\SOFT2\MCHP\Kern_v6\Kern\CustomSNMPApp.c
                errorCode   0x000cd6       data     static E:\Users\Pal\DEVICES\Kern_dev_\SOFT2\MCHP\Kern_v6\Microchip\TCPIP Stack\SNMP.c
               errorIndex   0x0005ad       data     static E:\Users\Pal\DEVICES\Kern_dev_\SOFT2\MCHP\Kern_v6\Microchip\TCPIP Stack\SNMP.c
               errorIndex   0x000bb8       data     static E:\Users\Pal\DEVICES\Kern_dev_\SOFT2\MCHP\Kern_v6\Microchip\TCPIP Stack\SNMP.c
         errorIndexOffset   0x0005aa       data     static E:\Users\Pal\DEVICES\Kern_dev_\SOFT2\MCHP\Kern_v6\Microchip\TCPIP Stack\SNMP.c
         errorIndexOffset   0x000bda       data     static E:\Users\Pal\DEVICES\Kern_dev_\SOFT2\MCHP\Kern_v6\Microchip\TCPIP Stack\SNMP.c
              errorStatus   0x0005a1       data     static E:\Users\Pal\DEVICES\Kern_dev_\SOFT2\MCHP\Kern_v6\Microchip\TCPIP Stack\SNMP.c
              errorStatus   0x0005ac       data     static E:\Users\Pal\DEVICES\Kern_dev_\SOFT2\MCHP\Kern_v6\Microchip\TCPIP Stack\SNMP.c
              errorStatus   0x000bfe       data     static E:\Users\Pal\DEVICES\Kern_dev_\SOFT2\MCHP\Kern_v6\Microchip\TCPIP Stack\SNMP.c
        errorStatusOffset   0x0005a8       data     static E:\Users\Pal\DEVICES\Kern_dev_\SOFT2\MCHP\Kern_v6\Microchip\TCPIP Stack\SNMP.c
        errorStatusOffset   0x000bd8       data     static E:\Users\Pal\DEVICES\Kern_dev_\SOFT2\MCHP\Kern_v6\Microchip\TCPIP Stack\SNMP.c
                      ext   0x000c61       data     static E:\Users\Pal\DEVICES\Kern_dev_\SOFT2\MCHP\Kern_v6\Microchip\TCPIP Stack\HTTP2.c
                 fatCache   0x0000b1       data     static E:\Users\Pal\DEVICES\Kern_dev_\SOFT2\MCHP\Kern_v6\Microchip\TCPIP Stack\MPFS2.c
               fatCacheID   0x0000c7       data     static E:\Users\Pal\DEVICES\Kern_dev_\SOFT2\MCHP\Kern_v6\Microchip\TCPIP Stack\MPFS2.c
                    fatID   0x0000e4       data     static E:\Users\Pal\DEVICES\Kern_dev_\SOFT2\MCHP\Kern_v6\Microchip\TCPIP Stack\MPFS2.c
                 filename   0x000bd5       data     static E:\Users\Pal\DEVICES\Kern_dev_\SOFT2\MCHP\Kern_v6\Kern\CustomHTTPApp.c
                     flag   0x000c3d       data     static E:\Users\Pal\DEVICES\Kern_dev_\SOFT2\MCHP\Kern_v6\Kern\CustomSNMPApp.c
                    flags   0x0004cb       data     static E:\Users\Pal\DEVICES\Kern_dev_\SOFT2\MCHP\Kern_v6\Microchip\TCPIP Stack\ETH97J60.c
                       fp   0x000be9       data     static E:\Users\Pal\DEVICES\Kern_dev_\SOFT2\MCHP\Kern_v6\Microchip\TCPIP Stack\HTTP2.c
 gGenericTrapNotification   0x000e02       data     extern E:\Users\Pal\DEVICES\Kern_dev_\SOFT2\MCHP\Kern_v6\Kern\CustomSNMPApp.c
gOIDCorrespondingSnmpMibID   0x000e01       data     extern E:\Users\Pal\DEVICES\Kern_dev_\SOFT2\MCHP\Kern_v6\Kern\CustomSNMPApp.c
            gSendTrapFlag   0x000e00       data     extern E:\Users\Pal\DEVICES\Kern_dev_\SOFT2\MCHP\Kern_v6\Kern\CustomSNMPApp.c
         gSetTrapSendFlag   0x000e04       data     extern E:\Users\Pal\DEVICES\Kern_dev_\SOFT2\MCHP\Kern_v6\Kern\CustomSNMPApp.c
       gSnmpNonMibRecInfo   0x000901       data     extern E:\Users\Pal\DEVICES\Kern_dev_\SOFT2\MCHP\Kern_v6\Microchip\TCPIP Stack\SNMP.c
gSpecificTrapNotification   0x000e03       data     extern E:\Users\Pal\DEVICES\Kern_dev_\SOFT2\MCHP\Kern_v6\Kern\CustomSNMPApp.c
             gen_trap_oid   0x000934       data     static E:\Users\Pal\DEVICES\Kern_dev_\SOFT2\MCHP\Kern_v6\Microchip\TCPIP Stack\SNMP.c
        generic_trap_code   0x00053c       data     static E:\Users\Pal\DEVICES\Kern_dev_\SOFT2\MCHP\Kern_v6\Microchip\TCPIP Stack\SNMP.c
          getZeroInstance   0x000508       data     extern E:\Users\Pal\DEVICES\Kern_dev_\SOFT2\MCHP\Kern_v6\Microchip\TCPIP Stack\SNMP.c
      getbulkOverFlowFlag   0x000ba5       data     static E:\Users\Pal\DEVICES\Kern_dev_\SOFT2\MCHP\Kern_v6\Microchip\TCPIP Stack\SNMP.c
                        h   0x000594       data     static E:\Users\Pal\DEVICES\Kern_dev_\SOFT2\MCHP\Kern_v6\Microchip\TCPIP Stack\SNMP.c
                        h   0x0008f1       data     static E:\Users\Pal\DEVICES\Kern_dev_\SOFT2\MCHP\Kern_v6\Microchip\TCPIP Stack\IP.c
                        h   0x0003af       data     static E:\Users\Pal\DEVICES\Kern_dev_\SOFT2\MCHP\Kern_v6\Microchip\TCPIP Stack\TCP.c
                        h   0x0003b5       data     static E:\Users\Pal\DEVICES\Kern_dev_\SOFT2\MCHP\Kern_v6\Microchip\TCPIP Stack\TCP.c
                        h   0x000ba5       data     static E:\Users\Pal\DEVICES\Kern_dev_\SOFT2\MCHP\Kern_v6\Microchip\TCPIP Stack\UDP.c
                        h   0x0002dc       data     static E:\Users\Pal\DEVICES\Kern_dev_\SOFT2\MCHP\Kern_v6\Microchip\TCPIP Stack\UDP.c
                        h   0x000c59       data     static E:\Users\Pal\DEVICES\Kern_dev_\SOFT2\MCHP\Kern_v6\Microchip\TCPIP Stack\UDP.c
                 hCurrent   0x000c61       data     static E:\Users\Pal\DEVICES\Kern_dev_\SOFT2\MCHP\Kern_v6\Microchip\TCPIP Stack\SNMP.c
                 hCurrent   0x000c3f       data     static E:\Users\Pal\DEVICES\Kern_dev_\SOFT2\MCHP\Kern_v6\Microchip\TCPIP Stack\SNMP.c
              hCurrentTCP   0x0008fd       data     static E:\Users\Pal\DEVICES\Kern_dev_\SOFT2\MCHP\Kern_v6\Microchip\TCPIP Stack\TCP.c
                   hFatID   0x0000d0       data     static E:\Users\Pal\DEVICES\Kern_dev_\SOFT2\MCHP\Kern_v6\Microchip\TCPIP Stack\MPFS2.c
                    hHTTP   0x0008c4       data     static E:\Users\Pal\DEVICES\Kern_dev_\SOFT2\MCHP\Kern_v6\Microchip\TCPIP Stack\HTTP2.c
                 hLastTCB   0x0008fe       data     static E:\Users\Pal\DEVICES\Kern_dev_\SOFT2\MCHP\Kern_v6\Microchip\TCPIP Stack\TCP.c
                    hMPFS   0x0000ed       data     static E:\Users\Pal\DEVICES\Kern_dev_\SOFT2\MCHP\Kern_v6\Microchip\TCPIP Stack\MPFS2.c
                    hMPFS   0x0000ec       data     static E:\Users\Pal\DEVICES\Kern_dev_\SOFT2\MCHP\Kern_v6\Microchip\TCPIP Stack\MPFS2.c
                    hMPFS   0x0000eb       data     static E:\Users\Pal\DEVICES\Kern_dev_\SOFT2\MCHP\Kern_v6\Microchip\TCPIP Stack\MPFS2.c
                    hMPFS   0x0000ea       data     static E:\Users\Pal\DEVICES\Kern_dev_\SOFT2\MCHP\Kern_v6\Microchip\TCPIP Stack\MPFS2.c
                    hMPFS   0x0000e9       data     static E:\Users\Pal\DEVICES\Kern_dev_\SOFT2\MCHP\Kern_v6\Microchip\TCPIP Stack\MPFS2.c
                    hMPFS   0x0000e8       data     static E:\Users\Pal\DEVICES\Kern_dev_\SOFT2\MCHP\Kern_v6\Microchip\TCPIP Stack\MPFS2.c
                    hMPFS   0x0000f2       data     static E:\Users\Pal\DEVICES\Kern_dev_\SOFT2\MCHP\Kern_v6\Microchip\TCPIP Stack\MPFS2.c
                    hMPFS   0x0000e7       data     static E:\Users\Pal\DEVICES\Kern_dev_\SOFT2\MCHP\Kern_v6\Microchip\TCPIP Stack\MPFS2.c
                    hMPFS   0x0000e6       data     static E:\Users\Pal\DEVICES\Kern_dev_\SOFT2\MCHP\Kern_v6\Microchip\TCPIP Stack\MPFS2.c
                    hMPFS   0x0000de       data     static E:\Users\Pal\DEVICES\Kern_dev_\SOFT2\MCHP\Kern_v6\Microchip\TCPIP Stack\MPFS2.c
                    hMPFS   0x0000db       data     static E:\Users\Pal\DEVICES\Kern_dev_\SOFT2\MCHP\Kern_v6\Microchip\TCPIP Stack\MPFS2.c
                    hMPFS   0x0000f3       data     static E:\Users\Pal\DEVICES\Kern_dev_\SOFT2\MCHP\Kern_v6\Microchip\TCPIP Stack\MPFS2.c
                    hMPFS   0x0000d6       data     static E:\Users\Pal\DEVICES\Kern_dev_\SOFT2\MCHP\Kern_v6\Microchip\TCPIP Stack\MPFS2.c
                    hMPFS   0x0000d3       data     static E:\Users\Pal\DEVICES\Kern_dev_\SOFT2\MCHP\Kern_v6\Microchip\TCPIP Stack\MPFS2.c
                    hMPFS   0x0000d2       data     static E:\Users\Pal\DEVICES\Kern_dev_\SOFT2\MCHP\Kern_v6\Microchip\TCPIP Stack\MPFS2.c
                    hMPFS   0x000bea       data     static E:\Users\Pal\DEVICES\Kern_dev_\SOFT2\MCHP\Kern_v6\Microchip\TCPIP Stack\MPFS2.c
                    hMPFS   0x000c3b       data     static E:\Users\Pal\DEVICES\Kern_dev_\SOFT2\MCHP\Kern_v6\Microchip\TCPIP Stack\MPFS2.c
                    hMPFS   0x000ba5       data     static E:\Users\Pal\DEVICES\Kern_dev_\SOFT2\MCHP\Kern_v6\Microchip\TCPIP Stack\MPFS2.c
                    hMPFS   0x000505       data     extern E:\Users\Pal\DEVICES\Kern_dev_\SOFT2\MCHP\Kern_v6\Microchip\TCPIP Stack\SNMP.c
                    hNext   0x000c43       data     static E:\Users\Pal\DEVICES\Kern_dev_\SOFT2\MCHP\Kern_v6\Microchip\TCPIP Stack\SNMP.c
                    hNode   0x000c0c       data     static E:\Users\Pal\DEVICES\Kern_dev_\SOFT2\MCHP\Kern_v6\Microchip\TCPIP Stack\SNMP.c
                     hTCP   0x000bca       data     static E:\Users\Pal\DEVICES\Kern_dev_\SOFT2\MCHP\Kern_v6\Microchip\TCPIP Stack\TCP.c
                     hTCP   0x0003b9       data     static E:\Users\Pal\DEVICES\Kern_dev_\SOFT2\MCHP\Kern_v6\Microchip\TCPIP Stack\TCP.c
                     hTCP   0x000bc1       data     static E:\Users\Pal\DEVICES\Kern_dev_\SOFT2\MCHP\Kern_v6\Microchip\TCPIP Stack\TCP.c
                     hTCP   0x0003a0       data     static E:\Users\Pal\DEVICES\Kern_dev_\SOFT2\MCHP\Kern_v6\Microchip\TCPIP Stack\TCP.c
                     hTCP   0x000395       data     static E:\Users\Pal\DEVICES\Kern_dev_\SOFT2\MCHP\Kern_v6\Microchip\TCPIP Stack\TCP.c
                     hTCP   0x00038b       data     static E:\Users\Pal\DEVICES\Kern_dev_\SOFT2\MCHP\Kern_v6\Microchip\TCPIP Stack\TCP.c
                     hTCP   0x000388       data     static E:\Users\Pal\DEVICES\Kern_dev_\SOFT2\MCHP\Kern_v6\Microchip\TCPIP Stack\TCP.c
                     hTCP   0x000381       data     static E:\Users\Pal\DEVICES\Kern_dev_\SOFT2\MCHP\Kern_v6\Microchip\TCPIP Stack\TCP.c
                     hTCP   0x000380       data     static E:\Users\Pal\DEVICES\Kern_dev_\SOFT2\MCHP\Kern_v6\Microchip\TCPIP Stack\TCP.c
                     hTCP   0x00037b       data     static E:\Users\Pal\DEVICES\Kern_dev_\SOFT2\MCHP\Kern_v6\Microchip\TCPIP Stack\TCP.c
                     hTCP   0x000378       data     static E:\Users\Pal\DEVICES\Kern_dev_\SOFT2\MCHP\Kern_v6\Microchip\TCPIP Stack\TCP.c
                     hTCP   0x000361       data     static E:\Users\Pal\DEVICES\Kern_dev_\SOFT2\MCHP\Kern_v6\Microchip\TCPIP Stack\TCP.c
                     hTCP   0x000360       data     static E:\Users\Pal\DEVICES\Kern_dev_\SOFT2\MCHP\Kern_v6\Microchip\TCPIP Stack\TCP.c
                     hTCP   0x00035f       data     static E:\Users\Pal\DEVICES\Kern_dev_\SOFT2\MCHP\Kern_v6\Microchip\TCPIP Stack\TCP.c
                     hTCP   0x000352       data     static E:\Users\Pal\DEVICES\Kern_dev_\SOFT2\MCHP\Kern_v6\Microchip\TCPIP Stack\TCP.c
                     hTCP   0x000351       data     static E:\Users\Pal\DEVICES\Kern_dev_\SOFT2\MCHP\Kern_v6\Microchip\TCPIP Stack\TCP.c
                     hTCP   0x000363       data     static E:\Users\Pal\DEVICES\Kern_dev_\SOFT2\MCHP\Kern_v6\Microchip\TCPIP Stack\TCP.c
                     hTCP   0x000368       data     static E:\Users\Pal\DEVICES\Kern_dev_\SOFT2\MCHP\Kern_v6\Microchip\TCPIP Stack\TCP.c
                     hTCP   0x00034e       data     static E:\Users\Pal\DEVICES\Kern_dev_\SOFT2\MCHP\Kern_v6\Microchip\TCPIP Stack\TCP.c
                     hTCP   0x000350       data     static E:\Users\Pal\DEVICES\Kern_dev_\SOFT2\MCHP\Kern_v6\Microchip\TCPIP Stack\TCP.c
                     hTCP   0x00034f       data     static E:\Users\Pal\DEVICES\Kern_dev_\SOFT2\MCHP\Kern_v6\Microchip\TCPIP Stack\TCP.c
                     hTCP   0x000371       data     static E:\Users\Pal\DEVICES\Kern_dev_\SOFT2\MCHP\Kern_v6\Microchip\TCPIP Stack\TCP.c
                     hTCP   0x00036e       data     static E:\Users\Pal\DEVICES\Kern_dev_\SOFT2\MCHP\Kern_v6\Microchip\TCPIP Stack\TCP.c
                     hTCP   0x000345       data     static E:\Users\Pal\DEVICES\Kern_dev_\SOFT2\MCHP\Kern_v6\Microchip\TCPIP Stack\TCP.c
                     hTCP   0x000ba7       data     static E:\Users\Pal\DEVICES\Kern_dev_\SOFT2\MCHP\Kern_v6\Microchip\TCPIP Stack\TCP.c
                     hTCP   0x000375       data     static E:\Users\Pal\DEVICES\Kern_dev_\SOFT2\MCHP\Kern_v6\Microchip\TCPIP Stack\TCP.c
                     hTCP   0x000376       data     static E:\Users\Pal\DEVICES\Kern_dev_\SOFT2\MCHP\Kern_v6\Microchip\TCPIP Stack\TCP.c
                     hTCP   0x000377       data     static E:\Users\Pal\DEVICES\Kern_dev_\SOFT2\MCHP\Kern_v6\Microchip\TCPIP Stack\TCP.c
                  hTarget   0x000c3b       data     static E:\Users\Pal\DEVICES\Kern_dev_\SOFT2\MCHP\Kern_v6\Microchip\TCPIP Stack\SNMP.c
                     hash   0x000bcc       data     static E:\Users\Pal\DEVICES\Kern_dev_\SOFT2\MCHP\Kern_v6\Microchip\TCPIP Stack\TCP.c
                hashCache   0x000c40       data     static E:\Users\Pal\DEVICES\Kern_dev_\SOFT2\MCHP\Kern_v6\Microchip\TCPIP Stack\MPFS2.c
                hashCache   0x000baa       data     static E:\Users\Pal\DEVICES\Kern_dev_\SOFT2\MCHP\Kern_v6\Microchip\TCPIP Stack\MPFS2.c
                   header   0x000bec       data     static E:\Users\Pal\DEVICES\Kern_dev_\SOFT2\MCHP\Kern_v6\Microchip\TCPIP Stack\TCP.c
                   header   0x0003b3       data     static E:\Users\Pal\DEVICES\Kern_dev_\SOFT2\MCHP\Kern_v6\Microchip\TCPIP Stack\TCP.c
                   header   0x000c3b       data     static E:\Users\Pal\DEVICES\Kern_dev_\SOFT2\MCHP\Kern_v6\Microchip\TCPIP Stack\IP.c
                   header   0x000ba7       data     static E:\Users\Pal\DEVICES\Kern_dev_\SOFT2\MCHP\Kern_v6\Microchip\TCPIP Stack\IP.c
                   header   0x000ba5       data     static E:\Users\Pal\DEVICES\Kern_dev_\SOFT2\MCHP\Kern_v6\Microchip\TCPIP Stack\ETH97J60.c
              headerBytes   0x000c0c       data     static E:\Users\Pal\DEVICES\Kern_dev_\SOFT2\MCHP\Kern_v6\Microchip\TCPIP Stack\SNMP.c
                      hex   0x000bac       data     static E:\Users\Pal\DEVICES\Kern_dev_\SOFT2\MCHP\Kern_v6\Microchip\TCPIP Stack\HTTP2.c
                httpStubs   0x0001e3       data     extern E:\Users\Pal\DEVICES\Kern_dev_\SOFT2\MCHP\Kern_v6\Microchip\TCPIP Stack\HTTP2.c
                        i   0x000bb1       data     static E:\Users\Pal\DEVICES\Kern_dev_\SOFT2\MCHP\Kern_v6\Kern\ParamsTable.c
                        i   0x000ba5       data     static E:\Users\Pal\DEVICES\Kern_dev_\SOFT2\MCHP\Kern_v6\Microchip\TCPIP Stack\DHCP.c
                        i   0x000ce2       data     static E:\Users\Pal\DEVICES\Kern_dev_\SOFT2\MCHP\Kern_v6\Kern\ParamsTable.c
                        i   0x000bb0       data     static E:\Users\Pal\DEVICES\Kern_dev_\SOFT2\MCHP\Kern_v6\Microchip\TCPIP Stack\DHCP.c
                        i   0x0008c5       data     static E:\Users\Pal\DEVICES\Kern_dev_\SOFT2\MCHP\Kern_v6\Microchip\TCPIP Stack\HTTP2.c
                        i   0x000ba6       data     static E:\Users\Pal\DEVICES\Kern_dev_\SOFT2\MCHP\Kern_v6\Microchip\TCPIP Stack\DHCP.c
                        i   0x000ba5       data     static E:\Users\Pal\DEVICES\Kern_dev_\SOFT2\MCHP\Kern_v6\Microchip\TCPIP Stack\DHCP.c
                        i   0x000c5f       data     static E:\Users\Pal\DEVICES\Kern_dev_\SOFT2\MCHP\Kern_v6\Microchip\TCPIP Stack\HTTP2.c
                        i   0x000bb9       data     static E:\Users\Pal\DEVICES\Kern_dev_\SOFT2\MCHP\Kern_v6\Kern\PAL_pUART.c
                        i   0x000ba6       data     static E:\Users\Pal\DEVICES\Kern_dev_\SOFT2\MCHP\Kern_v6\Microchip\TCPIP Stack\ETH97J60.c
                        i   0x000ba5       data     static E:\Users\Pal\DEVICES\Kern_dev_\SOFT2\MCHP\Kern_v6\Microchip\TCPIP Stack\Helpers.c
                        i   0x000ba5       data     static E:\Users\Pal\DEVICES\Kern_dev_\SOFT2\MCHP\Kern_v6\Microchip\TCPIP Stack\Helpers.c
                        i   0x000bab       data     static E:\Users\Pal\DEVICES\Kern_dev_\SOFT2\MCHP\Kern_v6\Kern\ParamsTable.c
                        i   0x000ba5       data     static E:\Users\Pal\DEVICES\Kern_dev_\SOFT2\MCHP\Kern_v6\Kern\Main.c
                        i   0x000ba5       data     static E:\Users\Pal\DEVICES\Kern_dev_\SOFT2\MCHP\Kern_v6\Kern\PAL_pUART.c
                        i   0x000cdd       data     static E:\Users\Pal\DEVICES\Kern_dev_\SOFT2\MCHP\Kern_v6\Microchip\TCPIP Stack\Helpers.c
                        i   0x000ba5       data     static E:\Users\Pal\DEVICES\Kern_dev_\SOFT2\MCHP\Kern_v6\Microchip\TCPIP Stack\Helpers.c
                        i   0x000c3b       data     static E:\Users\Pal\DEVICES\Kern_dev_\SOFT2\MCHP\Kern_v6\Microchip\TCPIP Stack\ETH97J60.c
                        i   0x000c77       data     static E:\Users\Pal\DEVICES\Kern_dev_\SOFT2\MCHP\Kern_v6\Microchip\TCPIP Stack\ETH97J60.c
                        i   0x000ba9       data     static E:\Users\Pal\DEVICES\Kern_dev_\SOFT2\MCHP\Kern_v6\Microchip\TCPIP Stack\Helpers.c
                        i   0x000bee       data     static E:\Users\Pal\DEVICES\Kern_dev_\SOFT2\MCHP\Kern_v6\Kern\CustomHTTPApp.c
                        i   0x000bb9       data     static E:\Users\Pal\DEVICES\Kern_dev_\SOFT2\MCHP\Kern_v6\Microchip\TCPIP Stack\TCP.c
                        i   0x000bc8       data     static E:\Users\Pal\DEVICES\Kern_dev_\SOFT2\MCHP\Kern_v6\Microchip\TCPIP Stack\Helpers.c
                        i   0x000ba9       data     static E:\Users\Pal\DEVICES\Kern_dev_\SOFT2\MCHP\Kern_v6\Microchip\TCPIP Stack\Helpers.c
                        i   0x000be6       data     static E:\Users\Pal\DEVICES\Kern_dev_\SOFT2\MCHP\Kern_v6\Microchip\TCPIP Stack\Helpers.c
                        i   0x000c01       data     static E:\Users\Pal\DEVICES\Kern_dev_\SOFT2\MCHP\Kern_v6\Kern\PAL_pUART.c
                        i   0x000c37       data     static E:\Users\Pal\DEVICES\Kern_dev_\SOFT2\MCHP\Kern_v6\Kern\CustomSNMPApp.c
                        i   0x000beb       data     static E:\Users\Pal\DEVICES\Kern_dev_\SOFT2\MCHP\Kern_v6\Kern\CustomHTTPApp.c
                        i   0x000bb2       data     static E:\Users\Pal\DEVICES\Kern_dev_\SOFT2\MCHP\Kern_v6\Microchip\TCPIP Stack\TCP.c
                        i   0x000bad       data     static E:\Users\Pal\DEVICES\Kern_dev_\SOFT2\MCHP\Kern_v6\Kern\UdpSet.c
                        i   0x000bb1       data     static E:\Users\Pal\DEVICES\Kern_dev_\SOFT2\MCHP\Kern_v6\Microchip\TCPIP Stack\TCP.c
                        i   0x000bc6       data     static E:\Users\Pal\DEVICES\Kern_dev_\SOFT2\MCHP\Kern_v6\Microchip\TCPIP Stack\NBNS.c
                        i   0x000bc6       data     static E:\Users\Pal\DEVICES\Kern_dev_\SOFT2\MCHP\Kern_v6\Microchip\TCPIP Stack\NBNS.c
                        i   0x000ba5       data     static E:\Users\Pal\DEVICES\Kern_dev_\SOFT2\MCHP\Kern_v6\Microchip\TCPIP Stack\NBNS.c
                        i   0x000cef       data     static E:\Users\Pal\DEVICES\Kern_dev_\SOFT2\MCHP\Kern_v6\Kern\I2cEEPROM.c
                        i   0x000bab       data     static E:\Users\Pal\DEVICES\Kern_dev_\SOFT2\MCHP\Kern_v6\Microchip\TCPIP Stack\TCP.c
                        i   0x000ce2       data     static E:\Users\Pal\DEVICES\Kern_dev_\SOFT2\MCHP\Kern_v6\Kern\I2cEEPROM.c
                        i   0x000bac       data     static E:\Users\Pal\DEVICES\Kern_dev_\SOFT2\MCHP\Kern_v6\Kern\UdpSet.c
                        i   0x000bea       data     static E:\Users\Pal\DEVICES\Kern_dev_\SOFT2\MCHP\Kern_v6\Microchip\TCPIP Stack\TCP.c
                        i   0x000bb7       data     static E:\Users\Pal\DEVICES\Kern_dev_\SOFT2\MCHP\Kern_v6\Kern\CustomHTTPApp.c
                        i   0x000ba5       data     static E:\Users\Pal\DEVICES\Kern_dev_\SOFT2\MCHP\Kern_v6\Kern\ParamsTable.c
                        i   0x000c01       data     static E:\Users\Pal\DEVICES\Kern_dev_\SOFT2\MCHP\Kern_v6\Kern\CustomSNMPApp.c
                        i   0x000be9       data     static E:\Users\Pal\DEVICES\Kern_dev_\SOFT2\MCHP\Kern_v6\Microchip\TCPIP Stack\SNMP.c
                        i   0x000c3e       data     static E:\Users\Pal\DEVICES\Kern_dev_\SOFT2\MCHP\Kern_v6\Microchip\TCPIP Stack\MPFS2.c
                        i   0x000bad       data     static E:\Users\Pal\DEVICES\Kern_dev_\SOFT2\MCHP\Kern_v6\Kern\Main.c
                        i   0x000bb5       data     static E:\Users\Pal\DEVICES\Kern_dev_\SOFT2\MCHP\Kern_v6\Kern\CustomHTTPApp.c
                        i   0x000ba8       data     static E:\Users\Pal\DEVICES\Kern_dev_\SOFT2\MCHP\Kern_v6\Microchip\TCPIP Stack\MPFS2.c
                        i   0x000ba7       data     static E:\Users\Pal\DEVICES\Kern_dev_\SOFT2\MCHP\Kern_v6\Kern\CustomHTTPApp.c
                        i   0x000ba5       data     static E:\Users\Pal\DEVICES\Kern_dev_\SOFT2\MCHP\Kern_v6\Microchip\TCPIP Stack\MPFS2.c
                        i   0x000ce7       data     static E:\Users\Pal\DEVICES\Kern_dev_\SOFT2\MCHP\Kern_v6\Kern\ParamsTable.c
                      i11   0x000ba7       data     static E:\Users\Pal\DEVICES\Kern_dev_\SOFT2\MCHP\Kern_v6\Kern\PAL_pUART.c
                       id   0x000587       data     static E:\Users\Pal\DEVICES\Kern_dev_\SOFT2\MCHP\Kern_v6\Microchip\TCPIP Stack\SNMP.c
                       ii   0x000ba6       data     static E:\Users\Pal\DEVICES\Kern_dev_\SOFT2\MCHP\Kern_v6\Kern\PAL_pUART.c
                      iii   0x000ba7       data     static E:\Users\Pal\DEVICES\Kern_dev_\SOFT2\MCHP\Kern_v6\Kern\PAL_pUART.c
                    index   0x000b94       data     static E:\Users\Pal\DEVICES\Kern_dev_\SOFT2\MCHP\Kern_v6\Kern\CustomSNMPApp.c
                    index   0x000b8b       data     static E:\Users\Pal\DEVICES\Kern_dev_\SOFT2\MCHP\Kern_v6\Kern\CustomSNMPApp.c
                    index   0x000ba0       data     static E:\Users\Pal\DEVICES\Kern_dev_\SOFT2\MCHP\Kern_v6\Kern\CustomSNMPApp.c
                    index   0x0006e7       data     static E:\Users\Pal\DEVICES\Kern_dev_\SOFT2\MCHP\Kern_v6\Kern\ParamsTable.c
                    index   0x000544       data     static E:\Users\Pal\DEVICES\Kern_dev_\SOFT2\MCHP\Kern_v6\Microchip\TCPIP Stack\SNMP.c
                    index   0x000c5f       data     static E:\Users\Pal\DEVICES\Kern_dev_\SOFT2\MCHP\Kern_v6\Microchip\TCPIP Stack\SNMP.c
                    index   0x000b8d       data     static E:\Users\Pal\DEVICES\Kern_dev_\SOFT2\MCHP\Kern_v6\Kern\CustomSNMPApp.c
                    index   0x0006fa       data     static E:\Users\Pal\DEVICES\Kern_dev_\SOFT2\MCHP\Kern_v6\Kern\ParamsTable.c
                    index   0x0004c6       data     static E:\Users\Pal\DEVICES\Kern_dev_\SOFT2\MCHP\Kern_v6\Kern\PAL_pUART.c
                    index   0x000b96       data     static E:\Users\Pal\DEVICES\Kern_dev_\SOFT2\MCHP\Kern_v6\Kern\CustomSNMPApp.c
                    index   0x0004c2       data     static E:\Users\Pal\DEVICES\Kern_dev_\SOFT2\MCHP\Kern_v6\Kern\PAL_pUART.c
               indexBytes   0x00055b       data     static E:\Users\Pal\DEVICES\Kern_dev_\SOFT2\MCHP\Kern_v6\Microchip\TCPIP Stack\SNMP.c
               indexBytes   0x000567       data     static E:\Users\Pal\DEVICES\Kern_dev_\SOFT2\MCHP\Kern_v6\Microchip\TCPIP Stack\SNMP.c
                indexInfo   0x000c2e       data     static E:\Users\Pal\DEVICES\Kern_dev_\SOFT2\MCHP\Kern_v6\Microchip\TCPIP Stack\SNMP.c
                indexInfo   0x000c21       data     static E:\Users\Pal\DEVICES\Kern_dev_\SOFT2\MCHP\Kern_v6\Microchip\TCPIP Stack\SNMP.c
                 indexRec   0x000c09       data     static E:\Users\Pal\DEVICES\Kern_dev_\SOFT2\MCHP\Kern_v6\Microchip\TCPIP Stack\SNMP.c
                 indexRec   0x000c04       data     static E:\Users\Pal\DEVICES\Kern_dev_\SOFT2\MCHP\Kern_v6\Microchip\TCPIP Stack\SNMP.c
                     info   0x000588       data     static E:\Users\Pal\DEVICES\Kern_dev_\SOFT2\MCHP\Kern_v6\Microchip\TCPIP Stack\SNMP.c
                     info   0x00059b       data     static E:\Users\Pal\DEVICES\Kern_dev_\SOFT2\MCHP\Kern_v6\Microchip\TCPIP Stack\SNMP.c
                       ip   0x0008bc       data     static E:\Users\Pal\DEVICES\Kern_dev_\SOFT2\MCHP\Kern_v6\Kern\CustomHTTPApp.c
                   isDone   0x000c60       data     static E:\Users\Pal\DEVICES\Kern_dev_\SOFT2\MCHP\Kern_v6\Microchip\TCPIP Stack\HTTP2.c
                isFinding   0x000bb4       data     static E:\Users\Pal\DEVICES\Kern_dev_\SOFT2\MCHP\Kern_v6\Microchip\TCPIP Stack\TCP.c
                isFinding   0x000bb5       data     static E:\Users\Pal\DEVICES\Kern_dev_\SOFT2\MCHP\Kern_v6\Microchip\TCPIP Stack\TCP.c
             isMPFSLocked   0x0000b0       data     static E:\Users\Pal\DEVICES\Kern_dev_\SOFT2\MCHP\Kern_v6\Microchip\TCPIP Stack\MPFS2.c
                        j   0x000bc7       data     static E:\Users\Pal\DEVICES\Kern_dev_\SOFT2\MCHP\Kern_v6\Microchip\TCPIP Stack\NBNS.c
                        j   0x000bb3       data     static E:\Users\Pal\DEVICES\Kern_dev_\SOFT2\MCHP\Kern_v6\Microchip\TCPIP Stack\TCP.c
                        j   0x000bc7       data     static E:\Users\Pal\DEVICES\Kern_dev_\SOFT2\MCHP\Kern_v6\Microchip\TCPIP Stack\NBNS.c
                        j   0x000bb2       data     static E:\Users\Pal\DEVICES\Kern_dev_\SOFT2\MCHP\Kern_v6\Microchip\TCPIP Stack\TCP.c
                        j   0x000ba7       data     static E:\Users\Pal\DEVICES\Kern_dev_\SOFT2\MCHP\Kern_v6\Microchip\TCPIP Stack\DHCP.c
                        j   0x000ba6       data     static E:\Users\Pal\DEVICES\Kern_dev_\SOFT2\MCHP\Kern_v6\Kern\Main.c
                        j   0x000ce1       data     static E:\Users\Pal\DEVICES\Kern_dev_\SOFT2\MCHP\Kern_v6\Kern\Main.c
                        j   0x000c39       data     static E:\Users\Pal\DEVICES\Kern_dev_\SOFT2\MCHP\Kern_v6\Kern\CustomSNMPApp.c
                        k   0x000bb3       data     static E:\Users\Pal\DEVICES\Kern_dev_\SOFT2\MCHP\Kern_v6\Microchip\TCPIP Stack\TCP.c
                        k   0x000bb4       data     static E:\Users\Pal\DEVICES\Kern_dev_\SOFT2\MCHP\Kern_v6\Microchip\TCPIP Stack\TCP.c
                        k   0x000bef       data     static E:\Users\Pal\DEVICES\Kern_dev_\SOFT2\MCHP\Kern_v6\Microchip\TCPIP Stack\SNMP.c
                        k   0x000bc8       data     static E:\Users\Pal\DEVICES\Kern_dev_\SOFT2\MCHP\Kern_v6\Microchip\TCPIP Stack\NBNS.c
                        k   0x000bac       data     static E:\Users\Pal\DEVICES\Kern_dev_\SOFT2\MCHP\Kern_v6\Kern\Main.c
            lMissingBytes   0x000bd0       data     static E:\Users\Pal\DEVICES\Kern_dev_\SOFT2\MCHP\Kern_v6\Microchip\TCPIP Stack\TCP.c
              lastFailure   0x0005ce       data     static E:\Users\Pal\DEVICES\Kern_dev_\SOFT2\MCHP\Kern_v6\Kern\CustomHTTPApp.c
              lastSuccess   0x0005cd       data     static E:\Users\Pal\DEVICES\Kern_dev_\SOFT2\MCHP\Kern_v6\Kern\CustomHTTPApp.c
                   lbDone   0x000ba9       data     static E:\Users\Pal\DEVICES\Kern_dev_\SOFT2\MCHP\Kern_v6\Microchip\TCPIP Stack\DHCP.c
               lbNextLeaf   0x000c07       data     static E:\Users\Pal\DEVICES\Kern_dev_\SOFT2\MCHP\Kern_v6\Microchip\TCPIP Stack\SNMP.c
               lbNextLeaf   0x000c35       data     static E:\Users\Pal\DEVICES\Kern_dev_\SOFT2\MCHP\Kern_v6\Microchip\TCPIP Stack\SNMP.c
                 lbReturn   0x000cd0       data     static E:\Users\Pal\DEVICES\Kern_dev_\SOFT2\MCHP\Kern_v6\Microchip\TCPIP Stack\SNMP.c
                      len   0x000ba7       data     static E:\Users\Pal\DEVICES\Kern_dev_\SOFT2\MCHP\Kern_v6\Microchip\TCPIP Stack\SNMP.c
                      len   0x00057d       data     static E:\Users\Pal\DEVICES\Kern_dev_\SOFT2\MCHP\Kern_v6\Microchip\TCPIP Stack\SNMP.c
                      len   0x00053d       data     static E:\Users\Pal\DEVICES\Kern_dev_\SOFT2\MCHP\Kern_v6\Microchip\TCPIP Stack\SNMP.c
                      len   0x0002da       data     static E:\Users\Pal\DEVICES\Kern_dev_\SOFT2\MCHP\Kern_v6\Microchip\TCPIP Stack\UDP.c
                      len   0x000577       data     static E:\Users\Pal\DEVICES\Kern_dev_\SOFT2\MCHP\Kern_v6\Microchip\TCPIP Stack\SNMP.c
                      len   0x000581       data     static E:\Users\Pal\DEVICES\Kern_dev_\SOFT2\MCHP\Kern_v6\Microchip\TCPIP Stack\SNMP.c
                      len   0x000549       data     static E:\Users\Pal\DEVICES\Kern_dev_\SOFT2\MCHP\Kern_v6\Microchip\TCPIP Stack\SNMP.c
                      len   0x0004bf       data     static E:\Users\Pal\DEVICES\Kern_dev_\SOFT2\MCHP\Kern_v6\Kern\PAL_pUART.c
                      len   0x000551       data     static E:\Users\Pal\DEVICES\Kern_dev_\SOFT2\MCHP\Kern_v6\Microchip\TCPIP Stack\SNMP.c
                      len   0x00058c       data     static E:\Users\Pal\DEVICES\Kern_dev_\SOFT2\MCHP\Kern_v6\Microchip\TCPIP Stack\SNMP.c
                      len   0x0008ed       data     static E:\Users\Pal\DEVICES\Kern_dev_\SOFT2\MCHP\Kern_v6\Microchip\TCPIP Stack\IP.c
                      len   0x0008e8       data     static E:\Users\Pal\DEVICES\Kern_dev_\SOFT2\MCHP\Kern_v6\Microchip\TCPIP Stack\IP.c
                      len   0x0005c3       data     static E:\Users\Pal\DEVICES\Kern_dev_\SOFT2\MCHP\Kern_v6\Microchip\TCPIP Stack\ICMP.c
                      len   0x0003b7       data     static E:\Users\Pal\DEVICES\Kern_dev_\SOFT2\MCHP\Kern_v6\Microchip\TCPIP Stack\TCP.c
                      len   0x000c10       data     static E:\Users\Pal\DEVICES\Kern_dev_\SOFT2\MCHP\Kern_v6\Microchip\TCPIP Stack\TCP.c
                      len   0x0003ab       data     static E:\Users\Pal\DEVICES\Kern_dev_\SOFT2\MCHP\Kern_v6\Microchip\TCPIP Stack\TCP.c
                      len   0x000c3b       data     static E:\Users\Pal\DEVICES\Kern_dev_\SOFT2\MCHP\Kern_v6\Kern\CustomSNMPApp.c
                      len   0x0004df       data     static E:\Users\Pal\DEVICES\Kern_dev_\SOFT2\MCHP\Kern_v6\Microchip\TCPIP Stack\ETH97J60.c
                      len   0x0004e1       data     static E:\Users\Pal\DEVICES\Kern_dev_\SOFT2\MCHP\Kern_v6\Microchip\TCPIP Stack\ETH97J60.c
                      len   0x0004e7       data     static E:\Users\Pal\DEVICES\Kern_dev_\SOFT2\MCHP\Kern_v6\Microchip\TCPIP Stack\ETH97J60.c
                      len   0x0004eb       data     static E:\Users\Pal\DEVICES\Kern_dev_\SOFT2\MCHP\Kern_v6\Microchip\TCPIP Stack\ETH97J60.c
                      len   0x0004f0       data     static E:\Users\Pal\DEVICES\Kern_dev_\SOFT2\MCHP\Kern_v6\Microchip\TCPIP Stack\ETH97J60.c
                      len   0x0004f5       data     static E:\Users\Pal\DEVICES\Kern_dev_\SOFT2\MCHP\Kern_v6\Microchip\TCPIP Stack\ETH97J60.c
                      len   0x000b8a       data     static E:\Users\Pal\DEVICES\Kern_dev_\SOFT2\MCHP\Kern_v6\Kern\CustomSNMPApp.c
                      len   0x00037e       data     static E:\Users\Pal\DEVICES\Kern_dev_\SOFT2\MCHP\Kern_v6\Microchip\TCPIP Stack\TCP.c
                      len   0x000592       data     static E:\Users\Pal\DEVICES\Kern_dev_\SOFT2\MCHP\Kern_v6\Microchip\TCPIP Stack\SNMP.c
                      len   0x000366       data     static E:\Users\Pal\DEVICES\Kern_dev_\SOFT2\MCHP\Kern_v6\Microchip\TCPIP Stack\TCP.c
                      len   0x00036c       data     static E:\Users\Pal\DEVICES\Kern_dev_\SOFT2\MCHP\Kern_v6\Microchip\TCPIP Stack\TCP.c
                      len   0x000ba7       data     static E:\Users\Pal\DEVICES\Kern_dev_\SOFT2\MCHP\Kern_v6\Microchip\TCPIP Stack\HTTP2.c
                      len   0x000bd6       data     static E:\Users\Pal\DEVICES\Kern_dev_\SOFT2\MCHP\Kern_v6\Microchip\TCPIP Stack\HTTP2.c
                     lenA   0x000c5a       data     static E:\Users\Pal\DEVICES\Kern_dev_\SOFT2\MCHP\Kern_v6\Microchip\TCPIP Stack\HTTP2.c
                     lenB   0x000c5c       data     static E:\Users\Pal\DEVICES\Kern_dev_\SOFT2\MCHP\Kern_v6\Microchip\TCPIP Stack\HTTP2.c
              lengthBytes   0x000c10       data     static E:\Users\Pal\DEVICES\Kern_dev_\SOFT2\MCHP\Kern_v6\Microchip\TCPIP Stack\SNMP.c
           localAckNumber   0x000bd9       data     static E:\Users\Pal\DEVICES\Kern_dev_\SOFT2\MCHP\Kern_v6\Microchip\TCPIP Stack\TCP.c
         localHeaderFlags   0x000bd8       data     static E:\Users\Pal\DEVICES\Kern_dev_\SOFT2\MCHP\Kern_v6\Microchip\TCPIP Stack\TCP.c
                  localIP   0x0008e2       data     static E:\Users\Pal\DEVICES\Kern_dev_\SOFT2\MCHP\Kern_v6\Microchip\TCPIP Stack\IP.c
                  localIP   0x0002d8       data     static E:\Users\Pal\DEVICES\Kern_dev_\SOFT2\MCHP\Kern_v6\Microchip\TCPIP Stack\UDP.c
                  localIP   0x0003a9       data     static E:\Users\Pal\DEVICES\Kern_dev_\SOFT2\MCHP\Kern_v6\Microchip\TCPIP Stack\TCP.c
                  localIP   0x0002e0       data     static E:\Users\Pal\DEVICES\Kern_dev_\SOFT2\MCHP\Kern_v6\Microchip\TCPIP Stack\UDP.c
                localPort   0x0002b2       data     static E:\Users\Pal\DEVICES\Kern_dev_\SOFT2\MCHP\Kern_v6\Microchip\TCPIP Stack\UDP.c
           localSeqNumber   0x000bdd       data     static E:\Users\Pal\DEVICES\Kern_dev_\SOFT2\MCHP\Kern_v6\Microchip\TCPIP Stack\TCP.c
                      mac   0x0005b7       data     static E:\Users\Pal\DEVICES\Kern_dev_\SOFT2\MCHP\Kern_v6\Kern\I2cEEPROM.c
             matchedCount   0x000c03       data     static E:\Users\Pal\DEVICES\Kern_dev_\SOFT2\MCHP\Kern_v6\Microchip\TCPIP Stack\SNMP.c
                  message   0x000b74       data     static E:\Users\Pal\DEVICES\Kern_dev_\SOFT2\MCHP\Kern_v6\Kern\CustomSNMPApp.c
              messageType   0x0003f2       data     static E:\Users\Pal\DEVICES\Kern_dev_\SOFT2\MCHP\Kern_v6\Microchip\TCPIP Stack\DHCP.c
  msgSecrtyParamLenOffset   0x000506       data     extern E:\Users\Pal\DEVICES\Kern_dev_\SOFT2\MCHP\Kern_v6\Microchip\TCPIP Stack\SNMP.c
                    myRef   0x000c46       data     static E:\Users\Pal\DEVICES\Kern_dev_\SOFT2\MCHP\Kern_v6\Kern\CustomSNMPApp.c
                 nameHash   0x000ba6       data     static E:\Users\Pal\DEVICES\Kern_dev_\SOFT2\MCHP\Kern_v6\Microchip\TCPIP Stack\MPFS2.c
                 nameHash   0x000c3c       data     static E:\Users\Pal\DEVICES\Kern_dev_\SOFT2\MCHP\Kern_v6\Microchip\TCPIP Stack\MPFS2.c
             newAppConfig   0x000c5a       data     static E:\Users\Pal\DEVICES\Kern_dev_\SOFT2\MCHP\Kern_v6\Kern\CustomSNMPApp.c
             newAppConfig   0x000863       data     extern E:\Users\Pal\DEVICES\Kern_dev_\SOFT2\MCHP\Kern_v6\Kern\CustomHTTPApp.c
            noOfOIDsInReq   0x000bbb       data     static E:\Users\Pal\DEVICES\Kern_dev_\SOFT2\MCHP\Kern_v6\Microchip\TCPIP Stack\SNMP.c
    noOfVarToBeInResponse   0x000bbd       data     static E:\Users\Pal\DEVICES\Kern_dev_\SOFT2\MCHP\Kern_v6\Microchip\TCPIP Stack\SNMP.c
                 nodeInfo   0x000c69       data     static E:\Users\Pal\DEVICES\Kern_dev_\SOFT2\MCHP\Kern_v6\Microchip\TCPIP Stack\SNMP.c
         notificationCode   0x000533       data     static E:\Users\Pal\DEVICES\Kern_dev_\SOFT2\MCHP\Kern_v6\Microchip\TCPIP Stack\SNMP.c
                      num   0x0004b6       data     static E:\Users\Pal\DEVICES\Kern_dev_\SOFT2\MCHP\Kern_v6\Kern\PAL_pUART.c
                 numBytes   0x000ba5       data     static E:\Users\Pal\DEVICES\Kern_dev_\SOFT2\MCHP\Kern_v6\Microchip\TCPIP Stack\HTTP2.c
                 numFiles   0x0000c9       data     static E:\Users\Pal\DEVICES\Kern_dev_\SOFT2\MCHP\Kern_v6\Microchip\TCPIP Stack\MPFS2.c
                   offset   0x000c3b       data     static E:\Users\Pal\DEVICES\Kern_dev_\SOFT2\MCHP\Kern_v6\Microchip\TCPIP Stack\SNMP.c
                   offset   0x0004c4       data     static E:\Users\Pal\DEVICES\Kern_dev_\SOFT2\MCHP\Kern_v6\Kern\PAL_pUART.c
                   offset   0x0004d7       data     static E:\Users\Pal\DEVICES\Kern_dev_\SOFT2\MCHP\Kern_v6\Microchip\TCPIP Stack\ETH97J60.c
                   offset   0x0004dd       data     static E:\Users\Pal\DEVICES\Kern_dev_\SOFT2\MCHP\Kern_v6\Microchip\TCPIP Stack\ETH97J60.c
                      oid   0x00056e       data     static E:\Users\Pal\DEVICES\Kern_dev_\SOFT2\MCHP\Kern_v6\Microchip\TCPIP Stack\SNMP.c
                      oid   0x00057f       data     static E:\Users\Pal\DEVICES\Kern_dev_\SOFT2\MCHP\Kern_v6\Microchip\TCPIP Stack\SNMP.c
                   oidLen   0x000570       data     static E:\Users\Pal\DEVICES\Kern_dev_\SOFT2\MCHP\Kern_v6\Microchip\TCPIP Stack\SNMP.c
                   oidLen   0x000b9e       data     static E:\Users\Pal\DEVICES\Kern_dev_\SOFT2\MCHP\Kern_v6\Kern\CustomSNMPApp.c
                oidLenPtr   0x000560       data     static E:\Users\Pal\DEVICES\Kern_dev_\SOFT2\MCHP\Kern_v6\Microchip\TCPIP Stack\SNMP.c
             oidLookUpRet   0x000bc3       data     static E:\Users\Pal\DEVICES\Kern_dev_\SOFT2\MCHP\Kern_v6\Microchip\TCPIP Stack\SNMP.c
                oidOffset   0x000bd0       data     static E:\Users\Pal\DEVICES\Kern_dev_\SOFT2\MCHP\Kern_v6\Microchip\TCPIP Stack\SNMP.c
                oidString   0x000590       data     static E:\Users\Pal\DEVICES\Kern_dev_\SOFT2\MCHP\Kern_v6\Microchip\TCPIP Stack\SNMP.c
                oidString   0x00058a       data     static E:\Users\Pal\DEVICES\Kern_dev_\SOFT2\MCHP\Kern_v6\Microchip\TCPIP Stack\SNMP.c
              oidValuePtr   0x000b9c       data     static E:\Users\Pal\DEVICES\Kern_dev_\SOFT2\MCHP\Kern_v6\Kern\CustomSNMPApp.c
              oidValuePtr   0x00055e       data     static E:\Users\Pal\DEVICES\Kern_dev_\SOFT2\MCHP\Kern_v6\Microchip\TCPIP Stack\SNMP.c
                   oldPtr   0x000ba5       data     static E:\Users\Pal\DEVICES\Kern_dev_\SOFT2\MCHP\Kern_v6\Microchip\TCPIP Stack\HTTP2.c
                   oldPtr   0x000ba5       data     static E:\Users\Pal\DEVICES\Kern_dev_\SOFT2\MCHP\Kern_v6\Microchip\TCPIP Stack\HTTP2.c
                   oldVal   0x000c46       data     static E:\Users\Pal\DEVICES\Kern_dev_\SOFT2\MCHP\Kern_v6\Microchip\TCPIP Stack\ETH97J60.c
                   oldVal   0x000c3b       data     static E:\Users\Pal\DEVICES\Kern_dev_\SOFT2\MCHP\Kern_v6\Microchip\TCPIP Stack\ETH97J60.c
                  options   0x000c00       data     static E:\Users\Pal\DEVICES\Kern_dev_\SOFT2\MCHP\Kern_v6\Microchip\TCPIP Stack\TCP.c
              optionsSize   0x000bc9       data     static E:\Users\Pal\DEVICES\Kern_dev_\SOFT2\MCHP\Kern_v6\Microchip\TCPIP Stack\TCP.c
                        p   0x000bc7       data     static E:\Users\Pal\DEVICES\Kern_dev_\SOFT2\MCHP\Kern_v6\Microchip\TCPIP Stack\UDP.c
                        p   0x000bc0       data     static E:\Users\Pal\DEVICES\Kern_dev_\SOFT2\MCHP\Kern_v6\Microchip\TCPIP Stack\UDP.c
                        p   0x0002fe       data     static E:\Users\Pal\DEVICES\Kern_dev_\SOFT2\MCHP\Kern_v6\Microchip\TCPIP Stack\ARP.c
                        p   0x000c61       data     static E:\Users\Pal\DEVICES\Kern_dev_\SOFT2\MCHP\Kern_v6\Microchip\TCPIP Stack\UDP.c
               pAppConfig   0x00066f       data     static E:\Users\Pal\DEVICES\Kern_dev_\SOFT2\MCHP\Kern_v6\Kern\Main.c
               pCommunity   0x000ba5       data     static E:\Users\Pal\DEVICES\Kern_dev_\SOFT2\MCHP\Kern_v6\Microchip\TCPIP Stack\SNMP.c
                pOIDValue   0x000bb9       data     static E:\Users\Pal\DEVICES\Kern_dev_\SOFT2\MCHP\Kern_v6\Microchip\TCPIP Stack\SNMP.c
                pOIDValue   0x000c1c       data     static E:\Users\Pal\DEVICES\Kern_dev_\SOFT2\MCHP\Kern_v6\Microchip\TCPIP Stack\SNMP.c
                    pRead   0x000ba5       data     static E:\Users\Pal\DEVICES\Kern_dev_\SOFT2\MCHP\Kern_v6\Microchip\TCPIP Stack\HTTP2.c
                   pWrite   0x000ba7       data     static E:\Users\Pal\DEVICES\Kern_dev_\SOFT2\MCHP\Kern_v6\Microchip\TCPIP Stack\HTTP2.c
                   packet   0x000ba5       data     static E:\Users\Pal\DEVICES\Kern_dev_\SOFT2\MCHP\Kern_v6\Microchip\TCPIP Stack\ARP.c
                   packet   0x000ba5       data     static E:\Users\Pal\DEVICES\Kern_dev_\SOFT2\MCHP\Kern_v6\Microchip\TCPIP Stack\ARP.c
                   packet   0x000ba5       data     static E:\Users\Pal\DEVICES\Kern_dev_\SOFT2\MCHP\Kern_v6\Microchip\TCPIP Stack\ARP.c
                   packet   0x0002ec       data     static E:\Users\Pal\DEVICES\Kern_dev_\SOFT2\MCHP\Kern_v6\Microchip\TCPIP Stack\ARP.c
    packetStructLenOffset   0x000bd4       data     static E:\Users\Pal\DEVICES\Kern_dev_\SOFT2\MCHP\Kern_v6\Microchip\TCPIP Stack\SNMP.c
    packetStructLenOffset   0x00094a       data     static E:\Users\Pal\DEVICES\Kern_dev_\SOFT2\MCHP\Kern_v6\Microchip\TCPIP Stack\SNMP.c
         param_desc_table   0x000700       data     extern E:\Users\Pal\DEVICES\Kern_dev_\SOFT2\MCHP\Kern_v6\Kern\ParamsTable.c
             partialMatch   0x000bbf       data     static E:\Users\Pal\DEVICES\Kern_dev_\SOFT2\MCHP\Kern_v6\Microchip\TCPIP Stack\UDP.c
             partialMatch   0x000bcb       data     static E:\Users\Pal\DEVICES\Kern_dev_\SOFT2\MCHP\Kern_v6\Microchip\TCPIP Stack\TCP.c
                      pdu   0x00057b       data     static E:\Users\Pal\DEVICES\Kern_dev_\SOFT2\MCHP\Kern_v6\Microchip\TCPIP Stack\SNMP.c
                      pdu   0x000ba9       data     static E:\Users\Pal\DEVICES\Kern_dev_\SOFT2\MCHP\Kern_v6\Microchip\TCPIP Stack\SNMP.c
                 pduDbPtr   0x000554       data     static E:\Users\Pal\DEVICES\Kern_dev_\SOFT2\MCHP\Kern_v6\Microchip\TCPIP Stack\SNMP.c
                 pduDbPtr   0x00054d       data     static E:\Users\Pal\DEVICES\Kern_dev_\SOFT2\MCHP\Kern_v6\Microchip\TCPIP Stack\SNMP.c
                 pduDbPtr   0x00054b       data     static E:\Users\Pal\DEVICES\Kern_dev_\SOFT2\MCHP\Kern_v6\Microchip\TCPIP Stack\SNMP.c
                 pduDbPtr   0x000564       data     static E:\Users\Pal\DEVICES\Kern_dev_\SOFT2\MCHP\Kern_v6\Microchip\TCPIP Stack\SNMP.c
                 pduDbPtr   0x000545       data     static E:\Users\Pal\DEVICES\Kern_dev_\SOFT2\MCHP\Kern_v6\Microchip\TCPIP Stack\SNMP.c
                 pduDbPtr   0x00056c       data     static E:\Users\Pal\DEVICES\Kern_dev_\SOFT2\MCHP\Kern_v6\Microchip\TCPIP Stack\SNMP.c
                 pduDbPtr   0x0005a6       data     static E:\Users\Pal\DEVICES\Kern_dev_\SOFT2\MCHP\Kern_v6\Microchip\TCPIP Stack\SNMP.c
                 pduDbPtr   0x00059d       data     static E:\Users\Pal\DEVICES\Kern_dev_\SOFT2\MCHP\Kern_v6\Microchip\TCPIP Stack\SNMP.c
                pduInfoDB   0x000cc4       data     static E:\Users\Pal\DEVICES\Kern_dev_\SOFT2\MCHP\Kern_v6\Microchip\TCPIP Stack\SNMP.c
             pduLenOffset   0x000bd6       data     static E:\Users\Pal\DEVICES\Kern_dev_\SOFT2\MCHP\Kern_v6\Microchip\TCPIP Stack\SNMP.c
                   pduPtr   0x000b98       data     static E:\Users\Pal\DEVICES\Kern_dev_\SOFT2\MCHP\Kern_v6\Kern\CustomSNMPApp.c
       pduStructLenOffset   0x00094c       data     static E:\Users\Pal\DEVICES\Kern_dev_\SOFT2\MCHP\Kern_v6\Microchip\TCPIP Stack\SNMP.c
                   pdulen   0x0005ae       data     static E:\Users\Pal\DEVICES\Kern_dev_\SOFT2\MCHP\Kern_v6\Microchip\TCPIP Stack\SNMP.c
                 pin_temp   0x000ba5       data     static E:\Users\Pal\DEVICES\Kern_dev_\SOFT2\MCHP\Kern_v6\Kern\PAL_pUART.c
                 pin_temp   0x000cee       data     static E:\Users\Pal\DEVICES\Kern_dev_\SOFT2\MCHP\Kern_v6\Kern\Main.c
               prevOffset   0x000c01       data     static E:\Users\Pal\DEVICES\Kern_dev_\SOFT2\MCHP\Kern_v6\Microchip\TCPIP Stack\SNMP.c
               prevOffset   0x000c3d       data     static E:\Users\Pal\DEVICES\Kern_dev_\SOFT2\MCHP\Kern_v6\Microchip\TCPIP Stack\SNMP.c
               prevOffset   0x000952       data     static E:\Users\Pal\DEVICES\Kern_dev_\SOFT2\MCHP\Kern_v6\Microchip\TCPIP Stack\SNMP.c
               prevOffset   0x000c27       data     static E:\Users\Pal\DEVICES\Kern_dev_\SOFT2\MCHP\Kern_v6\Microchip\TCPIP Stack\SNMP.c
               prevOffset   0x000c33       data     static E:\Users\Pal\DEVICES\Kern_dev_\SOFT2\MCHP\Kern_v6\Microchip\TCPIP Stack\SNMP.c
               prevOffset   0x000bd2       data     static E:\Users\Pal\DEVICES\Kern_dev_\SOFT2\MCHP\Kern_v6\Microchip\TCPIP Stack\SNMP.c
         prevSnmpRxOffset   0x000bde       data     static E:\Users\Pal\DEVICES\Kern_dev_\SOFT2\MCHP\Kern_v6\Microchip\TCPIP Stack\SNMP.c
          prevUDPRxOffset   0x000c02       data     static E:\Users\Pal\DEVICES\Kern_dev_\SOFT2\MCHP\Kern_v6\Microchip\TCPIP Stack\SNMP.c
                     prom   0x0003f4       data     static C:\MCC18\src\traditional\startup\c018i.c
                 protocol   0x0008ec       data     static E:\Users\Pal\DEVICES\Kern_dev_\SOFT2\MCHP\Kern_v6\Microchip\TCPIP Stack\IP.c
                 protocol   0x0008e6       data     static E:\Users\Pal\DEVICES\Kern_dev_\SOFT2\MCHP\Kern_v6\Microchip\TCPIP Stack\IP.c
             pseudoHeader   0x000c65       data     static E:\Users\Pal\DEVICES\Kern_dev_\SOFT2\MCHP\Kern_v6\Microchip\TCPIP Stack\UDP.c
             pseudoHeader   0x000bae       data     static E:\Users\Pal\DEVICES\Kern_dev_\SOFT2\MCHP\Kern_v6\Microchip\TCPIP Stack\UDP.c
             pseudoHeader   0x000bb9       data     static E:\Users\Pal\DEVICES\Kern_dev_\SOFT2\MCHP\Kern_v6\Microchip\TCPIP Stack\TCP.c
             pseudoHeader   0x000c04       data     static E:\Users\Pal\DEVICES\Kern_dev_\SOFT2\MCHP\Kern_v6\Microchip\TCPIP Stack\TCP.c
                    ptemp   0x000bc6       data     static E:\Users\Pal\DEVICES\Kern_dev_\SOFT2\MCHP\Kern_v6\Microchip\TCPIP Stack\SNMP.c
                      ptr   0x000be9       data     static E:\Users\Pal\DEVICES\Kern_dev_\SOFT2\MCHP\Kern_v6\Kern\CustomHTTPApp.c
                      ptr   0x0004bd       data     static E:\Users\Pal\DEVICES\Kern_dev_\SOFT2\MCHP\Kern_v6\Kern\PAL_pUART.c
                      ptr   0x000c50       data     static E:\Users\Pal\DEVICES\Kern_dev_\SOFT2\MCHP\Kern_v6\Microchip\TCPIP Stack\MPFS2.c
                      ptr   0x000bba       data     static E:\Users\Pal\DEVICES\Kern_dev_\SOFT2\MCHP\Kern_v6\Microchip\TCPIP Stack\MPFS2.c
                      ptr   0x000c02       data     static E:\Users\Pal\DEVICES\Kern_dev_\SOFT2\MCHP\Kern_v6\Kern\CustomSNMPApp.c
           ptrBaseAddress   0x000bbf       data     static E:\Users\Pal\DEVICES\Kern_dev_\SOFT2\MCHP\Kern_v6\Microchip\TCPIP Stack\TCP.c
                  ptrDest   0x0003bf       data     static E:\Users\Pal\DEVICES\Kern_dev_\SOFT2\MCHP\Kern_v6\Microchip\TCPIP Stack\TCP.c
                  ptrHead   0x000ba7       data     static E:\Users\Pal\DEVICES\Kern_dev_\SOFT2\MCHP\Kern_v6\Microchip\TCPIP Stack\TCP.c
              ptrLocation   0x000bab       data     static E:\Users\Pal\DEVICES\Kern_dev_\SOFT2\MCHP\Kern_v6\Microchip\TCPIP Stack\TCP.c
              ptrLocation   0x000bab       data     static E:\Users\Pal\DEVICES\Kern_dev_\SOFT2\MCHP\Kern_v6\Microchip\TCPIP Stack\TCP.c
                  ptrRead   0x000ba5       data     static E:\Users\Pal\DEVICES\Kern_dev_\SOFT2\MCHP\Kern_v6\Microchip\TCPIP Stack\TCP.c
                  ptrRead   0x000ba5       data     static E:\Users\Pal\DEVICES\Kern_dev_\SOFT2\MCHP\Kern_v6\Microchip\TCPIP Stack\TCP.c
                  ptrRead   0x000ba5       data     static E:\Users\Pal\DEVICES\Kern_dev_\SOFT2\MCHP\Kern_v6\Microchip\TCPIP Stack\TCP.c
                ptrSource   0x0003c2       data     static E:\Users\Pal\DEVICES\Kern_dev_\SOFT2\MCHP\Kern_v6\Microchip\TCPIP Stack\TCP.c
                  ptrTemp   0x000ba5       data     static E:\Users\Pal\DEVICES\Kern_dev_\SOFT2\MCHP\Kern_v6\Microchip\TCPIP Stack\TCP.c
                   ptroid   0x000bc8       data     static E:\Users\Pal\DEVICES\Kern_dev_\SOFT2\MCHP\Kern_v6\Microchip\TCPIP Stack\SNMP.c
               ptx_buffer   0x000440       data     extern E:\Users\Pal\DEVICES\Kern_dev_\SOFT2\MCHP\Kern_v6\Kern\PAL_pUART.c
              ptx_counter   0x00046c       data     extern E:\Users\Pal\DEVICES\Kern_dev_\SOFT2\MCHP\Kern_v6\Kern\PAL_pUART.c
             ptx_rd_index   0x00046a       data     extern E:\Users\Pal\DEVICES\Kern_dev_\SOFT2\MCHP\Kern_v6\Kern\PAL_pUART.c
             ptx_wr_index   0x000468       data     extern E:\Users\Pal\DEVICES\Kern_dev_\SOFT2\MCHP\Kern_v6\Kern\PAL_pUART.c
                puart_cnt   0x0004c1       data     static E:\Users\Pal\DEVICES\Kern_dev_\SOFT2\MCHP\Kern_v6\Kern\PAL_pUART.c
          puart_data_temp   0x000470       data     extern E:\Users\Pal\DEVICES\Kern_dev_\SOFT2\MCHP\Kern_v6\Kern\PAL_pUART.c
          puart_rx_buffer   0x000400       data     extern E:\Users\Pal\DEVICES\Kern_dev_\SOFT2\MCHP\Kern_v6\Kern\PAL_pUART.c
         puart_rx_counter   0x000464       data     extern E:\Users\Pal\DEVICES\Kern_dev_\SOFT2\MCHP\Kern_v6\Kern\PAL_pUART.c
        puart_rx_rd_index   0x000462       data     extern E:\Users\Pal\DEVICES\Kern_dev_\SOFT2\MCHP\Kern_v6\Kern\PAL_pUART.c
        puart_rx_wr_index   0x000460       data     extern E:\Users\Pal\DEVICES\Kern_dev_\SOFT2\MCHP\Kern_v6\Kern\PAL_pUART.c
       puart_rx_wr_index_   0x000466       data     extern E:\Users\Pal\DEVICES\Kern_dev_\SOFT2\MCHP\Kern_v6\Kern\PAL_pUART.c
         puart_silent_cnt   0x0004b2       data     extern E:\Users\Pal\DEVICES\Kern_dev_\SOFT2\MCHP\Kern_v6\Kern\PAL_pUART.c
                 putBytes   0x000c03       data     static E:\Users\Pal\DEVICES\Kern_dev_\SOFT2\MCHP\Kern_v6\Microchip\TCPIP Stack\SNMP.c
                 putBytes   0x000c02       data     static E:\Users\Pal\DEVICES\Kern_dev_\SOFT2\MCHP\Kern_v6\Microchip\TCPIP Stack\SNMP.c
         pvtObjIdentifier   0x000c02       data     static E:\Users\Pal\DEVICES\Kern_dev_\SOFT2\MCHP\Kern_v6\Microchip\TCPIP Stack\SNMP.c
                       r1   0x000bb2       data     static E:\Users\Pal\DEVICES\Kern_dev_\SOFT2\MCHP\Kern_v6\Kern\PAL_pUART.c
             randomResult   0x000bb0       data     static E:\Users\Pal\DEVICES\Kern_dev_\SOFT2\MCHP\Kern_v6\Microchip\TCPIP Stack\Helpers.c
                      rec   0x00059f       data     static E:\Users\Pal\DEVICES\Kern_dev_\SOFT2\MCHP\Kern_v6\Microchip\TCPIP Stack\SNMP.c
                      rec   0x000552       data     static E:\Users\Pal\DEVICES\Kern_dev_\SOFT2\MCHP\Kern_v6\Microchip\TCPIP Stack\SNMP.c
                      rec   0x000571       data     static E:\Users\Pal\DEVICES\Kern_dev_\SOFT2\MCHP\Kern_v6\Microchip\TCPIP Stack\SNMP.c
                      rec   0x00055c       data     static E:\Users\Pal\DEVICES\Kern_dev_\SOFT2\MCHP\Kern_v6\Microchip\TCPIP Stack\SNMP.c
                      rec   0x0005a3       data     static E:\Users\Pal\DEVICES\Kern_dev_\SOFT2\MCHP\Kern_v6\Microchip\TCPIP Stack\SNMP.c
                      rec   0x000598       data     static E:\Users\Pal\DEVICES\Kern_dev_\SOFT2\MCHP\Kern_v6\Microchip\TCPIP Stack\SNMP.c
                      rec   0x00058e       data     static E:\Users\Pal\DEVICES\Kern_dev_\SOFT2\MCHP\Kern_v6\Microchip\TCPIP Stack\SNMP.c
                      rec   0x000573       data     static E:\Users\Pal\DEVICES\Kern_dev_\SOFT2\MCHP\Kern_v6\Microchip\TCPIP Stack\SNMP.c
                      rec   0x000bbd       data     static E:\Users\Pal\DEVICES\Kern_dev_\SOFT2\MCHP\Kern_v6\Microchip\TCPIP Stack\SNMP.c
                      ref   0x000c36       data     static E:\Users\Pal\DEVICES\Kern_dev_\SOFT2\MCHP\Kern_v6\Microchip\TCPIP Stack\SNMP.c
                      ref   0x000ba1       data     static E:\Users\Pal\DEVICES\Kern_dev_\SOFT2\MCHP\Kern_v6\Kern\CustomSNMPApp.c
                      ref   0x000cd1       data     static E:\Users\Pal\DEVICES\Kern_dev_\SOFT2\MCHP\Kern_v6\Microchip\TCPIP Stack\SNMP.c
                      ref   0x000b8e       data     static E:\Users\Pal\DEVICES\Kern_dev_\SOFT2\MCHP\Kern_v6\Kern\CustomSNMPApp.c
                      ref   0x000c37       data     static E:\Users\Pal\DEVICES\Kern_dev_\SOFT2\MCHP\Kern_v6\Microchip\TCPIP Stack\SNMP.c
                      ref   0x000c01       data     static E:\Users\Pal\DEVICES\Kern_dev_\SOFT2\MCHP\Kern_v6\Microchip\TCPIP Stack\SNMP.c
         remHostIPAddress   0x000bf1       data     static E:\Users\Pal\DEVICES\Kern_dev_\SOFT2\MCHP\Kern_v6\Kern\CustomSNMPApp.c
                remHostId   0x000b6b       data     static E:\Users\Pal\DEVICES\Kern_dev_\SOFT2\MCHP\Kern_v6\Kern\CustomSNMPApp.c
         remHostIpAddrPtr   0x000bc1       data     static E:\Users\Pal\DEVICES\Kern_dev_\SOFT2\MCHP\Kern_v6\Microchip\TCPIP Stack\SNMP.c
         remHostIpAddrPtr   0x000baf       data     static E:\Users\Pal\DEVICES\Kern_dev_\SOFT2\MCHP\Kern_v6\Microchip\TCPIP Stack\SNMP.c
         remHostIpAddrPtr   0x000bf5       data     static E:\Users\Pal\DEVICES\Kern_dev_\SOFT2\MCHP\Kern_v6\Kern\CustomSNMPApp.c
               remHostTmp   0x000bf7       data     static E:\Users\Pal\DEVICES\Kern_dev_\SOFT2\MCHP\Kern_v6\Kern\CustomSNMPApp.c
                   remote   0x0004d2       data     static E:\Users\Pal\DEVICES\Kern_dev_\SOFT2\MCHP\Kern_v6\Microchip\TCPIP Stack\ETH97J60.c
                   remote   0x0004ce       data     static E:\Users\Pal\DEVICES\Kern_dev_\SOFT2\MCHP\Kern_v6\Microchip\TCPIP Stack\ETH97J60.c
                   remote   0x0008ea       data     static E:\Users\Pal\DEVICES\Kern_dev_\SOFT2\MCHP\Kern_v6\Microchip\TCPIP Stack\IP.c
                   remote   0x0008e4       data     static E:\Users\Pal\DEVICES\Kern_dev_\SOFT2\MCHP\Kern_v6\Microchip\TCPIP Stack\IP.c
                   remote   0x0003a7       data     static E:\Users\Pal\DEVICES\Kern_dev_\SOFT2\MCHP\Kern_v6\Microchip\TCPIP Stack\TCP.c
                   remote   0x0003b1       data     static E:\Users\Pal\DEVICES\Kern_dev_\SOFT2\MCHP\Kern_v6\Microchip\TCPIP Stack\TCP.c
                   remote   0x0005c1       data     static E:\Users\Pal\DEVICES\Kern_dev_\SOFT2\MCHP\Kern_v6\Microchip\TCPIP Stack\ICMP.c
               remoteHost   0x00052d       data     static E:\Users\Pal\DEVICES\Kern_dev_\SOFT2\MCHP\Kern_v6\Microchip\TCPIP Stack\SNMP.c
               remoteHost   0x000538       data     static E:\Users\Pal\DEVICES\Kern_dev_\SOFT2\MCHP\Kern_v6\Microchip\TCPIP Stack\SNMP.c
               remoteNode   0x0002de       data     static E:\Users\Pal\DEVICES\Kern_dev_\SOFT2\MCHP\Kern_v6\Microchip\TCPIP Stack\UDP.c
               remoteNode   0x0000f5       data     extern E:\Users\Pal\DEVICES\Kern_dev_\SOFT2\MCHP\Kern_v6\Microchip\TCPIP Stack\StackTsk.c
               remoteNode   0x0002d6       data     static E:\Users\Pal\DEVICES\Kern_dev_\SOFT2\MCHP\Kern_v6\Microchip\TCPIP Stack\UDP.c
               remoteNode   0x0002b4       data     static E:\Users\Pal\DEVICES\Kern_dev_\SOFT2\MCHP\Kern_v6\Microchip\TCPIP Stack\UDP.c
               remoteNode   0x000ba5       data     static E:\Users\Pal\DEVICES\Kern_dev_\SOFT2\MCHP\Kern_v6\Microchip\TCPIP Stack\SNMP.c
               remotePort   0x0002b6       data     static E:\Users\Pal\DEVICES\Kern_dev_\SOFT2\MCHP\Kern_v6\Microchip\TCPIP Stack\UDP.c
               repeatCntr   0x000bbe       data     static E:\Users\Pal\DEVICES\Kern_dev_\SOFT2\MCHP\Kern_v6\Microchip\TCPIP Stack\SNMP.c
                reqOidPtr   0x000c07       data     static E:\Users\Pal\DEVICES\Kern_dev_\SOFT2\MCHP\Kern_v6\Microchip\TCPIP Stack\SNMP.c
                   retlen   0x000bb3       data     static E:\Users\Pal\DEVICES\Kern_dev_\SOFT2\MCHP\Kern_v6\Microchip\TCPIP Stack\SNMP.c
                    retry   0x000e78       data     static E:\Users\Pal\DEVICES\Kern_dev_\SOFT2\MCHP\Kern_v6\Kern\CustomSNMPApp.c
        rxedCommunityName   0x000bca       data     static E:\Users\Pal\DEVICES\Kern_dev_\SOFT2\MCHP\Kern_v6\Microchip\TCPIP Stack\SNMP.c
                        s   0x000bad       data     static E:\Users\Pal\DEVICES\Kern_dev_\SOFT2\MCHP\Kern_v6\Microchip\TCPIP Stack\UDP.c
                        s   0x0002bf       data     static E:\Users\Pal\DEVICES\Kern_dev_\SOFT2\MCHP\Kern_v6\Microchip\TCPIP Stack\UDP.c
                        s   0x0002ba       data     static E:\Users\Pal\DEVICES\Kern_dev_\SOFT2\MCHP\Kern_v6\Microchip\TCPIP Stack\UDP.c
                        s   0x000bc6       data     static E:\Users\Pal\DEVICES\Kern_dev_\SOFT2\MCHP\Kern_v6\Microchip\TCPIP Stack\UDP.c
                        s   0x000ba5       data     static E:\Users\Pal\DEVICES\Kern_dev_\SOFT2\MCHP\Kern_v6\Microchip\TCPIP Stack\UDP.c
                        s   0x000bbe       data     static E:\Users\Pal\DEVICES\Kern_dev_\SOFT2\MCHP\Kern_v6\Microchip\TCPIP Stack\UDP.c
                        s   0x0002cf       data     static E:\Users\Pal\DEVICES\Kern_dev_\SOFT2\MCHP\Kern_v6\Microchip\TCPIP Stack\UDP.c
                 savedOID   0x000c01       data     static E:\Users\Pal\DEVICES\Kern_dev_\SOFT2\MCHP\Kern_v6\Microchip\TCPIP Stack\SNMP.c
             searchString   0x0007fa       data     static E:\Users\Pal\DEVICES\Kern_dev_\SOFT2\MCHP\Kern_v6\Microchip\TCPIP Stack\Helpers.c
              sequenceCnt   0x000c05       data     static E:\Users\Pal\DEVICES\Kern_dev_\SOFT2\MCHP\Kern_v6\Microchip\TCPIP Stack\SNMP.c
        sequenceRepeatCnt   0x000c06       data     static E:\Users\Pal\DEVICES\Kern_dev_\SOFT2\MCHP\Kern_v6\Microchip\TCPIP Stack\SNMP.c
                     size   0x000c3e       data     static E:\Users\Pal\DEVICES\Kern_dev_\SOFT2\MCHP\Kern_v6\Kern\CustomSNMPApp.c
                    smARP   0x0005d4       data     static E:\Users\Pal\DEVICES\Kern_dev_\SOFT2\MCHP\Kern_v6\Microchip\TCPIP Stack\ARP.c
                   smNBNS   0x0008ff       data     static E:\Users\Pal\DEVICES\Kern_dev_\SOFT2\MCHP\Kern_v6\Microchip\TCPIP Stack\NBNS.c
                   smSnmp   0x000956       data     static E:\Users\Pal\DEVICES\Kern_dev_\SOFT2\MCHP\Kern_v6\Microchip\TCPIP Stack\SNMP.c
                  smStack   0x0000f4       data     static E:\Users\Pal\DEVICES\Kern_dev_\SOFT2\MCHP\Kern_v6\Microchip\TCPIP Stack\StackTsk.c
                  smState   0x000e79       data     static E:\Users\Pal\DEVICES\Kern_dev_\SOFT2\MCHP\Kern_v6\Kern\CustomSNMPApp.c
               snmpMsgBuf   0x000baa       data     static E:\Users\Pal\DEVICES\Kern_dev_\SOFT2\MCHP\Kern_v6\Microchip\TCPIP Stack\SNMP.c
               snmpMsgLen   0x000bb1       data     static E:\Users\Pal\DEVICES\Kern_dev_\SOFT2\MCHP\Kern_v6\Microchip\TCPIP Stack\SNMP.c
               snmpPduLen   0x000c06       data     static E:\Users\Pal\DEVICES\Kern_dev_\SOFT2\MCHP\Kern_v6\Microchip\TCPIP Stack\SNMP.c
              snmpReqType   0x000c05       data     static E:\Users\Pal\DEVICES\Kern_dev_\SOFT2\MCHP\Kern_v6\Microchip\TCPIP Stack\SNMP.c
      snmpReqVarErrStatus   0x00050a       data     extern E:\Users\Pal\DEVICES\Kern_dev_\SOFT2\MCHP\Kern_v6\Microchip\TCPIP Stack\SNMP.c
                  snmpVer   0x000c04       data     static E:\Users\Pal\DEVICES\Kern_dev_\SOFT2\MCHP\Kern_v6\Microchip\TCPIP Stack\SNMP.c
            snmptrap_oids   0x000bd7       data     static E:\Users\Pal\DEVICES\Kern_dev_\SOFT2\MCHP\Kern_v6\Microchip\TCPIP Stack\SNMP.c
            snmptrap_oids   0x00093d       data     static E:\Users\Pal\DEVICES\Kern_dev_\SOFT2\MCHP\Kern_v6\Microchip\TCPIP Stack\SNMP.c
                   socket   0x000585       data     static E:\Users\Pal\DEVICES\Kern_dev_\SOFT2\MCHP\Kern_v6\Microchip\TCPIP Stack\SNMP.c
               sourceAddr   0x0004e5       data     static E:\Users\Pal\DEVICES\Kern_dev_\SOFT2\MCHP\Kern_v6\Microchip\TCPIP Stack\ETH97J60.c
                    state   0x000c60       data     static E:\Users\Pal\DEVICES\Kern_dev_\SOFT2\MCHP\Kern_v6\Microchip\TCPIP Stack\SNMP.c
                   status   0x000bf6       data     static E:\Users\Pal\DEVICES\Kern_dev_\SOFT2\MCHP\Kern_v6\Microchip\TCPIP Stack\HTTP2.c
                   status   0x000bf6       data     static E:\Users\Pal\DEVICES\Kern_dev_\SOFT2\MCHP\Kern_v6\Microchip\TCPIP Stack\HTTP2.c
                   status   0x000bf3       data     static E:\Users\Pal\DEVICES\Kern_dev_\SOFT2\MCHP\Kern_v6\Microchip\TCPIP Stack\HTTP2.c
                      str   0x0007cf       data     static E:\Users\Pal\DEVICES\Kern_dev_\SOFT2\MCHP\Kern_v6\Microchip\TCPIP Stack\Helpers.c
                      str   0x0007d3       data     static E:\Users\Pal\DEVICES\Kern_dev_\SOFT2\MCHP\Kern_v6\Microchip\TCPIP Stack\Helpers.c
             strCommunity   0x000bae       data     static E:\Users\Pal\DEVICES\Kern_dev_\SOFT2\MCHP\Kern_v6\Kern\Main.c
                  strData   0x0002ca       data     static E:\Users\Pal\DEVICES\Kern_dev_\SOFT2\MCHP\Kern_v6\Microchip\TCPIP Stack\UDP.c
                  strData   0x0002cc       data     static E:\Users\Pal\DEVICES\Kern_dev_\SOFT2\MCHP\Kern_v6\Microchip\TCPIP Stack\UDP.c
                successor   0x000bc5       data     static E:\Users\Pal\DEVICES\Kern_dev_\SOFT2\MCHP\Kern_v6\Microchip\TCPIP Stack\SNMP.c
                successor   0x000562       data     static E:\Users\Pal\DEVICES\Kern_dev_\SOFT2\MCHP\Kern_v6\Microchip\TCPIP Stack\SNMP.c
                      sum   0x000ce1       data     static E:\Users\Pal\DEVICES\Kern_dev_\SOFT2\MCHP\Kern_v6\Microchip\TCPIP Stack\Helpers.c
           sysUpTime_oids   0x000be0       data     static E:\Users\Pal\DEVICES\Kern_dev_\SOFT2\MCHP\Kern_v6\Microchip\TCPIP Stack\SNMP.c
                        t   0x000c02       data     static E:\Users\Pal\DEVICES\Kern_dev_\SOFT2\MCHP\Kern_v6\Kern\PAL_pUART.c
                        t   0x000c4f       data     static E:\Users\Pal\DEVICES\Kern_dev_\SOFT2\MCHP\Kern_v6\Microchip\TCPIP Stack\Helpers.c
                        t   0x000ba6       data     static E:\Users\Pal\DEVICES\Kern_dev_\SOFT2\MCHP\Kern_v6\Microchip\TCPIP Stack\Helpers.c
                        t   0x000ba6       data     static E:\Users\Pal\DEVICES\Kern_dev_\SOFT2\MCHP\Kern_v6\Kern\PAL_pUART.c
                        t   0x000cdd       data     static E:\Users\Pal\DEVICES\Kern_dev_\SOFT2\MCHP\Kern_v6\Kern\Main.c
                        t   0x000cea       data     static E:\Users\Pal\DEVICES\Kern_dev_\SOFT2\MCHP\Kern_v6\Kern\I2cEEPROM.c
                    tMode   0x0000e3       data     static E:\Users\Pal\DEVICES\Kern_dev_\SOFT2\MCHP\Kern_v6\Microchip\TCPIP Stack\MPFS2.c
                    t_but   0x0001ee       data     static E:\Users\Pal\DEVICES\Kern_dev_\SOFT2\MCHP\Kern_v6\Kern\Main.c
                 t_chsett   0x0001f2       data     static E:\Users\Pal\DEVICES\Kern_dev_\SOFT2\MCHP\Kern_v6\Kern\Main.c
                   t_trap   0x0001f6       data     static E:\Users\Pal\DEVICES\Kern_dev_\SOFT2\MCHP\Kern_v6\Kern\Main.c
                      tbl   0x0006f8       data     static E:\Users\Pal\DEVICES\Kern_dev_\SOFT2\MCHP\Kern_v6\Kern\ParamsTable.c
                      tbl   0x0006f4       data     static E:\Users\Pal\DEVICES\Kern_dev_\SOFT2\MCHP\Kern_v6\Kern\ParamsTable.c
                      tbl   0x0006fc       data     static E:\Users\Pal\DEVICES\Kern_dev_\SOFT2\MCHP\Kern_v6\Kern\ParamsTable.c
                      tbl   0x0006f2       data     static E:\Users\Pal\DEVICES\Kern_dev_\SOFT2\MCHP\Kern_v6\Kern\ParamsTable.c
                      tbl   0x0006e9       data     static E:\Users\Pal\DEVICES\Kern_dev_\SOFT2\MCHP\Kern_v6\Kern\ParamsTable.c
                      tbl   0x0006e5       data     static E:\Users\Pal\DEVICES\Kern_dev_\SOFT2\MCHP\Kern_v6\Kern\ParamsTable.c
                      tbl   0x0006e3       data     static E:\Users\Pal\DEVICES\Kern_dev_\SOFT2\MCHP\Kern_v6\Kern\ParamsTable.c
                      tbl   0x0006e1       data     static E:\Users\Pal\DEVICES\Kern_dev_\SOFT2\MCHP\Kern_v6\Kern\ParamsTable.c
                     temp   0x000cd2       data     static E:\Users\Pal\DEVICES\Kern_dev_\SOFT2\MCHP\Kern_v6\Microchip\TCPIP Stack\SNMP.c
                     temp   0x000c38       data     static E:\Users\Pal\DEVICES\Kern_dev_\SOFT2\MCHP\Kern_v6\Microchip\TCPIP Stack\SNMP.c
                     temp   0x000c01       data     static E:\Users\Pal\DEVICES\Kern_dev_\SOFT2\MCHP\Kern_v6\Microchip\TCPIP Stack\SNMP.c
                     temp   0x000c65       data     static E:\Users\Pal\DEVICES\Kern_dev_\SOFT2\MCHP\Kern_v6\Microchip\TCPIP Stack\MPFS2.c
                     temp   0x000c29       data     static E:\Users\Pal\DEVICES\Kern_dev_\SOFT2\MCHP\Kern_v6\Microchip\TCPIP Stack\SNMP.c
                     temp   0x000ba6       data     static E:\Users\Pal\DEVICES\Kern_dev_\SOFT2\MCHP\Kern_v6\Microchip\TCPIP Stack\SNMP.c
                     temp   0x000c37       data     static E:\Users\Pal\DEVICES\Kern_dev_\SOFT2\MCHP\Kern_v6\Microchip\TCPIP Stack\SNMP.c
                     temp   0x000bb8       data     static E:\Users\Pal\DEVICES\Kern_dev_\SOFT2\MCHP\Kern_v6\Kern\PAL_pUART.c
                     temp   0x000bbb       data     static E:\Users\Pal\DEVICES\Kern_dev_\SOFT2\MCHP\Kern_v6\Microchip\TCPIP Stack\ETH97J60.c
                   temp11   0x000ba5       data     static E:\Users\Pal\DEVICES\Kern_dev_\SOFT2\MCHP\Kern_v6\Kern\PAL_pUART.c
                 tempCntr   0x000bb5       data     static E:\Users\Pal\DEVICES\Kern_dev_\SOFT2\MCHP\Kern_v6\Microchip\TCPIP Stack\SNMP.c
                 tempData   0x000ba5       data     static E:\Users\Pal\DEVICES\Kern_dev_\SOFT2\MCHP\Kern_v6\Microchip\TCPIP Stack\SNMP.c
                 tempData   0x000bb9       data     static E:\Users\Pal\DEVICES\Kern_dev_\SOFT2\MCHP\Kern_v6\Microchip\TCPIP Stack\SNMP.c
                 tempData   0x000bb9       data     static E:\Users\Pal\DEVICES\Kern_dev_\SOFT2\MCHP\Kern_v6\Microchip\TCPIP Stack\SNMP.c
                 tempData   0x000bb9       data     static E:\Users\Pal\DEVICES\Kern_dev_\SOFT2\MCHP\Kern_v6\Microchip\TCPIP Stack\SNMP.c
                 tempData   0x000c0d       data     static E:\Users\Pal\DEVICES\Kern_dev_\SOFT2\MCHP\Kern_v6\Microchip\TCPIP Stack\SNMP.c
                 tempData   0x000c0a       data     static E:\Users\Pal\DEVICES\Kern_dev_\SOFT2\MCHP\Kern_v6\Microchip\TCPIP Stack\SNMP.c
                tempHNode   0x000c10       data     static E:\Users\Pal\DEVICES\Kern_dev_\SOFT2\MCHP\Kern_v6\Microchip\TCPIP Stack\SNMP.c
                  tempLen   0x000c0e       data     static E:\Users\Pal\DEVICES\Kern_dev_\SOFT2\MCHP\Kern_v6\Microchip\TCPIP Stack\SNMP.c
                  tempLen   0x000c01       data     static E:\Users\Pal\DEVICES\Kern_dev_\SOFT2\MCHP\Kern_v6\Microchip\TCPIP Stack\SNMP.c
                  tempLen   0x000c08       data     static E:\Users\Pal\DEVICES\Kern_dev_\SOFT2\MCHP\Kern_v6\Microchip\TCPIP Stack\SNMP.c
                  tempLen   0x000ba5       data     static E:\Users\Pal\DEVICES\Kern_dev_\SOFT2\MCHP\Kern_v6\Microchip\TCPIP Stack\SNMP.c
                  tempLen   0x000be2       data     static E:\Users\Pal\DEVICES\Kern_dev_\SOFT2\MCHP\Kern_v6\Microchip\TCPIP Stack\SNMP.c
                  tempLen   0x000bba       data     static E:\Users\Pal\DEVICES\Kern_dev_\SOFT2\MCHP\Kern_v6\Microchip\TCPIP Stack\SNMP.c
                  tempLen   0x000c06       data     static E:\Users\Pal\DEVICES\Kern_dev_\SOFT2\MCHP\Kern_v6\Microchip\TCPIP Stack\SNMP.c
                  tempLen   0x000bbd       data     static E:\Users\Pal\DEVICES\Kern_dev_\SOFT2\MCHP\Kern_v6\Microchip\TCPIP Stack\SNMP.c
                  tempLen   0x000bba       data     static E:\Users\Pal\DEVICES\Kern_dev_\SOFT2\MCHP\Kern_v6\Microchip\TCPIP Stack\SNMP.c
              tempLocalIP   0x000c14       data     static E:\Users\Pal\DEVICES\Kern_dev_\SOFT2\MCHP\Kern_v6\Microchip\TCPIP Stack\StackTsk.c
         tempNonRepeators   0x000bbc       data     static E:\Users\Pal\DEVICES\Kern_dev_\SOFT2\MCHP\Kern_v6\Microchip\TCPIP Stack\SNMP.c
               tempOffset   0x000bbb       data     static E:\Users\Pal\DEVICES\Kern_dev_\SOFT2\MCHP\Kern_v6\Microchip\TCPIP Stack\SNMP.c
                  tempPtr   0x000bb7       data     static E:\Users\Pal\DEVICES\Kern_dev_\SOFT2\MCHP\Kern_v6\Microchip\TCPIP Stack\SNMP.c
             tempSavedOID   0x000c02       data     static E:\Users\Pal\DEVICES\Kern_dev_\SOFT2\MCHP\Kern_v6\Microchip\TCPIP Stack\SNMP.c
             tempServerID   0x000baa       data     static E:\Users\Pal\DEVICES\Kern_dev_\SOFT2\MCHP\Kern_v6\Microchip\TCPIP Stack\DHCP.c
             tempTxOffset   0x000bce       data     static E:\Users\Pal\DEVICES\Kern_dev_\SOFT2\MCHP\Kern_v6\Microchip\TCPIP Stack\SNMP.c
                  tempVal   0x000c6a       data     static E:\Users\Pal\DEVICES\Kern_dev_\SOFT2\MCHP\Kern_v6\Microchip\TCPIP Stack\SNMP.c
                temp_char   0x000bb1       data     static E:\Users\Pal\DEVICES\Kern_dev_\SOFT2\MCHP\Kern_v6\Kern\PAL_pUART.c
                  temp_tx   0x000ba5       data     static E:\Users\Pal\DEVICES\Kern_dev_\SOFT2\MCHP\Kern_v6\Kern\PAL_pUART.c
                  templen   0x000bc4       data     static E:\Users\Pal\DEVICES\Kern_dev_\SOFT2\MCHP\Kern_v6\Microchip\TCPIP Stack\SNMP.c
                 testcell   0x000ce9       data     static E:\Users\Pal\DEVICES\Kern_dev_\SOFT2\MCHP\Kern_v6\Kern\ParamsTable.c
                 testcell   0x000ce3       data     static E:\Users\Pal\DEVICES\Kern_dev_\SOFT2\MCHP\Kern_v6\Kern\ParamsTable.c
                 timeLock   0x000e77       data     static E:\Users\Pal\DEVICES\Kern_dev_\SOFT2\MCHP\Kern_v6\Kern\CustomSNMPApp.c
                timeStamp   0x000bb1       data     static E:\Users\Pal\DEVICES\Kern_dev_\SOFT2\MCHP\Kern_v6\Kern\CustomSNMPApp.c
                time_cnt0   0x000663       data     extern E:\Users\Pal\DEVICES\Kern_dev_\SOFT2\MCHP\Kern_v6\Kern\Main.c
                time_cnt1   0x000664       data     extern E:\Users\Pal\DEVICES\Kern_dev_\SOFT2\MCHP\Kern_v6\Kern\Main.c
                time_cnt2   0x000665       data     extern E:\Users\Pal\DEVICES\Kern_dev_\SOFT2\MCHP\Kern_v6\Kern\Main.c
                time_cnt3   0x000666       data     extern E:\Users\Pal\DEVICES\Kern_dev_\SOFT2\MCHP\Kern_v6\Kern\Main.c
                time_cnt4   0x000667       data     extern E:\Users\Pal\DEVICES\Kern_dev_\SOFT2\MCHP\Kern_v6\Kern\Main.c
                time_temp   0x00065f       data     extern E:\Users\Pal\DEVICES\Kern_dev_\SOFT2\MCHP\Kern_v6\Kern\Main.c
                timestamp   0x000534       data     static E:\Users\Pal\DEVICES\Kern_dev_\SOFT2\MCHP\Kern_v6\Microchip\TCPIP Stack\SNMP.c
                      tmp   0x000ba7       data     static E:\Users\Pal\DEVICES\Kern_dev_\SOFT2\MCHP\Kern_v6\Kern\ParamsTable.c
                      tmp   0x000bab       data     static E:\Users\Pal\DEVICES\Kern_dev_\SOFT2\MCHP\Kern_v6\Kern\CustomHTTPApp.c
             tmpAppConfig   0x000c01       data     static E:\Users\Pal\DEVICES\Kern_dev_\SOFT2\MCHP\Kern_v6\Kern\Main.c
                  tmpMess   0x000bff       data     static E:\Users\Pal\DEVICES\Kern_dev_\SOFT2\MCHP\Kern_v6\Kern\CustomSNMPApp.c
                 toRotate   0x0007ef       data     extern E:\Users\Pal\DEVICES\Kern_dev_\SOFT2\MCHP\Kern_v6\Microchip\TCPIP Stack\Helpers.c
                 trapInfo   0x000e05       data     extern E:\Users\Pal\DEVICES\Kern_dev_\SOFT2\MCHP\Kern_v6\Kern\CustomSNMPApp.c
                  trapVar   0x000b7b       data     static E:\Users\Pal\DEVICES\Kern_dev_\SOFT2\MCHP\Kern_v6\Kern\CustomSNMPApp.c
                  trapVar   0x000ba5       data     static E:\Users\Pal\DEVICES\Kern_dev_\SOFT2\MCHP\Kern_v6\Kern\CustomSNMPApp.c
           trapVarBindLen   0x000be7       data     static E:\Users\Pal\DEVICES\Kern_dev_\SOFT2\MCHP\Kern_v6\Microchip\TCPIP Stack\SNMP.c
            trap_argument   0x000bb6       data     static E:\Users\Pal\DEVICES\Kern_dev_\SOFT2\MCHP\Kern_v6\Kern\PAL_pUART.c
                 trap_cnt   0x00066e       data     extern E:\Users\Pal\DEVICES\Kern_dev_\SOFT2\MCHP\Kern_v6\Kern\Main.c
                     type   0x000ba8       data     static E:\Users\Pal\DEVICES\Kern_dev_\SOFT2\MCHP\Kern_v6\Microchip\TCPIP Stack\DHCP.c
                     type   0x0004d0       data     static E:\Users\Pal\DEVICES\Kern_dev_\SOFT2\MCHP\Kern_v6\Microchip\TCPIP Stack\ETH97J60.c
                     type   0x0004d4       data     static E:\Users\Pal\DEVICES\Kern_dev_\SOFT2\MCHP\Kern_v6\Microchip\TCPIP Stack\ETH97J60.c
                       ul   0x0000dc       data     static E:\Users\Pal\DEVICES\Kern_dev_\SOFT2\MCHP\Kern_v6\Microchip\TCPIP Stack\MPFS2.c
                        v   0x0002c0       data     static E:\Users\Pal\DEVICES\Kern_dev_\SOFT2\MCHP\Kern_v6\Microchip\TCPIP Stack\UDP.c
                        v   0x0007e5       data     static E:\Users\Pal\DEVICES\Kern_dev_\SOFT2\MCHP\Kern_v6\Microchip\TCPIP Stack\Helpers.c
                        v   0x0007e7       data     static E:\Users\Pal\DEVICES\Kern_dev_\SOFT2\MCHP\Kern_v6\Microchip\TCPIP Stack\Helpers.c
                        v   0x000ba5       data     static E:\Users\Pal\DEVICES\Kern_dev_\SOFT2\MCHP\Kern_v6\Microchip\TCPIP Stack\DHCP.c
                        v   0x0002d0       data     static E:\Users\Pal\DEVICES\Kern_dev_\SOFT2\MCHP\Kern_v6\Microchip\TCPIP Stack\UDP.c
                        v   0x000c3f       data     static E:\Users\Pal\DEVICES\Kern_dev_\SOFT2\MCHP\Kern_v6\Microchip\TCPIP Stack\SNMP.c
                        v   0x000556       data     static E:\Users\Pal\DEVICES\Kern_dev_\SOFT2\MCHP\Kern_v6\Microchip\TCPIP Stack\SNMP.c
                        v   0x000586       data     static E:\Users\Pal\DEVICES\Kern_dev_\SOFT2\MCHP\Kern_v6\Microchip\TCPIP Stack\SNMP.c
                        v   0x000c11       data     static E:\Users\Pal\DEVICES\Kern_dev_\SOFT2\MCHP\Kern_v6\Microchip\TCPIP Stack\SNMP.c
                        v   0x000568       data     static E:\Users\Pal\DEVICES\Kern_dev_\SOFT2\MCHP\Kern_v6\Microchip\TCPIP Stack\SNMP.c
                vBitCount   0x000ba5       data     static E:\Users\Pal\DEVICES\Kern_dev_\SOFT2\MCHP\Kern_v6\Microchip\TCPIP Stack\Helpers.c
                  vBuffer   0x000382       data     static E:\Users\Pal\DEVICES\Kern_dev_\SOFT2\MCHP\Kern_v6\Microchip\TCPIP Stack\TCP.c
                  vBuffer   0x000ba5       data     static E:\Users\Pal\DEVICES\Kern_dev_\SOFT2\MCHP\Kern_v6\Microchip\TCPIP Stack\TCP.c
                vDestType   0x0003c1       data     static E:\Users\Pal\DEVICES\Kern_dev_\SOFT2\MCHP\Kern_v6\Microchip\TCPIP Stack\TCP.c
                   vFlags   0x000bc4       data     static E:\Users\Pal\DEVICES\Kern_dev_\SOFT2\MCHP\Kern_v6\Microchip\TCPIP Stack\TCP.c
                   vFlags   0x0003be       data     static E:\Users\Pal\DEVICES\Kern_dev_\SOFT2\MCHP\Kern_v6\Microchip\TCPIP Stack\TCP.c
               vInterface   0x0003ee       data     static E:\Users\Pal\DEVICES\Kern_dev_\SOFT2\MCHP\Kern_v6\Microchip\TCPIP Stack\DHCP.c
               vInterface   0x0003eb       data     static E:\Users\Pal\DEVICES\Kern_dev_\SOFT2\MCHP\Kern_v6\Microchip\TCPIP Stack\DHCP.c
               vInterface   0x0003ef       data     static E:\Users\Pal\DEVICES\Kern_dev_\SOFT2\MCHP\Kern_v6\Microchip\TCPIP Stack\DHCP.c
               vInterface   0x0003ec       data     static E:\Users\Pal\DEVICES\Kern_dev_\SOFT2\MCHP\Kern_v6\Microchip\TCPIP Stack\DHCP.c
               vInterface   0x0003ed       data     static E:\Users\Pal\DEVICES\Kern_dev_\SOFT2\MCHP\Kern_v6\Microchip\TCPIP Stack\DHCP.c
               vInterface   0x0003f1       data     static E:\Users\Pal\DEVICES\Kern_dev_\SOFT2\MCHP\Kern_v6\Microchip\TCPIP Stack\DHCP.c
               vInterface   0x0003f0       data     static E:\Users\Pal\DEVICES\Kern_dev_\SOFT2\MCHP\Kern_v6\Microchip\TCPIP Stack\DHCP.c
                  vMedium   0x000bc1       data     static E:\Users\Pal\DEVICES\Kern_dev_\SOFT2\MCHP\Kern_v6\Microchip\TCPIP Stack\TCP.c
                  vOption   0x000be7       data     static E:\Users\Pal\DEVICES\Kern_dev_\SOFT2\MCHP\Kern_v6\Microchip\TCPIP Stack\TCP.c
            vOptionsBytes   0x000be6       data     static E:\Users\Pal\DEVICES\Kern_dev_\SOFT2\MCHP\Kern_v6\Microchip\TCPIP Stack\TCP.c
          vRemoteHostType   0x00034a       data     static E:\Users\Pal\DEVICES\Kern_dev_\SOFT2\MCHP\Kern_v6\Microchip\TCPIP Stack\TCP.c
               vSendFlags   0x0003ae       data     static E:\Users\Pal\DEVICES\Kern_dev_\SOFT2\MCHP\Kern_v6\Microchip\TCPIP Stack\TCP.c
           vSocketPurpose   0x00034d       data     static E:\Users\Pal\DEVICES\Kern_dev_\SOFT2\MCHP\Kern_v6\Microchip\TCPIP Stack\TCP.c
        vSocketsAllocated   0x000bba       data     static E:\Users\Pal\DEVICES\Kern_dev_\SOFT2\MCHP\Kern_v6\Microchip\TCPIP Stack\TCP.c
              vSourceType   0x0003c4       data     static E:\Users\Pal\DEVICES\Kern_dev_\SOFT2\MCHP\Kern_v6\Microchip\TCPIP Stack\TCP.c
                vTCPFlags   0x0003ad       data     static E:\Users\Pal\DEVICES\Kern_dev_\SOFT2\MCHP\Kern_v6\Microchip\TCPIP Stack\TCP.c
             vTickReading   0x0008f3       data     static E:\Users\Pal\DEVICES\Kern_dev_\SOFT2\MCHP\Kern_v6\Microchip\TCPIP Stack\Tick.c
                      val   0x000579       data     static E:\Users\Pal\DEVICES\Kern_dev_\SOFT2\MCHP\Kern_v6\Microchip\TCPIP Stack\SNMP.c
                      val   0x000bfb       data     static E:\Users\Pal\DEVICES\Kern_dev_\SOFT2\MCHP\Kern_v6\Kern\CustomSNMPApp.c
                      val   0x0004f2       data     static E:\Users\Pal\DEVICES\Kern_dev_\SOFT2\MCHP\Kern_v6\Microchip\TCPIP Stack\ETH97J60.c
                      val   0x0004ee       data     static E:\Users\Pal\DEVICES\Kern_dev_\SOFT2\MCHP\Kern_v6\Microchip\TCPIP Stack\ETH97J60.c
                      val   0x000ba3       data     static E:\Users\Pal\DEVICES\Kern_dev_\SOFT2\MCHP\Kern_v6\Kern\CustomSNMPApp.c
                      val   0x0004ed       data     static E:\Users\Pal\DEVICES\Kern_dev_\SOFT2\MCHP\Kern_v6\Microchip\TCPIP Stack\ETH97J60.c
                      val   0x000cdf       data     static E:\Users\Pal\DEVICES\Kern_dev_\SOFT2\MCHP\Kern_v6\Microchip\TCPIP Stack\Helpers.c
                      val   0x0004e9       data     static E:\Users\Pal\DEVICES\Kern_dev_\SOFT2\MCHP\Kern_v6\Microchip\TCPIP Stack\ETH97J60.c
                      val   0x000540       data     static E:\Users\Pal\DEVICES\Kern_dev_\SOFT2\MCHP\Kern_v6\Microchip\TCPIP Stack\SNMP.c
                      val   0x0007f3       data     static E:\Users\Pal\DEVICES\Kern_dev_\SOFT2\MCHP\Kern_v6\Microchip\TCPIP Stack\Helpers.c
                      val   0x0006fe       data     static E:\Users\Pal\DEVICES\Kern_dev_\SOFT2\MCHP\Kern_v6\Kern\ParamsTable.c
                      val   0x000b8f       data     static E:\Users\Pal\DEVICES\Kern_dev_\SOFT2\MCHP\Kern_v6\Kern\CustomSNMPApp.c
                     val1   0x000b6c       data     static E:\Users\Pal\DEVICES\Kern_dev_\SOFT2\MCHP\Kern_v6\Kern\CustomSNMPApp.c
                     val2   0x000b70       data     static E:\Users\Pal\DEVICES\Kern_dev_\SOFT2\MCHP\Kern_v6\Kern\CustomSNMPApp.c
                    value   0x0006eb       data     static E:\Users\Pal\DEVICES\Kern_dev_\SOFT2\MCHP\Kern_v6\Kern\ParamsTable.c
                  valueue   0x0006f6       data     static E:\Users\Pal\DEVICES\Kern_dev_\SOFT2\MCHP\Kern_v6\Kern\ParamsTable.c
                      var   0x00053f       data     static E:\Users\Pal\DEVICES\Kern_dev_\SOFT2\MCHP\Kern_v6\Microchip\TCPIP Stack\SNMP.c
                      var   0x000b89       data     static E:\Users\Pal\DEVICES\Kern_dev_\SOFT2\MCHP\Kern_v6\Kern\CustomSNMPApp.c
                      var   0x000b93       data     static E:\Users\Pal\DEVICES\Kern_dev_\SOFT2\MCHP\Kern_v6\Kern\CustomSNMPApp.c
                      var   0x000b95       data     static E:\Users\Pal\DEVICES\Kern_dev_\SOFT2\MCHP\Kern_v6\Kern\CustomSNMPApp.c
                      var   0x000b8c       data     static E:\Users\Pal\DEVICES\Kern_dev_\SOFT2\MCHP\Kern_v6\Kern\CustomSNMPApp.c
                      var   0x000b9f       data     static E:\Users\Pal\DEVICES\Kern_dev_\SOFT2\MCHP\Kern_v6\Kern\CustomSNMPApp.c
                      var   0x000b9a       data     static E:\Users\Pal\DEVICES\Kern_dev_\SOFT2\MCHP\Kern_v6\Kern\CustomSNMPApp.c
              varBindCntr   0x000bbf       data     static E:\Users\Pal\DEVICES\Kern_dev_\SOFT2\MCHP\Kern_v6\Microchip\TCPIP Stack\SNMP.c
               varBindLen   0x000954       data     static E:\Users\Pal\DEVICES\Kern_dev_\SOFT2\MCHP\Kern_v6\Microchip\TCPIP Stack\SNMP.c
               varBindLen   0x000c04       data     static E:\Users\Pal\DEVICES\Kern_dev_\SOFT2\MCHP\Kern_v6\Microchip\TCPIP Stack\SNMP.c
            varBindOffset   0x000c25       data     static E:\Users\Pal\DEVICES\Kern_dev_\SOFT2\MCHP\Kern_v6\Microchip\TCPIP Stack\SNMP.c
   varBindStructLenOffset   0x00094e       data     static E:\Users\Pal\DEVICES\Kern_dev_\SOFT2\MCHP\Kern_v6\Microchip\TCPIP Stack\SNMP.c
      varBindStructOffset   0x000bcc       data     static E:\Users\Pal\DEVICES\Kern_dev_\SOFT2\MCHP\Kern_v6\Microchip\TCPIP Stack\SNMP.c
            varBindingLen   0x000be0       data     static E:\Users\Pal\DEVICES\Kern_dev_\SOFT2\MCHP\Kern_v6\Microchip\TCPIP Stack\SNMP.c
                 varCount   0x000c01       data     static E:\Users\Pal\DEVICES\Kern_dev_\SOFT2\MCHP\Kern_v6\Microchip\TCPIP Stack\SNMP.c
              varDataType   0x00055a       data     static E:\Users\Pal\DEVICES\Kern_dev_\SOFT2\MCHP\Kern_v6\Microchip\TCPIP Stack\SNMP.c
              varDataType   0x000566       data     static E:\Users\Pal\DEVICES\Kern_dev_\SOFT2\MCHP\Kern_v6\Microchip\TCPIP Stack\SNMP.c
                    varID   0x000c30       data     static E:\Users\Pal\DEVICES\Kern_dev_\SOFT2\MCHP\Kern_v6\Microchip\TCPIP Stack\SNMP.c
                    varID   0x000c08       data     static E:\Users\Pal\DEVICES\Kern_dev_\SOFT2\MCHP\Kern_v6\Microchip\TCPIP Stack\SNMP.c
                 varIndex   0x000bb7       data     static E:\Users\Pal\DEVICES\Kern_dev_\SOFT2\MCHP\Kern_v6\Microchip\TCPIP Stack\SNMP.c
                   varLen   0x000c39       data     static E:\Users\Pal\DEVICES\Kern_dev_\SOFT2\MCHP\Kern_v6\Microchip\TCPIP Stack\SNMP.c
              varNodeInfo   0x000c2f       data     static E:\Users\Pal\DEVICES\Kern_dev_\SOFT2\MCHP\Kern_v6\Microchip\TCPIP Stack\SNMP.c
              varNodeInfo   0x000c22       data     static E:\Users\Pal\DEVICES\Kern_dev_\SOFT2\MCHP\Kern_v6\Microchip\TCPIP Stack\SNMP.c
               varPairLen   0x000be4       data     static E:\Users\Pal\DEVICES\Kern_dev_\SOFT2\MCHP\Kern_v6\Microchip\TCPIP Stack\SNMP.c
   varPairStructLenOffset   0x000950       data     static E:\Users\Pal\DEVICES\Kern_dev_\SOFT2\MCHP\Kern_v6\Microchip\TCPIP Stack\SNMP.c
       varStructLenOffset   0x000bdc       data     static E:\Users\Pal\DEVICES\Kern_dev_\SOFT2\MCHP\Kern_v6\Microchip\TCPIP Stack\SNMP.c
               varbindlen   0x000946       data     static E:\Users\Pal\DEVICES\Kern_dev_\SOFT2\MCHP\Kern_v6\Microchip\TCPIP Stack\SNMP.c
                        w   0x000bb5       data     static E:\Users\Pal\DEVICES\Kern_dev_\SOFT2\MCHP\Kern_v6\Microchip\TCPIP Stack\TCP.c
                        w   0x000ba7       data     static E:\Users\Pal\DEVICES\Kern_dev_\SOFT2\MCHP\Kern_v6\Microchip\TCPIP Stack\TCP.c
                        w   0x000bc5       data     static E:\Users\Pal\DEVICES\Kern_dev_\SOFT2\MCHP\Kern_v6\Microchip\TCPIP Stack\TCP.c
                        w   0x000bec       data     static E:\Users\Pal\DEVICES\Kern_dev_\SOFT2\MCHP\Kern_v6\Kern\CustomHTTPApp.c
                        w   0x000c75       data     static E:\Users\Pal\DEVICES\Kern_dev_\SOFT2\MCHP\Kern_v6\Microchip\TCPIP Stack\ETH97J60.c
                        w   0x000ba6       data     static E:\Users\Pal\DEVICES\Kern_dev_\SOFT2\MCHP\Kern_v6\Microchip\TCPIP Stack\Helpers.c
               wActualLen   0x000bc9       data     static E:\Users\Pal\DEVICES\Kern_dev_\SOFT2\MCHP\Kern_v6\Microchip\TCPIP Stack\TCP.c
               wActualLen   0x000c12       data     static E:\Users\Pal\DEVICES\Kern_dev_\SOFT2\MCHP\Kern_v6\Microchip\TCPIP Stack\TCP.c
          wBytesAvailable   0x000bae       data     static E:\Users\Pal\DEVICES\Kern_dev_\SOFT2\MCHP\Kern_v6\Microchip\TCPIP Stack\UDP.c
          wBytesUntilWrap   0x000ba9       data     static E:\Users\Pal\DEVICES\Kern_dev_\SOFT2\MCHP\Kern_v6\Microchip\TCPIP Stack\TCP.c
          wBytesUntilWrap   0x000ba9       data     static E:\Users\Pal\DEVICES\Kern_dev_\SOFT2\MCHP\Kern_v6\Microchip\TCPIP Stack\TCP.c
          wBytesUntilWrap   0x000ba9       data     static E:\Users\Pal\DEVICES\Kern_dev_\SOFT2\MCHP\Kern_v6\Microchip\TCPIP Stack\TCP.c
                wChecksum   0x000c73       data     static E:\Users\Pal\DEVICES\Kern_dev_\SOFT2\MCHP\Kern_v6\Microchip\TCPIP Stack\UDP.c
                   wCount   0x000ba5       data     static E:\Users\Pal\DEVICES\Kern_dev_\SOFT2\MCHP\Kern_v6\Microchip\TCPIP Stack\HTTP2.c
       wCurrentETHAddress   0x000bc2       data     static E:\Users\Pal\DEVICES\Kern_dev_\SOFT2\MCHP\Kern_v6\Microchip\TCPIP Stack\TCP.c
                 wDataLen   0x0002c3       data     static E:\Users\Pal\DEVICES\Kern_dev_\SOFT2\MCHP\Kern_v6\Microchip\TCPIP Stack\UDP.c
                 wDataLen   0x000ba7       data     static E:\Users\Pal\DEVICES\Kern_dev_\SOFT2\MCHP\Kern_v6\Microchip\TCPIP Stack\TCP.c
                 wDataLen   0x000ba5       data     static E:\Users\Pal\DEVICES\Kern_dev_\SOFT2\MCHP\Kern_v6\Microchip\TCPIP Stack\TCP.c
                 wDataLen   0x000ba7       data     static E:\Users\Pal\DEVICES\Kern_dev_\SOFT2\MCHP\Kern_v6\Microchip\TCPIP Stack\TCP.c
                 wDataLen   0x0002c8       data     static E:\Users\Pal\DEVICES\Kern_dev_\SOFT2\MCHP\Kern_v6\Microchip\TCPIP Stack\UDP.c
                 wDataLen   0x0002d4       data     static E:\Users\Pal\DEVICES\Kern_dev_\SOFT2\MCHP\Kern_v6\Microchip\TCPIP Stack\UDP.c
                 wDataLen   0x000ba5       data     static E:\Users\Pal\DEVICES\Kern_dev_\SOFT2\MCHP\Kern_v6\Microchip\TCPIP Stack\TCP.c
                    wDest   0x0003c7       data     static E:\Users\Pal\DEVICES\Kern_dev_\SOFT2\MCHP\Kern_v6\Microchip\TCPIP Stack\TCP.c
                wDestType   0x0003c9       data     static E:\Users\Pal\DEVICES\Kern_dev_\SOFT2\MCHP\Kern_v6\Microchip\TCPIP Stack\TCP.c
                wFIFOSize   0x000ba7       data     static E:\Users\Pal\DEVICES\Kern_dev_\SOFT2\MCHP\Kern_v6\Microchip\TCPIP Stack\TCP.c
                wFIFOSize   0x000ba7       data     static E:\Users\Pal\DEVICES\Kern_dev_\SOFT2\MCHP\Kern_v6\Microchip\TCPIP Stack\TCP.c
               wFreeSpace   0x000bd6       data     static E:\Users\Pal\DEVICES\Kern_dev_\SOFT2\MCHP\Kern_v6\Microchip\TCPIP Stack\TCP.c
             wFreeTXSpace   0x000ba5       data     static E:\Users\Pal\DEVICES\Kern_dev_\SOFT2\MCHP\Kern_v6\Microchip\TCPIP Stack\TCP.c
             wFreeTXSpace   0x000c14       data     static E:\Users\Pal\DEVICES\Kern_dev_\SOFT2\MCHP\Kern_v6\Microchip\TCPIP Stack\TCP.c
             wFreeTXSpace   0x000bcb       data     static E:\Users\Pal\DEVICES\Kern_dev_\SOFT2\MCHP\Kern_v6\Microchip\TCPIP Stack\TCP.c
               wGetOffset   0x0002af       data     static E:\Users\Pal\DEVICES\Kern_dev_\SOFT2\MCHP\Kern_v6\Microchip\TCPIP Stack\UDP.c
           wGetReadyCount   0x000ba5       data     static E:\Users\Pal\DEVICES\Kern_dev_\SOFT2\MCHP\Kern_v6\Microchip\TCPIP Stack\TCP.c
           wGetReadyCount   0x000ba5       data     static E:\Users\Pal\DEVICES\Kern_dev_\SOFT2\MCHP\Kern_v6\Microchip\TCPIP Stack\TCP.c
               wLastValue   0x000baa       data     static E:\Users\Pal\DEVICES\Kern_dev_\SOFT2\MCHP\Kern_v6\Microchip\TCPIP Stack\Helpers.c
                     wLen   0x0008d3       data     static E:\Users\Pal\DEVICES\Kern_dev_\SOFT2\MCHP\Kern_v6\Microchip\TCPIP Stack\HTTP2.c
                     wLen   0x000ba9       data     static E:\Users\Pal\DEVICES\Kern_dev_\SOFT2\MCHP\Kern_v6\Microchip\TCPIP Stack\HTTP2.c
                     wLen   0x000ba7       data     static E:\Users\Pal\DEVICES\Kern_dev_\SOFT2\MCHP\Kern_v6\Microchip\TCPIP Stack\HTTP2.c
                     wLen   0x000384       data     static E:\Users\Pal\DEVICES\Kern_dev_\SOFT2\MCHP\Kern_v6\Microchip\TCPIP Stack\TCP.c
                     wLen   0x00038e       data     static E:\Users\Pal\DEVICES\Kern_dev_\SOFT2\MCHP\Kern_v6\Microchip\TCPIP Stack\TCP.c
                     wLen   0x0008d7       data     static E:\Users\Pal\DEVICES\Kern_dev_\SOFT2\MCHP\Kern_v6\Microchip\TCPIP Stack\HTTP2.c
                     wLen   0x000399       data     static E:\Users\Pal\DEVICES\Kern_dev_\SOFT2\MCHP\Kern_v6\Microchip\TCPIP Stack\TCP.c
                     wLen   0x0000d9       data     static E:\Users\Pal\DEVICES\Kern_dev_\SOFT2\MCHP\Kern_v6\Microchip\TCPIP Stack\MPFS2.c
                     wLen   0x0008dc       data     static E:\Users\Pal\DEVICES\Kern_dev_\SOFT2\MCHP\Kern_v6\Microchip\TCPIP Stack\HTTP2.c
                     wLen   0x0000f0       data     static E:\Users\Pal\DEVICES\Kern_dev_\SOFT2\MCHP\Kern_v6\Microchip\TCPIP Stack\MPFS2.c
                wLenStart   0x000bad       data     static E:\Users\Pal\DEVICES\Kern_dev_\SOFT2\MCHP\Kern_v6\Microchip\TCPIP Stack\TCP.c
                wLenStart   0x000bad       data     static E:\Users\Pal\DEVICES\Kern_dev_\SOFT2\MCHP\Kern_v6\Microchip\TCPIP Stack\TCP.c
                  wLength   0x0003cd       data     static E:\Users\Pal\DEVICES\Kern_dev_\SOFT2\MCHP\Kern_v6\Microchip\TCPIP Stack\TCP.c
                  wLength   0x0003c5       data     static E:\Users\Pal\DEVICES\Kern_dev_\SOFT2\MCHP\Kern_v6\Microchip\TCPIP Stack\TCP.c
                     wMSS   0x000be8       data     static E:\Users\Pal\DEVICES\Kern_dev_\SOFT2\MCHP\Kern_v6\Microchip\TCPIP Stack\TCP.c
               wMinRXSize   0x0003ba       data     static E:\Users\Pal\DEVICES\Kern_dev_\SOFT2\MCHP\Kern_v6\Microchip\TCPIP Stack\TCP.c
               wMinTXSize   0x0003bc       data     static E:\Users\Pal\DEVICES\Kern_dev_\SOFT2\MCHP\Kern_v6\Microchip\TCPIP Stack\TCP.c
            wMissingBytes   0x000bd4       data     static E:\Users\Pal\DEVICES\Kern_dev_\SOFT2\MCHP\Kern_v6\Microchip\TCPIP Stack\TCP.c
               wNewWindow   0x000be4       data     static E:\Users\Pal\DEVICES\Kern_dev_\SOFT2\MCHP\Kern_v6\Microchip\TCPIP Stack\TCP.c
                  wOffset   0x0002bb       data     static E:\Users\Pal\DEVICES\Kern_dev_\SOFT2\MCHP\Kern_v6\Microchip\TCPIP Stack\UDP.c
                  wOffset   0x0002bd       data     static E:\Users\Pal\DEVICES\Kern_dev_\SOFT2\MCHP\Kern_v6\Microchip\TCPIP Stack\UDP.c
                    wPort   0x00034b       data     static E:\Users\Pal\DEVICES\Kern_dev_\SOFT2\MCHP\Kern_v6\Microchip\TCPIP Stack\TCP.c
                     wPos   0x000bf4       data     static E:\Users\Pal\DEVICES\Kern_dev_\SOFT2\MCHP\Kern_v6\Microchip\TCPIP Stack\HTTP2.c
               wPutOffset   0x0002ad       data     static E:\Users\Pal\DEVICES\Kern_dev_\SOFT2\MCHP\Kern_v6\Microchip\TCPIP Stack\UDP.c
          wQueueInsertPos   0x000bce       data     static E:\Users\Pal\DEVICES\Kern_dev_\SOFT2\MCHP\Kern_v6\Microchip\TCPIP Stack\TCP.c
                  wRXSize   0x000bbd       data     static E:\Users\Pal\DEVICES\Kern_dev_\SOFT2\MCHP\Kern_v6\Microchip\TCPIP Stack\TCP.c
             wReadPtrSave   0x000c71       data     static E:\Users\Pal\DEVICES\Kern_dev_\SOFT2\MCHP\Kern_v6\Microchip\TCPIP Stack\UDP.c
                wRightLen   0x000bcd       data     static E:\Users\Pal\DEVICES\Kern_dev_\SOFT2\MCHP\Kern_v6\Microchip\TCPIP Stack\TCP.c
                wRightLen   0x000c16       data     static E:\Users\Pal\DEVICES\Kern_dev_\SOFT2\MCHP\Kern_v6\Microchip\TCPIP Stack\TCP.c
               wSearchLen   0x0003a4       data     static E:\Users\Pal\DEVICES\Kern_dev_\SOFT2\MCHP\Kern_v6\Microchip\TCPIP Stack\TCP.c
               wSearchLen   0x000392       data     static E:\Users\Pal\DEVICES\Kern_dev_\SOFT2\MCHP\Kern_v6\Microchip\TCPIP Stack\TCP.c
               wSearchLen   0x00039d       data     static E:\Users\Pal\DEVICES\Kern_dev_\SOFT2\MCHP\Kern_v6\Microchip\TCPIP Stack\TCP.c
           wSegmentLength   0x000be1       data     static E:\Users\Pal\DEVICES\Kern_dev_\SOFT2\MCHP\Kern_v6\Microchip\TCPIP Stack\TCP.c
                  wSource   0x0003ca       data     static E:\Users\Pal\DEVICES\Kern_dev_\SOFT2\MCHP\Kern_v6\Microchip\TCPIP Stack\TCP.c
                   wStart   0x0003a2       data     static E:\Users\Pal\DEVICES\Kern_dev_\SOFT2\MCHP\Kern_v6\Microchip\TCPIP Stack\TCP.c
                   wStart   0x00039b       data     static E:\Users\Pal\DEVICES\Kern_dev_\SOFT2\MCHP\Kern_v6\Microchip\TCPIP Stack\TCP.c
                   wStart   0x000390       data     static E:\Users\Pal\DEVICES\Kern_dev_\SOFT2\MCHP\Kern_v6\Microchip\TCPIP Stack\TCP.c
                   wStart   0x000389       data     static E:\Users\Pal\DEVICES\Kern_dev_\SOFT2\MCHP\Kern_v6\Microchip\TCPIP Stack\TCP.c
                   wStart   0x000386       data     static E:\Users\Pal\DEVICES\Kern_dev_\SOFT2\MCHP\Kern_v6\Microchip\TCPIP Stack\TCP.c
            wTXAllocation   0x000ba9       data     static E:\Users\Pal\DEVICES\Kern_dev_\SOFT2\MCHP\Kern_v6\Microchip\TCPIP Stack\TCP.c
                  wTXSize   0x000bbb       data     static E:\Users\Pal\DEVICES\Kern_dev_\SOFT2\MCHP\Kern_v6\Microchip\TCPIP Stack\TCP.c
              wTXWatchdog   0x0004cc       data     static E:\Users\Pal\DEVICES\Kern_dev_\SOFT2\MCHP\Kern_v6\Microchip\TCPIP Stack\ETH97J60.c
                    wTemp   0x000bb2       data     static E:\Users\Pal\DEVICES\Kern_dev_\SOFT2\MCHP\Kern_v6\Microchip\TCPIP Stack\UDP.c
                    wTemp   0x000bce       data     static E:\Users\Pal\DEVICES\Kern_dev_\SOFT2\MCHP\Kern_v6\Microchip\TCPIP Stack\TCP.c
                    wTemp   0x000bb2       data     static E:\Users\Pal\DEVICES\Kern_dev_\SOFT2\MCHP\Kern_v6\Microchip\TCPIP Stack\UDP.c
                    wTime   0x000ba8       data     static E:\Users\Pal\DEVICES\Kern_dev_\SOFT2\MCHP\Kern_v6\Microchip\TCPIP Stack\Helpers.c
               wUDPLength   0x000c63       data     static E:\Users\Pal\DEVICES\Kern_dev_\SOFT2\MCHP\Kern_v6\Microchip\TCPIP Stack\UDP.c
                     wVal   0x000bea       data     static E:\Users\Pal\DEVICES\Kern_dev_\SOFT2\MCHP\Kern_v6\Microchip\TCPIP Stack\TCP.c
                   wvPROD   0x000bb1       data     static E:\Users\Pal\DEVICES\Kern_dev_\SOFT2\MCHP\Kern_v6\Microchip\TCPIP Stack\Reboot.c



                              Symbols - Sorted by Address
                     Name    Address   Location    Storage File                     
                ---------  ---------  ---------  --------- ---------                
                   _entry   0x000000    program     extern C:\MCC18\src\traditional\startup\c018i.c
       ___return_lbl00000   0x000004    program     static                          
                   __init   0x000006    program     extern C:\MCC18\src\traditional\stdclib\__init.c
               HighVector   0x000008    program     extern E:\Users\Pal\DEVICES\Kern_dev_\SOFT2\MCHP\Kern_v6\Kern\Main.c
       ___return_lbl00008   0x00000c    program     static                          
                LowVector   0x000018    program     extern E:\Users\Pal\DEVICES\Kern_dev_\SOFT2\MCHP\Kern_v6\Kern\Main.c
       ___return_lbl00007   0x00001c    program     static                          
              SyncTCBStub   0x0000f8    program     static E:\Users\Pal\DEVICES\Kern_dev_\SOFT2\MCHP\Kern_v6\Microchip\TCPIP Stack\TCP.c
                  SyncTCB   0x00018c    program     static E:\Users\Pal\DEVICES\Kern_dev_\SOFT2\MCHP\Kern_v6\Microchip\TCPIP Stack\TCP.c
                  TCPInit   0x00023a    program     extern E:\Users\Pal\DEVICES\Kern_dev_\SOFT2\MCHP\Kern_v6\Microchip\TCPIP Stack\TCP.c
                  TCPOpen   0x0004fa    program     extern E:\Users\Pal\DEVICES\Kern_dev_\SOFT2\MCHP\Kern_v6\Microchip\TCPIP Stack\TCP.c
              TCPWasReset   0x0006b4    program     extern E:\Users\Pal\DEVICES\Kern_dev_\SOFT2\MCHP\Kern_v6\Microchip\TCPIP Stack\TCP.c
           TCPIsConnected   0x0006c8    program     extern E:\Users\Pal\DEVICES\Kern_dev_\SOFT2\MCHP\Kern_v6\Microchip\TCPIP Stack\TCP.c
            TCPDisconnect   0x0006da    program     extern E:\Users\Pal\DEVICES\Kern_dev_\SOFT2\MCHP\Kern_v6\Microchip\TCPIP Stack\TCP.c
                 TCPClose   0x000798    program     extern E:\Users\Pal\DEVICES\Kern_dev_\SOFT2\MCHP\Kern_v6\Microchip\TCPIP Stack\TCP.c
         TCPGetRemoteInfo   0x0007aa    program     extern E:\Users\Pal\DEVICES\Kern_dev_\SOFT2\MCHP\Kern_v6\Microchip\TCPIP Stack\TCP.c
                 TCPFlush   0x0007ec    program     extern E:\Users\Pal\DEVICES\Kern_dev_\SOFT2\MCHP\Kern_v6\Microchip\TCPIP Stack\TCP.c
            TCPIsPutReady   0x00081a    program     extern E:\Users\Pal\DEVICES\Kern_dev_\SOFT2\MCHP\Kern_v6\Microchip\TCPIP Stack\TCP.c
                   TCPPut   0x0008ac    program     extern E:\Users\Pal\DEVICES\Kern_dev_\SOFT2\MCHP\Kern_v6\Microchip\TCPIP Stack\TCP.c
              TCPPutArray   0x00099c    program     extern E:\Users\Pal\DEVICES\Kern_dev_\SOFT2\MCHP\Kern_v6\Microchip\TCPIP Stack\TCP.c
           TCPPutROMArray   0x000b4e    program     extern E:\Users\Pal\DEVICES\Kern_dev_\SOFT2\MCHP\Kern_v6\Microchip\TCPIP Stack\TCP.c
             TCPPutString   0x000d06    program     extern E:\Users\Pal\DEVICES\Kern_dev_\SOFT2\MCHP\Kern_v6\Microchip\TCPIP Stack\TCP.c
          TCPPutROMString   0x000d46    program     extern E:\Users\Pal\DEVICES\Kern_dev_\SOFT2\MCHP\Kern_v6\Microchip\TCPIP Stack\TCP.c
         TCPGetTxFIFOFull   0x000d9c    program     extern E:\Users\Pal\DEVICES\Kern_dev_\SOFT2\MCHP\Kern_v6\Microchip\TCPIP Stack\TCP.c
               TCPDiscard   0x000dee    program     extern E:\Users\Pal\DEVICES\Kern_dev_\SOFT2\MCHP\Kern_v6\Microchip\TCPIP Stack\TCP.c
            TCPIsGetReady   0x000e24    program     extern E:\Users\Pal\DEVICES\Kern_dev_\SOFT2\MCHP\Kern_v6\Microchip\TCPIP Stack\TCP.c
                   TCPGet   0x000e90    program     extern E:\Users\Pal\DEVICES\Kern_dev_\SOFT2\MCHP\Kern_v6\Microchip\TCPIP Stack\TCP.c
              TCPGetArray   0x000f40    program     extern E:\Users\Pal\DEVICES\Kern_dev_\SOFT2\MCHP\Kern_v6\Microchip\TCPIP Stack\TCP.c
         TCPGetRxFIFOFree   0x0010cc    program     extern E:\Users\Pal\DEVICES\Kern_dev_\SOFT2\MCHP\Kern_v6\Microchip\TCPIP Stack\TCP.c
             TCPPeekArray   0x00110c    program     extern E:\Users\Pal\DEVICES\Kern_dev_\SOFT2\MCHP\Kern_v6\Microchip\TCPIP Stack\TCP.c
                  TCPPeek   0x001290    program     extern E:\Users\Pal\DEVICES\Kern_dev_\SOFT2\MCHP\Kern_v6\Microchip\TCPIP Stack\TCP.c
           TCPFindArrayEx   0x0012b6    program     extern E:\Users\Pal\DEVICES\Kern_dev_\SOFT2\MCHP\Kern_v6\Microchip\TCPIP Stack\TCP.c
        TCPFindROMArrayEx   0x00166e    program     extern E:\Users\Pal\DEVICES\Kern_dev_\SOFT2\MCHP\Kern_v6\Microchip\TCPIP Stack\TCP.c
                TCPFindEx   0x001a5c    program     extern E:\Users\Pal\DEVICES\Kern_dev_\SOFT2\MCHP\Kern_v6\Microchip\TCPIP Stack\TCP.c
                  TCPTick   0x001a8a    program     extern E:\Users\Pal\DEVICES\Kern_dev_\SOFT2\MCHP\Kern_v6\Microchip\TCPIP Stack\TCP.c
               TCPProcess   0x002226    program     extern E:\Users\Pal\DEVICES\Kern_dev_\SOFT2\MCHP\Kern_v6\Microchip\TCPIP Stack\TCP.c
                  SendTCP   0x002372    program     static E:\Users\Pal\DEVICES\Kern_dev_\SOFT2\MCHP\Kern_v6\Microchip\TCPIP Stack\TCP.c
       FindMatchingSocket   0x0029f6    program     static E:\Users\Pal\DEVICES\Kern_dev_\SOFT2\MCHP\Kern_v6\Microchip\TCPIP Stack\TCP.c
            SwapTCPHeader   0x002f10    program     static E:\Users\Pal\DEVICES\Kern_dev_\SOFT2\MCHP\Kern_v6\Microchip\TCPIP Stack\TCP.c
              CloseSocket   0x0030c6    program     static E:\Users\Pal\DEVICES\Kern_dev_\SOFT2\MCHP\Kern_v6\Microchip\TCPIP Stack\TCP.c
      GetMaxSegSizeOption   0x003170    program     static E:\Users\Pal\DEVICES\Kern_dev_\SOFT2\MCHP\Kern_v6\Microchip\TCPIP Stack\TCP.c
             HandleTCPSeg   0x003272    program     static E:\Users\Pal\DEVICES\Kern_dev_\SOFT2\MCHP\Kern_v6\Microchip\TCPIP Stack\TCP.c
             __tmplbl_141   0x004446    program     static                          
             __tmplbl_149   0x004446    program     static                          
        TCPAdjustFIFOSize   0x004448    program     extern E:\Users\Pal\DEVICES\Kern_dev_\SOFT2\MCHP\Kern_v6\Microchip\TCPIP Stack\TCP.c
               TCPRAMCopy   0x0046cc    program     static E:\Users\Pal\DEVICES\Kern_dev_\SOFT2\MCHP\Kern_v6\Microchip\TCPIP Stack\TCP.c
            TCPRAMCopyROM   0x004790    program     static E:\Users\Pal\DEVICES\Kern_dev_\SOFT2\MCHP\Kern_v6\Microchip\TCPIP Stack\TCP.c
                 SNMPInit   0x004874    program     extern E:\Users\Pal\DEVICES\Kern_dev_\SOFT2\MCHP\Kern_v6\Microchip\TCPIP Stack\SNMP.c
           SpaSibSNMPInit   0x004896    program     extern E:\Users\Pal\DEVICES\Kern_dev_\SOFT2\MCHP\Kern_v6\Microchip\TCPIP Stack\SNMP.c
                 SNMPTask   0x0048c8    program     extern E:\Users\Pal\DEVICES\Kern_dev_\SOFT2\MCHP\Kern_v6\Microchip\TCPIP Stack\SNMP.c
        SNMPNotifyPrepare   0x0049b6    program     extern E:\Users\Pal\DEVICES\Kern_dev_\SOFT2\MCHP\Kern_v6\Microchip\TCPIP Stack\SNMP.c
        SNMPIsNotifyReady   0x004a02    program     extern E:\Users\Pal\DEVICES\Kern_dev_\SOFT2\MCHP\Kern_v6\Microchip\TCPIP Stack\SNMP.c
      getSnmpV2GenTrapOid   0x004a6c    program     extern E:\Users\Pal\DEVICES\Kern_dev_\SOFT2\MCHP\Kern_v6\Microchip\TCPIP Stack\SNMP.c
               SNMPNotify   0x004b36    program     extern E:\Users\Pal\DEVICES\Kern_dev_\SOFT2\MCHP\Kern_v6\Microchip\TCPIP Stack\SNMP.c
            ProcessHeader   0x00538a    program     static E:\Users\Pal\DEVICES\Kern_dev_\SOFT2\MCHP\Kern_v6\Microchip\TCPIP Stack\SNMP.c
      ProcessGetSetHeader   0x00554c    program     static E:\Users\Pal\DEVICES\Kern_dev_\SOFT2\MCHP\Kern_v6\Microchip\TCPIP Stack\SNMP.c
         ProcessVariables   0x005634    program     static E:\Users\Pal\DEVICES\Kern_dev_\SOFT2\MCHP\Kern_v6\Microchip\TCPIP Stack\SNMP.c
             __tmplbl_168   0x0056f2    program     static                          
             __tmplbl_169   0x0056f2    program     static                          
             __tmplbl_140   0x006468    program     static                          
             __tmplbl_153   0x00658a    program     static                          
             __tmplbl_159   0x006824    program     static                          
             __tmplbl_155   0x006824    program     static                          
             __tmplbl_154   0x006824    program     static                          
             __tmplbl_151   0x006824    program     static                          
             __tmplbl_150   0x006824    program     static                          
             __tmplbl_152   0x006950    program     static                          
        ProcessGetNextVar   0x006a70    program     extern E:\Users\Pal\DEVICES\Kern_dev_\SOFT2\MCHP\Kern_v6\Microchip\TCPIP Stack\SNMP.c
        ProcessGetBulkVar   0x006dea    program     extern E:\Users\Pal\DEVICES\Kern_dev_\SOFT2\MCHP\Kern_v6\Microchip\TCPIP Stack\SNMP.c
                OIDLookup   0x007200    program     extern E:\Users\Pal\DEVICES\Kern_dev_\SOFT2\MCHP\Kern_v6\Microchip\TCPIP Stack\SNMP.c
              GetNextLeaf   0x0076d8    program     extern E:\Users\Pal\DEVICES\Kern_dev_\SOFT2\MCHP\Kern_v6\Microchip\TCPIP Stack\SNMP.c
         IsValidCommunity   0x007912    program     static E:\Users\Pal\DEVICES\Kern_dev_\SOFT2\MCHP\Kern_v6\Microchip\TCPIP Stack\SNMP.c
               IsValidInt   0x00796e    program     extern E:\Users\Pal\DEVICES\Kern_dev_\SOFT2\MCHP\Kern_v6\Microchip\TCPIP Stack\SNMP.c
               IsValidPDU   0x0079f2    program     static E:\Users\Pal\DEVICES\Kern_dev_\SOFT2\MCHP\Kern_v6\Microchip\TCPIP Stack\SNMP.c
            IsValidLength   0x007a34    program     extern E:\Users\Pal\DEVICES\Kern_dev_\SOFT2\MCHP\Kern_v6\Microchip\TCPIP Stack\SNMP.c
                IsASNNull   0x007aa2    program     static E:\Users\Pal\DEVICES\Kern_dev_\SOFT2\MCHP\Kern_v6\Microchip\TCPIP Stack\SNMP.c
               IsValidOID   0x007abc    program     static E:\Users\Pal\DEVICES\Kern_dev_\SOFT2\MCHP\Kern_v6\Microchip\TCPIP Stack\SNMP.c
         IsValidStructure   0x007b24    program     extern E:\Users\Pal\DEVICES\Kern_dev_\SOFT2\MCHP\Kern_v6\Microchip\TCPIP Stack\SNMP.c
          _SNMPDuplexInit   0x007b5c    program     extern E:\Users\Pal\DEVICES\Kern_dev_\SOFT2\MCHP\Kern_v6\Microchip\TCPIP Stack\SNMP.c
                 _SNMPPut   0x007b80    program     extern E:\Users\Pal\DEVICES\Kern_dev_\SOFT2\MCHP\Kern_v6\Microchip\TCPIP Stack\SNMP.c
                 _SNMPGet   0x007b9e    program     extern E:\Users\Pal\DEVICES\Kern_dev_\SOFT2\MCHP\Kern_v6\Microchip\TCPIP Stack\SNMP.c
         GetOIDStringByID   0x007bc6    program     extern E:\Users\Pal\DEVICES\Kern_dev_\SOFT2\MCHP\Kern_v6\Microchip\TCPIP Stack\SNMP.c
       GetOIDStringByAddr   0x007cb8    program     extern E:\Users\Pal\DEVICES\Kern_dev_\SOFT2\MCHP\Kern_v6\Microchip\TCPIP Stack\SNMP.c
            ReadMIBRecord   0x007dfe    program     static E:\Users\Pal\DEVICES\Kern_dev_\SOFT2\MCHP\Kern_v6\Microchip\TCPIP Stack\SNMP.c
          GetDataTypeInfo   0x007fea    program     extern E:\Users\Pal\DEVICES\Kern_dev_\SOFT2\MCHP\Kern_v6\Microchip\TCPIP Stack\SNMP.c
            ProcessSetVar   0x0080c8    program     extern E:\Users\Pal\DEVICES\Kern_dev_\SOFT2\MCHP\Kern_v6\Microchip\TCPIP Stack\SNMP.c
            ProcessGetVar   0x00851c    program     extern E:\Users\Pal\DEVICES\Kern_dev_\SOFT2\MCHP\Kern_v6\Microchip\TCPIP Stack\SNMP.c
           SetErrorStatus   0x00873e    program     extern E:\Users\Pal\DEVICES\Kern_dev_\SOFT2\MCHP\Kern_v6\Microchip\TCPIP Stack\SNMP.c
        FindOIDsInRequest   0x008770    program     static E:\Users\Pal\DEVICES\Kern_dev_\SOFT2\MCHP\Kern_v6\Microchip\TCPIP Stack\SNMP.c
SNMPCheckIfPvtMibObjRequested   0x0087f4    program     static E:\Users\Pal\DEVICES\Kern_dev_\SOFT2\MCHP\Kern_v6\Microchip\TCPIP Stack\SNMP.c
                HTTPPrint   0x008854    program     extern E:\Users\Pal\DEVICES\Kern_dev_\SOFT2\MCHP\Kern_v6\Kern\HTTPPrint.h
               HTTPPrint_   0x0089e0    program     extern E:\Users\Pal\DEVICES\Kern_dev_\SOFT2\MCHP\Kern_v6\Kern\HTTPPrint.h
                 HTTPInit   0x008a06    program     extern E:\Users\Pal\DEVICES\Kern_dev_\SOFT2\MCHP\Kern_v6\Microchip\TCPIP Stack\HTTP2.c
               HTTPServer   0x008ad4    program     extern E:\Users\Pal\DEVICES\Kern_dev_\SOFT2\MCHP\Kern_v6\Microchip\TCPIP Stack\HTTP2.c
             HTTPLoadConn   0x008bf8    program     static E:\Users\Pal\DEVICES\Kern_dev_\SOFT2\MCHP\Kern_v6\Microchip\TCPIP Stack\HTTP2.c
              __tmplbl_73   0x008cb6    program     static                          
              HTTPProcess   0x008cb6    program     static E:\Users\Pal\DEVICES\Kern_dev_\SOFT2\MCHP\Kern_v6\Microchip\TCPIP Stack\HTTP2.c
              __tmplbl_55   0x0097bc    program     static                          
              __tmplbl_54   0x009822    program     static                          
              __tmplbl_53   0x009848    program     static                          
              __tmplbl_60   0x0098d6    program     static                          
              __tmplbl_52   0x009a34    program     static                          
              __tmplbl_61   0x009a40    program     static                          
              __tmplbl_51   0x009aa8    program     static                          
              __tmplbl_50   0x009ec6    program     static                          
              __tmplbl_49   0x009f0e    program     static                          
              __tmplbl_48   0x009f7a    program     static                          
              __tmplbl_47   0x009ff2    program     static                          
              __tmplbl_65   0x00a052    program     static                          
              __tmplbl_67   0x00a052    program     static                          
              __tmplbl_68   0x00a052    program     static                          
              __tmplbl_57   0x00a052    program     static                          
              __tmplbl_58   0x00a052    program     static                          
              __tmplbl_59   0x00a052    program     static                          
             HTTPSendFile   0x00a05e    program     static E:\Users\Pal\DEVICES\Kern_dev_\SOFT2\MCHP\Kern_v6\Microchip\TCPIP Stack\HTTP2.c
    HTTPHeaderParseLookup   0x00a286    program     static E:\Users\Pal\DEVICES\Kern_dev_\SOFT2\MCHP\Kern_v6\Microchip\TCPIP Stack\HTTP2.c
HTTPHeaderParseContentLength   0x00a292    program     static E:\Users\Pal\DEVICES\Kern_dev_\SOFT2\MCHP\Kern_v6\Microchip\TCPIP Stack\HTTP2.c
            HTTPURLDecode   0x00a36c    program     extern E:\Users\Pal\DEVICES\Kern_dev_\SOFT2\MCHP\Kern_v6\Microchip\TCPIP Stack\HTTP2.c
               HTTPGetArg   0x00a4a6    program     extern E:\Users\Pal\DEVICES\Kern_dev_\SOFT2\MCHP\Kern_v6\Microchip\TCPIP Stack\HTTP2.c
            HTTPGetROMArg   0x00a564    program     extern E:\Users\Pal\DEVICES\Kern_dev_\SOFT2\MCHP\Kern_v6\Microchip\TCPIP Stack\HTTP2.c
         HTTPReadPostName   0x00a65e    program     extern E:\Users\Pal\DEVICES\Kern_dev_\SOFT2\MCHP\Kern_v6\Microchip\TCPIP Stack\HTTP2.c
        HTTPReadPostValue   0x00a69e    program     extern E:\Users\Pal\DEVICES\Kern_dev_\SOFT2\MCHP\Kern_v6\Microchip\TCPIP Stack\HTTP2.c
               HTTPReadTo   0x00a74e    program     static E:\Users\Pal\DEVICES\Kern_dev_\SOFT2\MCHP\Kern_v6\Microchip\TCPIP Stack\HTTP2.c
              HTTPIncFile   0x00aa60    program     extern E:\Users\Pal\DEVICES\Kern_dev_\SOFT2\MCHP\Kern_v6\Microchip\TCPIP Stack\HTTP2.c
             TxFifoIsFull   0x00abb8    program     static E:\Users\Pal\DEVICES\Kern_dev_\SOFT2\MCHP\Kern_v6\Kern\CustomSNMPApp.c
            TxFifoIsEmpty   0x00abc8    program     static E:\Users\Pal\DEVICES\Kern_dev_\SOFT2\MCHP\Kern_v6\Kern\CustomSNMPApp.c
  SNMPNeedToChangeNetSett   0x00abd6    program     extern E:\Users\Pal\DEVICES\Kern_dev_\SOFT2\MCHP\Kern_v6\Kern\CustomSNMPApp.c
    SNMPSendSpaSibTrapAll   0x00abe4    program     extern E:\Users\Pal\DEVICES\Kern_dev_\SOFT2\MCHP\Kern_v6\Kern\CustomSNMPApp.c
       SNMPSendSpaSibTrap   0x00ad60    program     extern E:\Users\Pal\DEVICES\Kern_dev_\SOFT2\MCHP\Kern_v6\Kern\CustomSNMPApp.c
       SNMPSpaSibTrapTask   0x00ae04    program     extern E:\Users\Pal\DEVICES\Kern_dev_\SOFT2\MCHP\Kern_v6\Kern\CustomSNMPApp.c
    SNMPValidateCommunity   0x00b0f0    program     extern E:\Users\Pal\DEVICES\Kern_dev_\SOFT2\MCHP\Kern_v6\Kern\CustomSNMPApp.c
        SNMPIsValidSetLen   0x00b1f6    program     extern E:\Users\Pal\DEVICES\Kern_dev_\SOFT2\MCHP\Kern_v6\Kern\CustomSNMPApp.c
               SNMPSetVar   0x00b242    program     extern E:\Users\Pal\DEVICES\Kern_dev_\SOFT2\MCHP\Kern_v6\Kern\CustomSNMPApp.c
             __tmplbl_126   0x00bbca    program     static                          
             __tmplbl_125   0x00bbfc    program     static                          
             __tmplbl_124   0x00bc2c    program     static                          
             __tmplbl_123   0x00bc6e    program     static                          
             __tmplbl_122   0x00bc90    program     static                          
             __tmplbl_121   0x00bcb2    program     static                          
             __tmplbl_120   0x00bcd0    program     static                          
             __tmplbl_119   0x00bce8    program     static                          
             __tmplbl_118   0x00bd6e    program     static                          
             __tmplbl_117   0x00bdf4    program     static                          
             __tmplbl_116   0x00be06    program     static                          
             __tmplbl_115   0x00be18    program     static                          
             __tmplbl_114   0x00be2a    program     static                          
             __tmplbl_113   0x00be3c    program     static                          
             __tmplbl_112   0x00be5c    program     static                          
             __tmplbl_111   0x00be9e    program     static                          
             __tmplbl_110   0x00beb8    program     static                          
             __tmplbl_109   0x00bed2    program     static                          
             __tmplbl_108   0x00beec    program     static                          
             __tmplbl_107   0x00bf06    program     static                          
             __tmplbl_106   0x00bf2c    program     static                          
             __tmplbl_105   0x00bf46    program     static                          
             __tmplbl_104   0x00bf60    program     static                          
             __tmplbl_103   0x00bf7a    program     static                          
             __tmplbl_102   0x00bf94    program     static                          
             __tmplbl_101   0x00bfae    program     static                          
             __tmplbl_100   0x00bfc8    program     static                          
              __tmplbl_99   0x00bfe2    program     static                          
              __tmplbl_98   0x00bffc    program     static                          
              __tmplbl_97   0x00c016    program     static                          
              __tmplbl_96   0x00c030    program     static                          
              __tmplbl_95   0x00c04a    program     static                          
             __tmplbl_145   0x00c076    program     static                          
        SNMPGetExactIndex   0x00c078    program     extern E:\Users\Pal\DEVICES\Kern_dev_\SOFT2\MCHP\Kern_v6\Kern\CustomSNMPApp.c
         SNMPGetNextIndex   0x00c07a    program     extern E:\Users\Pal\DEVICES\Kern_dev_\SOFT2\MCHP\Kern_v6\Kern\CustomSNMPApp.c
    SNMPIdRecrdValidation   0x00c07c    program     extern E:\Users\Pal\DEVICES\Kern_dev_\SOFT2\MCHP\Kern_v6\Kern\CustomSNMPApp.c
               SNMPGetVar   0x00c3a0    program     extern E:\Users\Pal\DEVICES\Kern_dev_\SOFT2\MCHP\Kern_v6\Kern\CustomSNMPApp.c
             __tmplbl_179   0x00cbbe    program     static                          
             __tmplbl_178   0x00cbc4    program     static                          
             __tmplbl_177   0x00cbca    program     static                          
         SNMPGetTimeStamp   0x00cbe4    program     static E:\Users\Pal\DEVICES\Kern_dev_\SOFT2\MCHP\Kern_v6\Kern\CustomSNMPApp.c
               MPFS_Start   0x00cdf6    program     extern E:\Users\Pal\DEVICES\Kern_dev_\SOFT2\MCHP\Kern_v6\Kern\MPFSImg2.c
              MPFS_000001   0x00d1f6    program     extern E:\Users\Pal\DEVICES\Kern_dev_\SOFT2\MCHP\Kern_v6\Kern\MPFSImg2.c
              MPFS_000002   0x00d5f6    program     extern E:\Users\Pal\DEVICES\Kern_dev_\SOFT2\MCHP\Kern_v6\Kern\MPFSImg2.c
              MPFS_000003   0x00d9f6    program     extern E:\Users\Pal\DEVICES\Kern_dev_\SOFT2\MCHP\Kern_v6\Kern\MPFSImg2.c
              MPFS_000004   0x00ddf6    program     extern E:\Users\Pal\DEVICES\Kern_dev_\SOFT2\MCHP\Kern_v6\Kern\MPFSImg2.c
              MPFS_000005   0x00e1f6    program     extern E:\Users\Pal\DEVICES\Kern_dev_\SOFT2\MCHP\Kern_v6\Kern\MPFSImg2.c
              MPFS_000006   0x00e5f6    program     extern E:\Users\Pal\DEVICES\Kern_dev_\SOFT2\MCHP\Kern_v6\Kern\MPFSImg2.c
                 MPFSInit   0x00e7fa    program     extern E:\Users\Pal\DEVICES\Kern_dev_\SOFT2\MCHP\Kern_v6\Microchip\TCPIP Stack\MPFS2.c
                 MPFSOpen   0x00e84c    program     extern E:\Users\Pal\DEVICES\Kern_dev_\SOFT2\MCHP\Kern_v6\Microchip\TCPIP Stack\MPFS2.c
              MPFSOpenROM   0x00eade    program     extern E:\Users\Pal\DEVICES\Kern_dev_\SOFT2\MCHP\Kern_v6\Microchip\TCPIP Stack\MPFS2.c
               MPFSOpenID   0x00ed9c    program     extern E:\Users\Pal\DEVICES\Kern_dev_\SOFT2\MCHP\Kern_v6\Microchip\TCPIP Stack\MPFS2.c
                MPFSClose   0x00eeb6    program     extern E:\Users\Pal\DEVICES\Kern_dev_\SOFT2\MCHP\Kern_v6\Microchip\TCPIP Stack\MPFS2.c
                  MPFSGet   0x00eefa    program     extern E:\Users\Pal\DEVICES\Kern_dev_\SOFT2\MCHP\Kern_v6\Microchip\TCPIP Stack\MPFS2.c
             MPFSGetArray   0x00f034    program     extern E:\Users\Pal\DEVICES\Kern_dev_\SOFT2\MCHP\Kern_v6\Microchip\TCPIP Stack\MPFS2.c
              MPFSGetLong   0x00f1de    program     extern E:\Users\Pal\DEVICES\Kern_dev_\SOFT2\MCHP\Kern_v6\Microchip\TCPIP Stack\MPFS2.c
                 MPFSSeek   0x00f206    program     extern E:\Users\Pal\DEVICES\Kern_dev_\SOFT2\MCHP\Kern_v6\Microchip\TCPIP Stack\MPFS2.c
           _LoadFATRecord   0x00f560    program     static E:\Users\Pal\DEVICES\Kern_dev_\SOFT2\MCHP\Kern_v6\Microchip\TCPIP Stack\MPFS2.c
         MPFSGetTimestamp   0x00f5fa    program     extern E:\Users\Pal\DEVICES\Kern_dev_\SOFT2\MCHP\Kern_v6\Microchip\TCPIP Stack\MPFS2.c
         MPFSGetMicrotime   0x00f68a    program     extern E:\Users\Pal\DEVICES\Kern_dev_\SOFT2\MCHP\Kern_v6\Microchip\TCPIP Stack\MPFS2.c
             MPFSGetFlags   0x00f71a    program     extern E:\Users\Pal\DEVICES\Kern_dev_\SOFT2\MCHP\Kern_v6\Microchip\TCPIP Stack\MPFS2.c
              MPFSGetSize   0x00f79e    program     extern E:\Users\Pal\DEVICES\Kern_dev_\SOFT2\MCHP\Kern_v6\Microchip\TCPIP Stack\MPFS2.c
          MPFSGetBytesRem   0x00f82e    program     extern E:\Users\Pal\DEVICES\Kern_dev_\SOFT2\MCHP\Kern_v6\Microchip\TCPIP Stack\MPFS2.c
         MPFSGetStartAddr   0x00f8c4    program     extern E:\Users\Pal\DEVICES\Kern_dev_\SOFT2\MCHP\Kern_v6\Microchip\TCPIP Stack\MPFS2.c
           MPFSGetEndAddr   0x00f95e    program     extern E:\Users\Pal\DEVICES\Kern_dev_\SOFT2\MCHP\Kern_v6\Microchip\TCPIP Stack\MPFS2.c
          MPFSGetFilename   0x00fa14    program     extern E:\Users\Pal\DEVICES\Kern_dev_\SOFT2\MCHP\Kern_v6\Microchip\TCPIP Stack\MPFS2.c
          MPFSGetPosition   0x00fad0    program     extern E:\Users\Pal\DEVICES\Kern_dev_\SOFT2\MCHP\Kern_v6\Microchip\TCPIP Stack\MPFS2.c
                MPFSGetID   0x00fb4c    program     extern E:\Users\Pal\DEVICES\Kern_dev_\SOFT2\MCHP\Kern_v6\Microchip\TCPIP Stack\MPFS2.c
                _Validate   0x00fb7c    program     static E:\Users\Pal\DEVICES\Kern_dev_\SOFT2\MCHP\Kern_v6\Microchip\TCPIP Stack\MPFS2.c
                puart_out   0x00fc00    program     extern E:\Users\Pal\DEVICES\Kern_dev_\SOFT2\MCHP\Kern_v6\Kern\PAL_pUART.c
             uart_out_adr   0x00fcbc    program     extern E:\Users\Pal\DEVICES\Kern_dev_\SOFT2\MCHP\Kern_v6\Kern\PAL_pUART.c
                 pputchar   0x00fd18    program     extern E:\Users\Pal\DEVICES\Kern_dev_\SOFT2\MCHP\Kern_v6\Kern\PAL_pUART.c
             puart_tx_drv   0x00fd48    program     extern E:\Users\Pal\DEVICES\Kern_dev_\SOFT2\MCHP\Kern_v6\Kern\PAL_pUART.c
             puart_rx_drv   0x00fdcc    program     extern E:\Users\Pal\DEVICES\Kern_dev_\SOFT2\MCHP\Kern_v6\Kern\PAL_pUART.c
            puart_rx_init   0x00fed0    program     extern E:\Users\Pal\DEVICES\Kern_dev_\SOFT2\MCHP\Kern_v6\Kern\PAL_pUART.c
            puart_uart_in   0x00feda    program     extern E:\Users\Pal\DEVICES\Kern_dev_\SOFT2\MCHP\Kern_v6\Kern\PAL_pUART.c
       puart_index_offset   0x00fff0    program     extern E:\Users\Pal\DEVICES\Kern_dev_\SOFT2\MCHP\Kern_v6\Kern\PAL_pUART.c
      puart_control_check   0x010046    program     extern E:\Users\Pal\DEVICES\Kern_dev_\SOFT2\MCHP\Kern_v6\Kern\PAL_pUART.c
         puart_uart_in_an   0x01011c    program     extern E:\Users\Pal\DEVICES\Kern_dev_\SOFT2\MCHP\Kern_v6\Kern\PAL_pUART.c
           HTTPExecuteGet   0x010cd4    program     extern E:\Users\Pal\DEVICES\Kern_dev_\SOFT2\MCHP\Kern_v6\Kern\CustomHTTPApp.c
          HTTPExecutePost   0x010cd6    program     extern E:\Users\Pal\DEVICES\Kern_dev_\SOFT2\MCHP\Kern_v6\Kern\CustomHTTPApp.c
           HTTPPostConfig   0x010d20    program     static E:\Users\Pal\DEVICES\Kern_dev_\SOFT2\MCHP\Kern_v6\Kern\CustomHTTPApp.c
  HTTPNeedToChangeNetSett   0x0112ae    program     extern E:\Users\Pal\DEVICES\Kern_dev_\SOFT2\MCHP\Kern_v6\Kern\CustomHTTPApp.c
      HTTPPrint_builddate   0x0112bc    program     extern E:\Users\Pal\DEVICES\Kern_dev_\SOFT2\MCHP\Kern_v6\Kern\CustomHTTPApp.c
    HTTPPrint_HardwareVer   0x01136e    program     extern E:\Users\Pal\DEVICES\Kern_dev_\SOFT2\MCHP\Kern_v6\Kern\CustomHTTPApp.c
    HTTPPrint_SoftwareVer   0x01139c    program     extern E:\Users\Pal\DEVICES\Kern_dev_\SOFT2\MCHP\Kern_v6\Kern\CustomHTTPApp.c
        HTTPPrint_McuType   0x0118e6    program     extern E:\Users\Pal\DEVICES\Kern_dev_\SOFT2\MCHP\Kern_v6\Kern\CustomHTTPApp.c
       HTTPPrint_StackVer   0x011914    program     extern E:\Users\Pal\DEVICES\Kern_dev_\SOFT2\MCHP\Kern_v6\Kern\CustomHTTPApp.c
              HTTPPrintIP   0x011942    program     extern E:\Users\Pal\DEVICES\Kern_dev_\SOFT2\MCHP\Kern_v6\Kern\CustomHTTPApp.c
HTTPPrint_config_hostname   0x0119d0    program     extern E:\Users\Pal\DEVICES\Kern_dev_\SOFT2\MCHP\Kern_v6\Kern\CustomHTTPApp.c
      HTTPPrint_config_ip   0x0119fa    program     extern E:\Users\Pal\DEVICES\Kern_dev_\SOFT2\MCHP\Kern_v6\Kern\CustomHTTPApp.c
      HTTPPrint_config_gw   0x011a0e    program     extern E:\Users\Pal\DEVICES\Kern_dev_\SOFT2\MCHP\Kern_v6\Kern\CustomHTTPApp.c
  HTTPPrint_config_subnet   0x011a22    program     extern E:\Users\Pal\DEVICES\Kern_dev_\SOFT2\MCHP\Kern_v6\Kern\CustomHTTPApp.c
     HTTPPrint_config_mac   0x011a36    program     extern E:\Users\Pal\DEVICES\Kern_dev_\SOFT2\MCHP\Kern_v6\Kern\CustomHTTPApp.c
         HTTPPrint_macdis   0x011b2e    program     extern E:\Users\Pal\DEVICES\Kern_dev_\SOFT2\MCHP\Kern_v6\Kern\CustomHTTPApp.c
      HTTPPrint_IsResetIp   0x011b5c    program     extern E:\Users\Pal\DEVICES\Kern_dev_\SOFT2\MCHP\Kern_v6\Kern\CustomHTTPApp.c
          HTTPPrint_OldIP   0x011bba    program     extern E:\Users\Pal\DEVICES\Kern_dev_\SOFT2\MCHP\Kern_v6\Kern\CustomHTTPApp.c
          HTTPPrint_setup   0x011bfc    program     extern E:\Users\Pal\DEVICES\Kern_dev_\SOFT2\MCHP\Kern_v6\Kern\CustomHTTPApp.c
           HTTPPrint_Site   0x011c36    program     extern E:\Users\Pal\DEVICES\Kern_dev_\SOFT2\MCHP\Kern_v6\Kern\CustomHTTPApp.c
                 DHCPInit   0x011da4    program     extern E:\Users\Pal\DEVICES\Kern_dev_\SOFT2\MCHP\Kern_v6\Microchip\TCPIP Stack\DHCP.c
              DHCPDisable   0x011dee    program     extern E:\Users\Pal\DEVICES\Kern_dev_\SOFT2\MCHP\Kern_v6\Microchip\TCPIP Stack\DHCP.c
               DHCPEnable   0x011e08    program     extern E:\Users\Pal\DEVICES\Kern_dev_\SOFT2\MCHP\Kern_v6\Microchip\TCPIP Stack\DHCP.c
            DHCPIsEnabled   0x011e1a    program     extern E:\Users\Pal\DEVICES\Kern_dev_\SOFT2\MCHP\Kern_v6\Microchip\TCPIP Stack\DHCP.c
              DHCPIsBound   0x011e24    program     extern E:\Users\Pal\DEVICES\Kern_dev_\SOFT2\MCHP\Kern_v6\Microchip\TCPIP Stack\DHCP.c
         DHCPStateChanged   0x011e2c    program     extern E:\Users\Pal\DEVICES\Kern_dev_\SOFT2\MCHP\Kern_v6\Microchip\TCPIP Stack\DHCP.c
     DHCPIsServerDetected   0x011e3a    program     extern E:\Users\Pal\DEVICES\Kern_dev_\SOFT2\MCHP\Kern_v6\Microchip\TCPIP Stack\DHCP.c
                 DHCPTask   0x011e46    program     extern E:\Users\Pal\DEVICES\Kern_dev_\SOFT2\MCHP\Kern_v6\Microchip\TCPIP Stack\DHCP.c
             _DHCPReceive   0x0122b6    program     static E:\Users\Pal\DEVICES\Kern_dev_\SOFT2\MCHP\Kern_v6\Microchip\TCPIP Stack\DHCP.c
                _DHCPSend   0x012630    program     static E:\Users\Pal\DEVICES\Kern_dev_\SOFT2\MCHP\Kern_v6\Microchip\TCPIP Stack\DHCP.c
                   LowISR   0x0128a4    program     extern E:\Users\Pal\DEVICES\Kern_dev_\SOFT2\MCHP\Kern_v6\Kern\Main.c
                  HighISR   0x012a00    program     extern E:\Users\Pal\DEVICES\Kern_dev_\SOFT2\MCHP\Kern_v6\Kern\Main.c
                     main   0x012a22    program     extern E:\Users\Pal\DEVICES\Kern_dev_\SOFT2\MCHP\Kern_v6\Kern\Main.c
        ___while_lbl00010   0x012a78    program     static                          
               __tmplbl_0   0x012aae    program     static                          
           ___if_lbl00012   0x012af6    program     static                          
           ___if_lbl00013   0x012b0c    program     static                          
           ___if_lbl00015   0x012b22    program     static                          
           ___if_lbl00014   0x012b22    program     static                          
           ___if_lbl00017   0x012b38    program     static                          
           ___if_lbl00016   0x012b38    program     static                          
               __tmplbl_1   0x012b6c    program     static                          
           ___if_lbl00018   0x012b84    program     static                          
               __tmplbl_3   0x012b8c    program     static                          
               __tmplbl_2   0x012b94    program     static                          
           ___if_lbl00020   0x012bae    program     static                          
               __tmplbl_4   0x012be8    program     static                          
           ___if_lbl00021   0x012bfc    program     static                          
           ___if_lbl00022   0x012bfc    program     static                          
               __tmplbl_5   0x012c40    program     static                          
           ___if_lbl00023   0x012c56    program     static                          
               __tmplbl_6   0x012c82    program     static                          
           ___if_lbl00024   0x012c98    program     static                          
           ___if_lbl00025   0x012ca6    program     static                          
           ___if_lbl00026   0x012cb8    program     static                          
           ___if_lbl00027   0x012cc2    program     static                          
           ___if_lbl00028   0x012ccc    program     static                          
           ___if_lbl00029   0x012cd6    program     static                          
           ___if_lbl00030   0x012ce0    program     static                          
           ___if_lbl00031   0x012cfe    program     static                          
           ___if_lbl00032   0x012cfe    program     static                          
       ___return_lbl00009   0x012d00    program     static                          
        ___while_lbl00011   0x012d00    program     static                          
          InitializeBoard   0x012d02    program     static E:\Users\Pal\DEVICES\Kern_dev_\SOFT2\MCHP\Kern_v6\Kern\Main.c
          RestoreSettings   0x012d2a    program     extern E:\Users\Pal\DEVICES\Kern_dev_\SOFT2\MCHP\Kern_v6\Kern\Main.c
                  SetMyIP   0x012d78    program     extern E:\Users\Pal\DEVICES\Kern_dev_\SOFT2\MCHP\Kern_v6\Kern\Main.c
           PollResetButon   0x012e42    program     static E:\Users\Pal\DEVICES\Kern_dev_\SOFT2\MCHP\Kern_v6\Kern\Main.c
    GetHarwareResetStatus   0x012ed4    program     extern E:\Users\Pal\DEVICES\Kern_dev_\SOFT2\MCHP\Kern_v6\Kern\Main.c
            InitAppConfig   0x012f04    program     static E:\Users\Pal\DEVICES\Kern_dev_\SOFT2\MCHP\Kern_v6\Kern\Main.c
            SaveAppConfig   0x0131f4    program     extern E:\Users\Pal\DEVICES\Kern_dev_\SOFT2\MCHP\Kern_v6\Kern\Main.c
          FailSafeHandler   0x013272    program     extern E:\Users\Pal\DEVICES\Kern_dev_\SOFT2\MCHP\Kern_v6\Kern\Main.c
        ___while_lbl00064   0x013288    program     static                          
          ___for_lbl00068   0x013298    program     static                          
          ___for_lbl00066   0x0132a2    program     static                          
          ___for_lbl00067   0x0132a8    program     static                          
        ___while_lbl00065   0x0132ac    program     static                          
       ___return_lbl00063   0x0132ae    program     static                          
         I2C_Fail_Timeout   0x0132b0    program     extern E:\Users\Pal\DEVICES\Kern_dev_\SOFT2\MCHP\Kern_v6\Kern\Main.c
        ___while_lbl00070   0x0132ca    program     static                          
              __tmplbl_13   0x013304    program     static                          
           ___if_lbl00072   0x013322    program     static                          
        ___while_lbl00071   0x013330    program     static                          
       ___return_lbl00069   0x013332    program     static                          
                  UDPInit   0x013334    program     extern E:\Users\Pal\DEVICES\Kern_dev_\SOFT2\MCHP\Kern_v6\Microchip\TCPIP Stack\UDP.c
                  UDPTask   0x013352    program     extern E:\Users\Pal\DEVICES\Kern_dev_\SOFT2\MCHP\Kern_v6\Microchip\TCPIP Stack\UDP.c
                  UDPOpen   0x013358    program     extern E:\Users\Pal\DEVICES\Kern_dev_\SOFT2\MCHP\Kern_v6\Microchip\TCPIP Stack\UDP.c
                 UDPClose   0x01348c    program     extern E:\Users\Pal\DEVICES\Kern_dev_\SOFT2\MCHP\Kern_v6\Microchip\TCPIP Stack\UDP.c
           UDPSetTxBuffer   0x0134d8    program     extern E:\Users\Pal\DEVICES\Kern_dev_\SOFT2\MCHP\Kern_v6\Microchip\TCPIP Stack\UDP.c
           UDPSetRxBuffer   0x013526    program     extern E:\Users\Pal\DEVICES\Kern_dev_\SOFT2\MCHP\Kern_v6\Microchip\TCPIP Stack\UDP.c
            UDPIsPutReady   0x013548    program     extern E:\Users\Pal\DEVICES\Kern_dev_\SOFT2\MCHP\Kern_v6\Microchip\TCPIP Stack\UDP.c
                   UDPPut   0x0135ac    program     extern E:\Users\Pal\DEVICES\Kern_dev_\SOFT2\MCHP\Kern_v6\Microchip\TCPIP Stack\UDP.c
              UDPPutArray   0x0135f8    program     extern E:\Users\Pal\DEVICES\Kern_dev_\SOFT2\MCHP\Kern_v6\Microchip\TCPIP Stack\UDP.c
           UDPPutROMArray   0x013690    program     extern E:\Users\Pal\DEVICES\Kern_dev_\SOFT2\MCHP\Kern_v6\Microchip\TCPIP Stack\UDP.c
             UDPPutString   0x01372c    program     extern E:\Users\Pal\DEVICES\Kern_dev_\SOFT2\MCHP\Kern_v6\Microchip\TCPIP Stack\UDP.c
          UDPPutROMString   0x013768    program     extern E:\Users\Pal\DEVICES\Kern_dev_\SOFT2\MCHP\Kern_v6\Microchip\TCPIP Stack\UDP.c
                 UDPFlush   0x0137ba    program     extern E:\Users\Pal\DEVICES\Kern_dev_\SOFT2\MCHP\Kern_v6\Microchip\TCPIP Stack\UDP.c
            UDPIsGetReady   0x01397a    program     extern E:\Users\Pal\DEVICES\Kern_dev_\SOFT2\MCHP\Kern_v6\Microchip\TCPIP Stack\UDP.c
                   UDPGet   0x0139b8    program     extern E:\Users\Pal\DEVICES\Kern_dev_\SOFT2\MCHP\Kern_v6\Microchip\TCPIP Stack\UDP.c
              UDPGetArray   0x0139ee    program     extern E:\Users\Pal\DEVICES\Kern_dev_\SOFT2\MCHP\Kern_v6\Microchip\TCPIP Stack\UDP.c
               UDPDiscard   0x013a70    program     extern E:\Users\Pal\DEVICES\Kern_dev_\SOFT2\MCHP\Kern_v6\Microchip\TCPIP Stack\UDP.c
               UDPProcess   0x013a8a    program     extern E:\Users\Pal\DEVICES\Kern_dev_\SOFT2\MCHP\Kern_v6\Microchip\TCPIP Stack\UDP.c
       FindMatchingSocket   0x013be4    program     static E:\Users\Pal\DEVICES\Kern_dev_\SOFT2\MCHP\Kern_v6\Microchip\TCPIP Stack\UDP.c
             LFSRSeedRand   0x013d74    program     extern E:\Users\Pal\DEVICES\Kern_dev_\SOFT2\MCHP\Kern_v6\Microchip\TCPIP Stack\Helpers.c
                 LFSRRand   0x013dd2    program     extern E:\Users\Pal\DEVICES\Kern_dev_\SOFT2\MCHP\Kern_v6\Microchip\TCPIP Stack\Helpers.c
      GenerateRandomDWORD   0x013e52    program     extern E:\Users\Pal\DEVICES\Kern_dev_\SOFT2\MCHP\Kern_v6\Microchip\TCPIP Stack\Helpers.c
        ___while_lbl00010   0x013e96    program     static                          
        ___while_lbl00012   0x013e9e    program     static                          
        ___while_lbl00013   0x013ea2    program     static                          
               __tmplbl_0   0x013edc    program     static                          
           ___if_lbl00014   0x013efc    program     static                          
           ___if_lbl00015   0x013f12    program     static                          
           ___if_lbl00016   0x013f64    program     static                          
           ___if_lbl00017   0x013f6c    program     static                          
        ___while_lbl00011   0x013f6e    program     static                          
       ___return_lbl00009   0x013f94    program     static                          
        StringToIPAddress   0x013f96    program     extern E:\Users\Pal\DEVICES\Kern_dev_\SOFT2\MCHP\Kern_v6\Microchip\TCPIP Stack\Helpers.c
     ROMStringToIPAddress   0x014104    program     extern E:\Users\Pal\DEVICES\Kern_dev_\SOFT2\MCHP\Kern_v6\Microchip\TCPIP Stack\Helpers.c
                    uitoa   0x01427a    program     extern E:\Users\Pal\DEVICES\Kern_dev_\SOFT2\MCHP\Kern_v6\Microchip\TCPIP Stack\Helpers.c
                  hexatob   0x01434a    program     extern E:\Users\Pal\DEVICES\Kern_dev_\SOFT2\MCHP\Kern_v6\Microchip\TCPIP Stack\Helpers.c
             btohexa_high   0x014396    program     extern E:\Users\Pal\DEVICES\Kern_dev_\SOFT2\MCHP\Kern_v6\Microchip\TCPIP Stack\Helpers.c
              btohexa_low   0x0143b6    program     extern E:\Users\Pal\DEVICES\Kern_dev_\SOFT2\MCHP\Kern_v6\Microchip\TCPIP Stack\Helpers.c
           stricmppgm2ram   0x0143d6    program     extern E:\Users\Pal\DEVICES\Kern_dev_\SOFT2\MCHP\Kern_v6\Microchip\TCPIP Stack\Helpers.c
                    swaps   0x014474    program     extern E:\Users\Pal\DEVICES\Kern_dev_\SOFT2\MCHP\Kern_v6\Microchip\TCPIP Stack\Helpers.c
                    swapl   0x01447e    program     extern E:\Users\Pal\DEVICES\Kern_dev_\SOFT2\MCHP\Kern_v6\Microchip\TCPIP Stack\Helpers.c
           CalcIPChecksum   0x0144c0    program     extern E:\Users\Pal\DEVICES\Kern_dev_\SOFT2\MCHP\Kern_v6\Microchip\TCPIP Stack\Helpers.c
          leftRotateDWORD   0x014596    program     extern E:\Users\Pal\DEVICES\Kern_dev_\SOFT2\MCHP\Kern_v6\Microchip\TCPIP Stack\Helpers.c
          ___for_lbl00102   0x0145aa    program     static                          
          ___for_lbl00100   0x0145c6    program     static                          
          ___for_lbl00101   0x0145ce    program     static                          
          ___for_lbl00105   0x0145ce    program     static                          
          ___for_lbl00103   0x0145e4    program     static                          
          ___for_lbl00104   0x0145ea    program     static                          
       ___return_lbl00099   0x0145fc    program     static                          
        FormatNetBIOSName   0x0145fe    program     extern E:\Users\Pal\DEVICES\Kern_dev_\SOFT2\MCHP\Kern_v6\Microchip\TCPIP Stack\Helpers.c
                  strnchr   0x014666    program     extern E:\Users\Pal\DEVICES\Kern_dev_\SOFT2\MCHP\Kern_v6\Microchip\TCPIP Stack\Helpers.c
                  MACInit   0x0146b8    program     extern E:\Users\Pal\DEVICES\Kern_dev_\SOFT2\MCHP\Kern_v6\Microchip\TCPIP Stack\ETH97J60.c
        ___while_lbl00001   0x0146c0    program     static                          
        ___while_lbl00002   0x0146c6    program     static                          
       ___return_lbl00000   0x0147a8    program     static                          
              MACIsLinked   0x0147aa    program     extern E:\Users\Pal\DEVICES\Kern_dev_\SOFT2\MCHP\Kern_v6\Microchip\TCPIP Stack\ETH97J60.c
             MACIsTxReady   0x0147bc    program     extern E:\Users\Pal\DEVICES\Kern_dev_\SOFT2\MCHP\Kern_v6\Microchip\TCPIP Stack\ETH97J60.c
             MACDiscardRx   0x0147ee    program     extern E:\Users\Pal\DEVICES\Kern_dev_\SOFT2\MCHP\Kern_v6\Microchip\TCPIP Stack\ETH97J60.c
         MACGetFreeRxSize   0x01485e    program     extern E:\Users\Pal\DEVICES\Kern_dev_\SOFT2\MCHP\Kern_v6\Microchip\TCPIP Stack\ETH97J60.c
             MACGetHeader   0x0148f6    program     extern E:\Users\Pal\DEVICES\Kern_dev_\SOFT2\MCHP\Kern_v6\Microchip\TCPIP Stack\ETH97J60.c
           ___if_lbl00020   0x014900    program     static                          
           ___if_lbl00021   0x014910    program     static                          
              __tmplbl_11   0x014966    program     static                          
              __tmplbl_10   0x014968    program     static                          
               __tmplbl_9   0x014972    program     static                          
               __tmplbl_8   0x01497c    program     static                          
               __tmplbl_7   0x014986    program     static                          
               __tmplbl_6   0x014994    program     static                          
               __tmplbl_5   0x01499e    program     static                          
           ___if_lbl00027   0x0149a0    program     static                          
              __tmplbl_13   0x0149ec    program     static                          
              __tmplbl_14   0x0149f2    program     static                          
              __tmplbl_12   0x0149fa    program     static                          
           ___if_lbl00030   0x014a06    program     static                          
       ___return_lbl00019   0x014a0e    program     static                          
             MACPutHeader   0x014a10    program     extern E:\Users\Pal\DEVICES\Kern_dev_\SOFT2\MCHP\Kern_v6\Microchip\TCPIP Stack\ETH97J60.c
                 MACFlush   0x014a70    program     extern E:\Users\Pal\DEVICES\Kern_dev_\SOFT2\MCHP\Kern_v6\Microchip\TCPIP Stack\ETH97J60.c
        MACSetReadPtrInRx   0x014a96    program     extern E:\Users\Pal\DEVICES\Kern_dev_\SOFT2\MCHP\Kern_v6\Microchip\TCPIP Stack\ETH97J60.c
           MACSetWritePtr   0x014aec    program     extern E:\Users\Pal\DEVICES\Kern_dev_\SOFT2\MCHP\Kern_v6\Microchip\TCPIP Stack\ETH97J60.c
            MACSetReadPtr   0x014b06    program     extern E:\Users\Pal\DEVICES\Kern_dev_\SOFT2\MCHP\Kern_v6\Microchip\TCPIP Stack\ETH97J60.c
        MACCalcRxChecksum   0x014b20    program     extern E:\Users\Pal\DEVICES\Kern_dev_\SOFT2\MCHP\Kern_v6\Microchip\TCPIP Stack\ETH97J60.c
     CalcIPBufferChecksum   0x014b94    program     extern E:\Users\Pal\DEVICES\Kern_dev_\SOFT2\MCHP\Kern_v6\Microchip\TCPIP Stack\ETH97J60.c
          MACMemCopyAsync   0x014cc8    program     extern E:\Users\Pal\DEVICES\Kern_dev_\SOFT2\MCHP\Kern_v6\Microchip\TCPIP Stack\ETH97J60.c
         MACIsMemCopyDone   0x014e84    program     extern E:\Users\Pal\DEVICES\Kern_dev_\SOFT2\MCHP\Kern_v6\Microchip\TCPIP Stack\ETH97J60.c
                   MACGet   0x014e90    program     extern E:\Users\Pal\DEVICES\Kern_dev_\SOFT2\MCHP\Kern_v6\Microchip\TCPIP Stack\ETH97J60.c
              MACGetArray   0x014e94    program     extern E:\Users\Pal\DEVICES\Kern_dev_\SOFT2\MCHP\Kern_v6\Microchip\TCPIP Stack\ETH97J60.c
                   MACPut   0x014ef6    program     extern E:\Users\Pal\DEVICES\Kern_dev_\SOFT2\MCHP\Kern_v6\Microchip\TCPIP Stack\ETH97J60.c
       ___return_lbl00079   0x014efe    program     static                          
              MACPutArray   0x014f00    program     extern E:\Users\Pal\DEVICES\Kern_dev_\SOFT2\MCHP\Kern_v6\Microchip\TCPIP Stack\ETH97J60.c
        ___while_lbl00081   0x014f00    program     static                          
       ___return_lbl00080   0x014f30    program     static                          
        ___while_lbl00082   0x014f30    program     static                          
           MACPutROMArray   0x014f32    program     extern E:\Users\Pal\DEVICES\Kern_dev_\SOFT2\MCHP\Kern_v6\Microchip\TCPIP Stack\ETH97J60.c
        ___while_lbl00084   0x014f32    program     static                          
       ___return_lbl00083   0x014f6c    program     static                          
        ___while_lbl00085   0x014f6c    program     static                          
               ReadPHYReg   0x014f6e    program     extern E:\Users\Pal\DEVICES\Kern_dev_\SOFT2\MCHP\Kern_v6\Microchip\TCPIP Stack\ETH97J60.c
        ___while_lbl00087   0x014f7c    program     static                          
        ___while_lbl00088   0x014f82    program     static                          
       ___return_lbl00086   0x014f9c    program     static                          
              WritePHYReg   0x014f9e    program     extern E:\Users\Pal\DEVICES\Kern_dev_\SOFT2\MCHP\Kern_v6\Microchip\TCPIP Stack\ETH97J60.c
        ___while_lbl00090   0x014fc6    program     static                          
        ___while_lbl00091   0x014fcc    program     static                          
       ___return_lbl00089   0x014fcc    program     static                          
             MACPowerDown   0x014fce    program     extern E:\Users\Pal\DEVICES\Kern_dev_\SOFT2\MCHP\Kern_v6\Microchip\TCPIP Stack\ETH97J60.c
               MACPowerUp   0x014fe0    program     extern E:\Users\Pal\DEVICES\Kern_dev_\SOFT2\MCHP\Kern_v6\Microchip\TCPIP Stack\ETH97J60.c
             SettingsInit   0x014ff0    program     extern E:\Users\Pal\DEVICES\Kern_dev_\SOFT2\MCHP\Kern_v6\Kern\ParamsTable.c
        SettingsSetDefaul   0x01504e    program     extern E:\Users\Pal\DEVICES\Kern_dev_\SOFT2\MCHP\Kern_v6\Kern\ParamsTable.c
             SettingsLoad   0x015096    program     extern E:\Users\Pal\DEVICES\Kern_dev_\SOFT2\MCHP\Kern_v6\Kern\ParamsTable.c
      SettingsLoadPointer   0x0152fa    program     extern E:\Users\Pal\DEVICES\Kern_dev_\SOFT2\MCHP\Kern_v6\Kern\ParamsTable.c
            TestSaveParam   0x0152fc    program     extern E:\Users\Pal\DEVICES\Kern_dev_\SOFT2\MCHP\Kern_v6\Kern\ParamsTable.c
             SettingsSave   0x015358    program     extern E:\Users\Pal\DEVICES\Kern_dev_\SOFT2\MCHP\Kern_v6\Kern\ParamsTable.c
      SettingsSavePointer   0x015762    program     extern E:\Users\Pal\DEVICES\Kern_dev_\SOFT2\MCHP\Kern_v6\Kern\ParamsTable.c
            SettingsReset   0x015764    program     extern E:\Users\Pal\DEVICES\Kern_dev_\SOFT2\MCHP\Kern_v6\Kern\ParamsTable.c
     SettingsResetPointer   0x0158ba    program     extern E:\Users\Pal\DEVICES\Kern_dev_\SOFT2\MCHP\Kern_v6\Kern\ParamsTable.c
               AnnounceIP   0x0158bc    program     extern E:\Users\Pal\DEVICES\Kern_dev_\SOFT2\MCHP\Kern_v6\Kern\UdpSet.c
            DiscoveryTask   0x0159a2    program     extern E:\Users\Pal\DEVICES\Kern_dev_\SOFT2\MCHP\Kern_v6\Kern\UdpSet.c
          SendDataToUdpTx   0x015b30    program     extern E:\Users\Pal\DEVICES\Kern_dev_\SOFT2\MCHP\Kern_v6\Kern\UdpSet.c
          SendVersionData   0x015b48    program     extern E:\Users\Pal\DEVICES\Kern_dev_\SOFT2\MCHP\Kern_v6\Kern\UdpSet.c
              __string_45   0x0160ea    program     static E:\Users\Pal\DEVICES\Kern_dev_\SOFT2\MCHP\Kern_v6\Microchip\TCPIP Stack\HTTP2.c
              __string_44   0x0160ee    program     static E:\Users\Pal\DEVICES\Kern_dev_\SOFT2\MCHP\Kern_v6\Microchip\TCPIP Stack\HTTP2.c
              __string_43   0x0160f7    program     static E:\Users\Pal\DEVICES\Kern_dev_\SOFT2\MCHP\Kern_v6\Microchip\TCPIP Stack\HTTP2.c
              __string_42   0x016100    program     static E:\Users\Pal\DEVICES\Kern_dev_\SOFT2\MCHP\Kern_v6\Microchip\TCPIP Stack\HTTP2.c
              __string_41   0x016110    program     static E:\Users\Pal\DEVICES\Kern_dev_\SOFT2\MCHP\Kern_v6\Microchip\TCPIP Stack\HTTP2.c
              __string_40   0x016129    program     static E:\Users\Pal\DEVICES\Kern_dev_\SOFT2\MCHP\Kern_v6\Microchip\TCPIP Stack\HTTP2.c
              __string_39   0x016138    program     static E:\Users\Pal\DEVICES\Kern_dev_\SOFT2\MCHP\Kern_v6\Microchip\TCPIP Stack\HTTP2.c
              __string_38   0x01614b    program     static E:\Users\Pal\DEVICES\Kern_dev_\SOFT2\MCHP\Kern_v6\Microchip\TCPIP Stack\HTTP2.c
              __string_37   0x016155    program     static E:\Users\Pal\DEVICES\Kern_dev_\SOFT2\MCHP\Kern_v6\Microchip\TCPIP Stack\HTTP2.c
              __string_36   0x01615a    program     static E:\Users\Pal\DEVICES\Kern_dev_\SOFT2\MCHP\Kern_v6\Microchip\TCPIP Stack\HTTP2.c
              __string_35   0x01615e    program     static E:\Users\Pal\DEVICES\Kern_dev_\SOFT2\MCHP\Kern_v6\Microchip\TCPIP Stack\HTTP2.c
              __string_34   0x01616e    program     static E:\Users\Pal\DEVICES\Kern_dev_\SOFT2\MCHP\Kern_v6\Microchip\TCPIP Stack\HTTP2.c
              __string_33   0x01617d    program     static E:\Users\Pal\DEVICES\Kern_dev_\SOFT2\MCHP\Kern_v6\Microchip\TCPIP Stack\HTTP2.c
              __string_32   0x016185    program     static E:\Users\Pal\DEVICES\Kern_dev_\SOFT2\MCHP\Kern_v6\Microchip\TCPIP Stack\HTTP2.c
              __string_31   0x0161dc    program     static E:\Users\Pal\DEVICES\Kern_dev_\SOFT2\MCHP\Kern_v6\Microchip\TCPIP Stack\HTTP2.c
              __string_30   0x01620e    program     static E:\Users\Pal\DEVICES\Kern_dev_\SOFT2\MCHP\Kern_v6\Microchip\TCPIP Stack\HTTP2.c
              __string_29   0x016274    program     static E:\Users\Pal\DEVICES\Kern_dev_\SOFT2\MCHP\Kern_v6\Microchip\TCPIP Stack\HTTP2.c
              __string_28   0x0162e4    program     static E:\Users\Pal\DEVICES\Kern_dev_\SOFT2\MCHP\Kern_v6\Microchip\TCPIP Stack\HTTP2.c
              __string_27   0x016351    program     static E:\Users\Pal\DEVICES\Kern_dev_\SOFT2\MCHP\Kern_v6\Microchip\TCPIP Stack\HTTP2.c
              __string_26   0x016394    program     static E:\Users\Pal\DEVICES\Kern_dev_\SOFT2\MCHP\Kern_v6\Microchip\TCPIP Stack\HTTP2.c
              __string_25   0x016415    program     static E:\Users\Pal\DEVICES\Kern_dev_\SOFT2\MCHP\Kern_v6\Microchip\TCPIP Stack\HTTP2.c
              __string_24   0x016473    program     static E:\Users\Pal\DEVICES\Kern_dev_\SOFT2\MCHP\Kern_v6\Microchip\TCPIP Stack\HTTP2.c
              __string_23   0x016498    program     static E:\Users\Pal\DEVICES\Kern_dev_\SOFT2\MCHP\Kern_v6\Microchip\TCPIP Stack\HTTP2.c
              __string_22   0x016499    program     static E:\Users\Pal\DEVICES\Kern_dev_\SOFT2\MCHP\Kern_v6\Microchip\TCPIP Stack\HTTP2.c
              __string_21   0x0164a6    program     static E:\Users\Pal\DEVICES\Kern_dev_\SOFT2\MCHP\Kern_v6\Microchip\TCPIP Stack\HTTP2.c
              __string_20   0x0164ba    program     static E:\Users\Pal\DEVICES\Kern_dev_\SOFT2\MCHP\Kern_v6\Microchip\TCPIP Stack\HTTP2.c
              __string_19   0x0164c5    program     static E:\Users\Pal\DEVICES\Kern_dev_\SOFT2\MCHP\Kern_v6\Microchip\TCPIP Stack\HTTP2.c
              __string_18   0x0164cf    program     static E:\Users\Pal\DEVICES\Kern_dev_\SOFT2\MCHP\Kern_v6\Microchip\TCPIP Stack\HTTP2.c
              __string_17   0x0164d9    program     static E:\Users\Pal\DEVICES\Kern_dev_\SOFT2\MCHP\Kern_v6\Microchip\TCPIP Stack\HTTP2.c
              __string_16   0x0164e2    program     static E:\Users\Pal\DEVICES\Kern_dev_\SOFT2\MCHP\Kern_v6\Microchip\TCPIP Stack\HTTP2.c
              __string_15   0x0164eb    program     static E:\Users\Pal\DEVICES\Kern_dev_\SOFT2\MCHP\Kern_v6\Microchip\TCPIP Stack\HTTP2.c
              __string_14   0x0164f5    program     static E:\Users\Pal\DEVICES\Kern_dev_\SOFT2\MCHP\Kern_v6\Microchip\TCPIP Stack\HTTP2.c
              __string_13   0x016500    program     static E:\Users\Pal\DEVICES\Kern_dev_\SOFT2\MCHP\Kern_v6\Microchip\TCPIP Stack\HTTP2.c
              __string_12   0x016504    program     static E:\Users\Pal\DEVICES\Kern_dev_\SOFT2\MCHP\Kern_v6\Microchip\TCPIP Stack\HTTP2.c
              __string_11   0x016508    program     static E:\Users\Pal\DEVICES\Kern_dev_\SOFT2\MCHP\Kern_v6\Microchip\TCPIP Stack\HTTP2.c
              __string_10   0x01650c    program     static E:\Users\Pal\DEVICES\Kern_dev_\SOFT2\MCHP\Kern_v6\Microchip\TCPIP Stack\HTTP2.c
               __string_9   0x016510    program     static E:\Users\Pal\DEVICES\Kern_dev_\SOFT2\MCHP\Kern_v6\Microchip\TCPIP Stack\HTTP2.c
               __string_8   0x016514    program     static E:\Users\Pal\DEVICES\Kern_dev_\SOFT2\MCHP\Kern_v6\Microchip\TCPIP Stack\HTTP2.c
               __string_7   0x016518    program     static E:\Users\Pal\DEVICES\Kern_dev_\SOFT2\MCHP\Kern_v6\Microchip\TCPIP Stack\HTTP2.c
               __string_6   0x01651c    program     static E:\Users\Pal\DEVICES\Kern_dev_\SOFT2\MCHP\Kern_v6\Microchip\TCPIP Stack\HTTP2.c
               __string_5   0x016520    program     static E:\Users\Pal\DEVICES\Kern_dev_\SOFT2\MCHP\Kern_v6\Microchip\TCPIP Stack\HTTP2.c
               __string_4   0x016524    program     static E:\Users\Pal\DEVICES\Kern_dev_\SOFT2\MCHP\Kern_v6\Microchip\TCPIP Stack\HTTP2.c
               __string_3   0x016529    program     static E:\Users\Pal\DEVICES\Kern_dev_\SOFT2\MCHP\Kern_v6\Microchip\TCPIP Stack\HTTP2.c
               __string_2   0x01652d    program     static E:\Users\Pal\DEVICES\Kern_dev_\SOFT2\MCHP\Kern_v6\Microchip\TCPIP Stack\HTTP2.c
               __string_0   0x016531    program     static E:\Users\Pal\DEVICES\Kern_dev_\SOFT2\MCHP\Kern_v6\Microchip\TCPIP Stack\HTTP2.c
               __string_0   0x016536    program     static E:\Users\Pal\DEVICES\Kern_dev_\SOFT2\MCHP\Kern_v6\Microchip\TCPIP Stack\MPFS2.c
               __string_0   0x01653d    program     static E:\Users\Pal\DEVICES\Kern_dev_\SOFT2\MCHP\Kern_v6\Microchip\TCPIP Stack\SNMP.c
              __string_17   0x016546    program     static E:\Users\Pal\DEVICES\Kern_dev_\SOFT2\MCHP\Kern_v6\Kern\CustomHTTPApp.c
              __string_16   0x016579    program     static E:\Users\Pal\DEVICES\Kern_dev_\SOFT2\MCHP\Kern_v6\Kern\CustomHTTPApp.c
              __string_15   0x01657c    program     static E:\Users\Pal\DEVICES\Kern_dev_\SOFT2\MCHP\Kern_v6\Kern\CustomHTTPApp.c
              __string_14   0x0165af    program     static E:\Users\Pal\DEVICES\Kern_dev_\SOFT2\MCHP\Kern_v6\Kern\CustomHTTPApp.c
              __string_13   0x0165f3    program     static E:\Users\Pal\DEVICES\Kern_dev_\SOFT2\MCHP\Kern_v6\Kern\CustomHTTPApp.c
              __string_12   0x0165fb    program     static E:\Users\Pal\DEVICES\Kern_dev_\SOFT2\MCHP\Kern_v6\Kern\CustomHTTPApp.c
              __string_11   0x016604    program     static E:\Users\Pal\DEVICES\Kern_dev_\SOFT2\MCHP\Kern_v6\Kern\CustomHTTPApp.c
              __string_10   0x01660a    program     static E:\Users\Pal\DEVICES\Kern_dev_\SOFT2\MCHP\Kern_v6\Kern\CustomHTTPApp.c
               __string_9   0x016610    program     static E:\Users\Pal\DEVICES\Kern_dev_\SOFT2\MCHP\Kern_v6\Kern\CustomHTTPApp.c
               __string_8   0x016616    program     static E:\Users\Pal\DEVICES\Kern_dev_\SOFT2\MCHP\Kern_v6\Kern\CustomHTTPApp.c
               __string_7   0x016622    program     static E:\Users\Pal\DEVICES\Kern_dev_\SOFT2\MCHP\Kern_v6\Kern\CustomHTTPApp.c
               __string_6   0x016627    program     static E:\Users\Pal\DEVICES\Kern_dev_\SOFT2\MCHP\Kern_v6\Kern\CustomHTTPApp.c
               __string_5   0x01663c    program     static E:\Users\Pal\DEVICES\Kern_dev_\SOFT2\MCHP\Kern_v6\Kern\CustomHTTPApp.c
               __string_4   0x016641    program     static E:\Users\Pal\DEVICES\Kern_dev_\SOFT2\MCHP\Kern_v6\Kern\CustomHTTPApp.c
               __string_3   0x016645    program     static E:\Users\Pal\DEVICES\Kern_dev_\SOFT2\MCHP\Kern_v6\Kern\CustomHTTPApp.c
               __string_2   0x016649    program     static E:\Users\Pal\DEVICES\Kern_dev_\SOFT2\MCHP\Kern_v6\Kern\CustomHTTPApp.c
               __string_1   0x01664c    program     static E:\Users\Pal\DEVICES\Kern_dev_\SOFT2\MCHP\Kern_v6\Kern\CustomHTTPApp.c
               __string_0   0x01664f    program     static E:\Users\Pal\DEVICES\Kern_dev_\SOFT2\MCHP\Kern_v6\Kern\CustomHTTPApp.c
               __string_5   0x016659    program     static E:\Users\Pal\DEVICES\Kern_dev_\SOFT2\MCHP\Kern_v6\Kern\Main.c
               __string_4   0x01665e    program     static E:\Users\Pal\DEVICES\Kern_dev_\SOFT2\MCHP\Kern_v6\Kern\Main.c
               __string_3   0x016664    program     static E:\Users\Pal\DEVICES\Kern_dev_\SOFT2\MCHP\Kern_v6\Kern\Main.c
               __string_2   0x01666c    program     static E:\Users\Pal\DEVICES\Kern_dev_\SOFT2\MCHP\Kern_v6\Kern\Main.c
               __string_1   0x01666d    program     static E:\Users\Pal\DEVICES\Kern_dev_\SOFT2\MCHP\Kern_v6\Kern\Main.c
               __string_0   0x016672    program     static E:\Users\Pal\DEVICES\Kern_dev_\SOFT2\MCHP\Kern_v6\Kern\Main.c
               __string_9   0x016679    program     static E:\Users\Pal\DEVICES\Kern_dev_\SOFT2\MCHP\Kern_v6\Kern\UdpSet.c
               __string_8   0x01667c    program     static E:\Users\Pal\DEVICES\Kern_dev_\SOFT2\MCHP\Kern_v6\Kern\UdpSet.c
               __string_7   0x016682    program     static E:\Users\Pal\DEVICES\Kern_dev_\SOFT2\MCHP\Kern_v6\Kern\UdpSet.c
               __string_6   0x016689    program     static E:\Users\Pal\DEVICES\Kern_dev_\SOFT2\MCHP\Kern_v6\Kern\UdpSet.c
               __string_5   0x01668f    program     static E:\Users\Pal\DEVICES\Kern_dev_\SOFT2\MCHP\Kern_v6\Kern\UdpSet.c
               __string_4   0x016696    program     static E:\Users\Pal\DEVICES\Kern_dev_\SOFT2\MCHP\Kern_v6\Kern\UdpSet.c
               __string_3   0x01669c    program     static E:\Users\Pal\DEVICES\Kern_dev_\SOFT2\MCHP\Kern_v6\Kern\UdpSet.c
               __string_2   0x0166a2    program     static E:\Users\Pal\DEVICES\Kern_dev_\SOFT2\MCHP\Kern_v6\Kern\UdpSet.c
               __string_1   0x0166a7    program     static E:\Users\Pal\DEVICES\Kern_dev_\SOFT2\MCHP\Kern_v6\Kern\UdpSet.c
               __string_0   0x0166ab    program     static E:\Users\Pal\DEVICES\Kern_dev_\SOFT2\MCHP\Kern_v6\Kern\UdpSet.c
              __string_21   0x0166b7    program     static E:\Users\Pal\DEVICES\Kern_dev_\SOFT2\MCHP\Kern_v6\Kern\PAL_pUART.c
              __string_20   0x0166d4    program     static E:\Users\Pal\DEVICES\Kern_dev_\SOFT2\MCHP\Kern_v6\Kern\PAL_pUART.c
              __string_19   0x0166eb    program     static E:\Users\Pal\DEVICES\Kern_dev_\SOFT2\MCHP\Kern_v6\Kern\PAL_pUART.c
              __string_18   0x016714    program     static E:\Users\Pal\DEVICES\Kern_dev_\SOFT2\MCHP\Kern_v6\Kern\PAL_pUART.c
              __string_17   0x016737    program     static E:\Users\Pal\DEVICES\Kern_dev_\SOFT2\MCHP\Kern_v6\Kern\PAL_pUART.c
              __string_16   0x016760    program     static E:\Users\Pal\DEVICES\Kern_dev_\SOFT2\MCHP\Kern_v6\Kern\PAL_pUART.c
              __string_15   0x016783    program     static E:\Users\Pal\DEVICES\Kern_dev_\SOFT2\MCHP\Kern_v6\Kern\PAL_pUART.c
              __string_14   0x0167ac    program     static E:\Users\Pal\DEVICES\Kern_dev_\SOFT2\MCHP\Kern_v6\Kern\PAL_pUART.c
              __string_13   0x0167cf    program     static E:\Users\Pal\DEVICES\Kern_dev_\SOFT2\MCHP\Kern_v6\Kern\PAL_pUART.c
              __string_12   0x0167f8    program     static E:\Users\Pal\DEVICES\Kern_dev_\SOFT2\MCHP\Kern_v6\Kern\PAL_pUART.c
              __string_11   0x01681b    program     static E:\Users\Pal\DEVICES\Kern_dev_\SOFT2\MCHP\Kern_v6\Kern\PAL_pUART.c
              __string_10   0x01682f    program     static E:\Users\Pal\DEVICES\Kern_dev_\SOFT2\MCHP\Kern_v6\Kern\PAL_pUART.c
               __string_9   0x01683d    program     static E:\Users\Pal\DEVICES\Kern_dev_\SOFT2\MCHP\Kern_v6\Kern\PAL_pUART.c
               __string_8   0x016851    program     static E:\Users\Pal\DEVICES\Kern_dev_\SOFT2\MCHP\Kern_v6\Kern\PAL_pUART.c
               __string_7   0x01685f    program     static E:\Users\Pal\DEVICES\Kern_dev_\SOFT2\MCHP\Kern_v6\Kern\PAL_pUART.c
               __string_6   0x016873    program     static E:\Users\Pal\DEVICES\Kern_dev_\SOFT2\MCHP\Kern_v6\Kern\PAL_pUART.c
               __string_5   0x016881    program     static E:\Users\Pal\DEVICES\Kern_dev_\SOFT2\MCHP\Kern_v6\Kern\PAL_pUART.c
               __string_4   0x016895    program     static E:\Users\Pal\DEVICES\Kern_dev_\SOFT2\MCHP\Kern_v6\Kern\PAL_pUART.c
               __string_3   0x0168a3    program     static E:\Users\Pal\DEVICES\Kern_dev_\SOFT2\MCHP\Kern_v6\Kern\PAL_pUART.c
               __string_2   0x0168b7    program     static E:\Users\Pal\DEVICES\Kern_dev_\SOFT2\MCHP\Kern_v6\Kern\PAL_pUART.c
               __string_1   0x0168c5    program     static E:\Users\Pal\DEVICES\Kern_dev_\SOFT2\MCHP\Kern_v6\Kern\PAL_pUART.c
               __string_0   0x0168d9    program     static E:\Users\Pal\DEVICES\Kern_dev_\SOFT2\MCHP\Kern_v6\Kern\PAL_pUART.c
                   ARPPut   0x0168e8    program     static E:\Users\Pal\DEVICES\Kern_dev_\SOFT2\MCHP\Kern_v6\Microchip\TCPIP Stack\ARP.c
                  ARPInit   0x0169f0    program     extern E:\Users\Pal\DEVICES\Kern_dev_\SOFT2\MCHP\Kern_v6\Microchip\TCPIP Stack\ARP.c
               ARPProcess   0x016a14    program     extern E:\Users\Pal\DEVICES\Kern_dev_\SOFT2\MCHP\Kern_v6\Microchip\TCPIP Stack\ARP.c
               ARPResolve   0x016b5e    program     extern E:\Users\Pal\DEVICES\Kern_dev_\SOFT2\MCHP\Kern_v6\Microchip\TCPIP Stack\ARP.c
            ARPIsResolved   0x016c00    program     extern E:\Users\Pal\DEVICES\Kern_dev_\SOFT2\MCHP\Kern_v6\Microchip\TCPIP Stack\ARP.c
            SwapARPPacket   0x016cc0    program     extern E:\Users\Pal\DEVICES\Kern_dev_\SOFT2\MCHP\Kern_v6\Microchip\TCPIP Stack\ARP.c
           Gratuitous_ARP   0x016d5e    program     extern E:\Users\Pal\DEVICES\Kern_dev_\SOFT2\MCHP\Kern_v6\Microchip\TCPIP Stack\ARP.c
                 NBNSTask   0x016e32    program     extern E:\Users\Pal\DEVICES\Kern_dev_\SOFT2\MCHP\Kern_v6\Microchip\TCPIP Stack\NBNS.c
              NBNSPutName   0x0171a2    program     static E:\Users\Pal\DEVICES\Kern_dev_\SOFT2\MCHP\Kern_v6\Microchip\TCPIP Stack\NBNS.c
              NBNSGetName   0x0171fa    program     static E:\Users\Pal\DEVICES\Kern_dev_\SOFT2\MCHP\Kern_v6\Microchip\TCPIP Stack\NBNS.c
                   memcmp   0x0172aa    program     extern C:\MCC18\src\traditional\stdclib\memcmp.asm
                    jLoop   0x0172ca    program     static C:\MCC18\src\traditional\stdclib\memcmp.asm
              _4jContinue   0x0172d6    program     static C:\MCC18\src\traditional\stdclib\memcmp.asm
                   _5jEnd   0x0172e0    program     static C:\MCC18\src\traditional\stdclib\memcmp.asm
                     jEnd   0x0172e6    program     static C:\MCC18\src\traditional\stdclib\memcmp.asm
            memcmppgm2ram   0x0172fc    program     extern C:\MCC18\src\traditional\stdclib\mcmpp2r.asm
                    jLoop   0x01731a    program     static C:\MCC18\src\traditional\stdclib\mcmpp2r.asm
              _3jContinue   0x017326    program     static C:\MCC18\src\traditional\stdclib\mcmpp2r.asm
                   _4jEnd   0x017330    program     static C:\MCC18\src\traditional\stdclib\mcmpp2r.asm
                     jEnd   0x017338    program     static C:\MCC18\src\traditional\stdclib\mcmpp2r.asm
                   memcpy   0x01733a    program     extern C:\MCC18\src\traditional\stdclib\memcpy.asm
                    jLoop   0x017362    program     static C:\MCC18\src\traditional\stdclib\memcpy.asm
              _4jContinue   0x01736e    program     static C:\MCC18\src\traditional\stdclib\memcpy.asm
                   _5jEnd   0x017378    program     static C:\MCC18\src\traditional\stdclib\memcpy.asm
                     jEnd   0x01737e    program     static C:\MCC18\src\traditional\stdclib\memcpy.asm
            memcpypgm2ram   0x017390    program     extern C:\MCC18\src\traditional\stdclib\mcpyp2r.asm
                    jLoop   0x0173b6    program     static C:\MCC18\src\traditional\stdclib\mcpyp2r.asm
              _3jContinue   0x0173c2    program     static C:\MCC18\src\traditional\stdclib\mcpyp2r.asm
                   _4jEnd   0x0173cc    program     static C:\MCC18\src\traditional\stdclib\mcpyp2r.asm
                     jEnd   0x0173d4    program     static C:\MCC18\src\traditional\stdclib\mcpyp2r.asm
                   memset   0x0173d6    program     extern C:\MCC18\src\traditional\stdclib\memset.asm
                    jLoop   0x0173ea    program     static C:\MCC18\src\traditional\stdclib\memset.asm
              _2jContinue   0x0173f6    program     static C:\MCC18\src\traditional\stdclib\memset.asm
                   _3jEnd   0x017400    program     static C:\MCC18\src\traditional\stdclib\memset.asm
                     jEnd   0x017408    program     static C:\MCC18\src\traditional\stdclib\memset.asm
                   strcmp   0x01740a    program     extern C:\MCC18\src\traditional\stdclib\strcmp.asm
                    jLoop   0x01742a    program     static C:\MCC18\src\traditional\stdclib\strcmp.asm
                     jEnd   0x017434    program     static C:\MCC18\src\traditional\stdclib\strcmp.asm
            strcmppgm2ram   0x01744a    program     extern C:\MCC18\src\traditional\stdclib\scmpp2r.asm
                    jLoop   0x017468    program     static C:\MCC18\src\traditional\stdclib\scmpp2r.asm
                     jEnd   0x017474    program     static C:\MCC18\src\traditional\stdclib\scmpp2r.asm
                   strcpy   0x017476    program     extern C:\MCC18\src\traditional\stdclib\strcpy.asm
                    jLoop   0x01749e    program     static C:\MCC18\src\traditional\stdclib\strcpy.asm
            strcpypgm2ram   0x0174b8    program     extern C:\MCC18\src\traditional\stdclib\scpyp2r.asm
                    jLoop   0x0174de    program     static C:\MCC18\src\traditional\stdclib\scpyp2r.asm
                     jEnd   0x0174e8    program     static C:\MCC18\src\traditional\stdclib\scpyp2r.asm
                   strlen   0x0174ea    program     extern C:\MCC18\src\traditional\stdclib\strlen.asm
                    jLoop   0x0174fa    program     static C:\MCC18\src\traditional\stdclib\strlen.asm
                     jEnd   0x017504    program     static C:\MCC18\src\traditional\stdclib\strlen.asm
                strlenpgm   0x017506    program     extern C:\MCC18\src\traditional\stdclib\slenpgm.asm
                    jLoop   0x017524    program     static C:\MCC18\src\traditional\stdclib\slenpgm.asm
                   _2jEnd   0x01753a    program     static C:\MCC18\src\traditional\stdclib\slenpgm.asm
                     jEnd   0x01753c    program     static C:\MCC18\src\traditional\stdclib\slenpgm.asm
                  strncmp   0x017550    program     extern C:\MCC18\src\traditional\stdclib\strncmp.asm
                    jLoop   0x017570    program     static C:\MCC18\src\traditional\stdclib\strncmp.asm
              _4jContinue   0x01757c    program     static C:\MCC18\src\traditional\stdclib\strncmp.asm
                   _5jEnd   0x017586    program     static C:\MCC18\src\traditional\stdclib\strncmp.asm
                     jEnd   0x017590    program     static C:\MCC18\src\traditional\stdclib\strncmp.asm
                   strupr   0x0175a6    program     extern C:\MCC18\src\traditional\stdclib\strupr.asm
                    jLoop   0x0175ba    program     static C:\MCC18\src\traditional\stdclib\strupr.asm
                    jSkip   0x0175ca    program     static C:\MCC18\src\traditional\stdclib\strupr.asm
                     jEnd   0x0175ce    program     static C:\MCC18\src\traditional\stdclib\strupr.asm
              IPGetHeader   0x0175d0    program     extern E:\Users\Pal\DEVICES\Kern_dev_\SOFT2\MCHP\Kern_v6\Microchip\TCPIP Stack\IP.c
              IPPutHeader   0x0176c2    program     extern E:\Users\Pal\DEVICES\Kern_dev_\SOFT2\MCHP\Kern_v6\Microchip\TCPIP Stack\IP.c
            IPSetRxBuffer   0x0177ae    program     extern E:\Users\Pal\DEVICES\Kern_dev_\SOFT2\MCHP\Kern_v6\Microchip\TCPIP Stack\IP.c
             SwapIPHeader   0x0177c8    program     static E:\Users\Pal\DEVICES\Kern_dev_\SOFT2\MCHP\Kern_v6\Microchip\TCPIP Stack\IP.c
            InitI2cEeprom   0x017872    program     extern E:\Users\Pal\DEVICES\Kern_dev_\SOFT2\MCHP\Kern_v6\Kern\I2cEEPROM.c
                  WaitSSP   0x01788a    program     extern E:\Users\Pal\DEVICES\Kern_dev_\SOFT2\MCHP\Kern_v6\Kern\I2cEEPROM.c
        ___while_lbl00002   0x01789e    program     static                          
               __tmplbl_0   0x0178d6    program     static                          
           ___if_lbl00004   0x0178dc    program     static                          
        ___while_lbl00003   0x0178e4    program     static                          
       ___return_lbl00001   0x0178e6    program     static                          
                SendStart   0x0178e8    program     extern E:\Users\Pal\DEVICES\Kern_dev_\SOFT2\MCHP\Kern_v6\Kern\I2cEEPROM.c
                 SendStop   0x0178ee    program     extern E:\Users\Pal\DEVICES\Kern_dev_\SOFT2\MCHP\Kern_v6\Kern\I2cEEPROM.c
              SendRestart   0x0178f4    program     extern E:\Users\Pal\DEVICES\Kern_dev_\SOFT2\MCHP\Kern_v6\Kern\I2cEEPROM.c
                 SendByte   0x0178fa    program     extern E:\Users\Pal\DEVICES\Kern_dev_\SOFT2\MCHP\Kern_v6\Kern\I2cEEPROM.c
              ReceiveByte   0x01790c    program     extern E:\Users\Pal\DEVICES\Kern_dev_\SOFT2\MCHP\Kern_v6\Kern\I2cEEPROM.c
                 SendNack   0x017914    program     extern E:\Users\Pal\DEVICES\Kern_dev_\SOFT2\MCHP\Kern_v6\Kern\I2cEEPROM.c
                  SendAck   0x01791c    program     extern E:\Users\Pal\DEVICES\Kern_dev_\SOFT2\MCHP\Kern_v6\Kern\I2cEEPROM.c
                   SendID   0x017924    program     extern E:\Users\Pal\DEVICES\Kern_dev_\SOFT2\MCHP\Kern_v6\Kern\I2cEEPROM.c
         EEPROM_WriteByte   0x017940    program     extern E:\Users\Pal\DEVICES\Kern_dev_\SOFT2\MCHP\Kern_v6\Kern\I2cEEPROM.c
          EEPROM_ReadByte   0x017964    program     extern E:\Users\Pal\DEVICES\Kern_dev_\SOFT2\MCHP\Kern_v6\Kern\I2cEEPROM.c
           EEPROM_ReadMAC   0x017998    program     extern E:\Users\Pal\DEVICES\Kern_dev_\SOFT2\MCHP\Kern_v6\Kern\I2cEEPROM.c
         EEPROM_READ_TEST   0x0179d0    program     extern E:\Users\Pal\DEVICES\Kern_dev_\SOFT2\MCHP\Kern_v6\Kern\I2cEEPROM.c
        EEPROM_WriteArray   0x0179fc    program     extern E:\Users\Pal\DEVICES\Kern_dev_\SOFT2\MCHP\Kern_v6\Kern\I2cEEPROM.c
         EEPROM_ReadArray   0x017a9a    program     extern E:\Users\Pal\DEVICES\Kern_dev_\SOFT2\MCHP\Kern_v6\Kern\I2cEEPROM.c
                StackInit   0x017ae6    program     extern E:\Users\Pal\DEVICES\Kern_dev_\SOFT2\MCHP\Kern_v6\Microchip\TCPIP Stack\StackTsk.c
                StackTask   0x017b36    program     extern E:\Users\Pal\DEVICES\Kern_dev_\SOFT2\MCHP\Kern_v6\Microchip\TCPIP Stack\StackTsk.c
        StackApplications   0x017d3a    program     extern E:\Users\Pal\DEVICES\Kern_dev_\SOFT2\MCHP\Kern_v6\Microchip\TCPIP Stack\StackTsk.c
                 FXD0808S   0x017d4a    program     extern C:\MCC18\src\traditional\math\fxd0808s.asm
                  DA0808S   0x017d56    program     static C:\MCC18\src\traditional\math\fxd0808s.asm
                   D0808S   0x017d60    program     static C:\MCC18\src\traditional\math\fxd0808s.asm
                 D0808SOK   0x017d6a    program     static C:\MCC18\src\traditional\math\fxd0808s.asm
                D0808SNEG   0x017d6e    program     static C:\MCC18\src\traditional\math\fxd0808s.asm
                  D0808SX   0x017d74    program     static C:\MCC18\src\traditional\math\fxd0808s.asm
                 FXM1616S   0x017d7e    program     extern C:\MCC18\src\traditional\math\fxm1616s.asm
               TSIGN1616A   0x017dca    program     static C:\MCC18\src\traditional\math\fxm1616s.asm
                 FXM1616U   0x017dd8    program     extern C:\MCC18\src\traditional\math\fxm1616u.asm
                 FXM2424U   0x017e14    program     extern C:\MCC18\src\traditional\math\fxm2424u.asm
                     atol   0x017ea6    program     extern C:\MCC18\src\traditional\stdclib\atol.asm
                  jSkipWS   0x017edc    program     static C:\MCC18\src\traditional\stdclib\atol.asm
                 jSkipWS1   0x017eee    program     static C:\MCC18\src\traditional\stdclib\atol.asm
                 jTstSign   0x017ef2    program     static C:\MCC18\src\traditional\stdclib\atol.asm
                jTstSign1   0x017efe    program     static C:\MCC18\src\traditional\stdclib\atol.asm
                jTstSign2   0x017f04    program     static C:\MCC18\src\traditional\stdclib\atol.asm
                jTstSign3   0x017f06    program     static C:\MCC18\src\traditional\stdclib\atol.asm
                    jLoop   0x017f06    program     static C:\MCC18\src\traditional\stdclib\atol.asm
                 jEndLoop   0x017f94    program     static C:\MCC18\src\traditional\stdclib\atol.asm
                     jEnd   0x017fc4    program     static C:\MCC18\src\traditional\stdclib\atol.asm
                  _14jEnd   0x017fc4    program     static C:\MCC18\src\traditional\stdclib\atol.asm
               RebootTask   0x017ffc    program     extern E:\Users\Pal\DEVICES\Kern_dev_\SOFT2\MCHP\Kern_v6\Microchip\TCPIP Stack\Reboot.c
           ___if_lbl00001   0x018020    program     static                          
           ___if_lbl00002   0x01802a    program     static                          
           ___if_lbl00003   0x018042    program     static                          
               __tmplbl_0   0x0180aa    program     static                          
           ___if_lbl00004   0x0180b2    program     static                          
       ___return_lbl00000   0x018118    program     static                          
           DeviceDataInit   0x01811a    program     extern E:\Users\Pal\DEVICES\Kern_dev_\SOFT2\MCHP\Kern_v6\Kern\DeviceData.c
              ICMPProcess   0x0181fe    program     extern E:\Users\Pal\DEVICES\Kern_dev_\SOFT2\MCHP\Kern_v6\Microchip\TCPIP Stack\ICMP.c
                 TickInit   0x0182d8    program     extern E:\Users\Pal\DEVICES\Kern_dev_\SOFT2\MCHP\Kern_v6\Microchip\TCPIP Stack\Tick.c
           ___do_lbl00004   0x0182e8    program     static                          
              GetTickCopy   0x0182e8    program     static E:\Users\Pal\DEVICES\Kern_dev_\SOFT2\MCHP\Kern_v6\Microchip\TCPIP Stack\Tick.c
           ___do_lbl00002   0x018306    program     static                          
           ___do_lbl00003   0x01830a    program     static                          
       ___return_lbl00001   0x01830c    program     static                          
                  TickGet   0x01830e    program     extern E:\Users\Pal\DEVICES\Kern_dev_\SOFT2\MCHP\Kern_v6\Microchip\TCPIP Stack\Tick.c
            TickGetDiv256   0x018322    program     extern E:\Users\Pal\DEVICES\Kern_dev_\SOFT2\MCHP\Kern_v6\Microchip\TCPIP Stack\Tick.c
            TickGetDiv64K   0x018336    program     extern E:\Users\Pal\DEVICES\Kern_dev_\SOFT2\MCHP\Kern_v6\Microchip\TCPIP Stack\Tick.c
TickConvertToMilliseconds   0x01834a    program     extern E:\Users\Pal\DEVICES\Kern_dev_\SOFT2\MCHP\Kern_v6\Microchip\TCPIP Stack\Tick.c
               TickUpdate   0x018374    program     extern E:\Users\Pal\DEVICES\Kern_dev_\SOFT2\MCHP\Kern_v6\Microchip\TCPIP Stack\Tick.c
                _do_cinit   0x018388    program     extern C:\MCC18\src\traditional\startup\c018i.c
                     test   0x0183a2    program     static                          
                copy_loop   0x0183fa    program     static                          
            copy_one_byte   0x018400    program     static                          
             done_copying   0x01840e    program     static                          
       ___return_lbl00002   0x018424    program     static                          
                     done   0x018424    program     static                          
                HTTP_CRLF   0x018426    program     static E:\Users\Pal\DEVICES\Kern_dev_\SOFT2\MCHP\Kern_v6\Microchip\TCPIP Stack\HTTP2.c
       httpFileExtensions   0x018429    program     static E:\Users\Pal\DEVICES\Kern_dev_\SOFT2\MCHP\Kern_v6\Microchip\TCPIP Stack\HTTP2.c
         httpContentTypes   0x01844d    program     static E:\Users\Pal\DEVICES\Kern_dev_\SOFT2\MCHP\Kern_v6\Microchip\TCPIP Stack\HTTP2.c
      HTTPResponseHeaders   0x018471    program     static E:\Users\Pal\DEVICES\Kern_dev_\SOFT2\MCHP\Kern_v6\Microchip\TCPIP Stack\HTTP2.c
       HTTPRequestHeaders   0x01848f    program     static E:\Users\Pal\DEVICES\Kern_dev_\SOFT2\MCHP\Kern_v6\Microchip\TCPIP Stack\HTTP2.c
                  FXM3232   0x018498    program     extern C:\MCC18\src\traditional\math\fxm3232.c
       ___return_lbl00000   0x018506    program     static                          
                 FXD3232U   0x018508    program     extern C:\MCC18\src\traditional\math\fxd3232u.c
                     loop   0x018516    program     static                          
                   _false   0x01854a    program     static                          
       ___return_lbl00000   0x01854e    program     static                          
                 FXD1616U   0x018550    program     extern C:\MCC18\src\traditional\math\fxd1616u.c
                     loop   0x01855a    program     static                          
                  endloop   0x018576    program     static                          
       ___return_lbl00000   0x01857a    program     static                          
            __zero_memory   0x01857c    program     extern C:\MCC18\src\traditional\proc\p18F67J60.asm
               zero_block   0x018596    program     static C:\MCC18\src\traditional\proc\p18F67J60.asm
                   loop_h   0x018596    program     static C:\MCC18\src\traditional\proc\p18F67J60.asm
                compare_l   0x01859e    program     static C:\MCC18\src\traditional\proc\p18F67J60.asm
                   loop_l   0x0185a0    program     static C:\MCC18\src\traditional\proc\p18F67J60.asm
                 _startup   0x0185a8    program     extern C:\MCC18\src\traditional\startup\c018i.c
                     loop   0x0185b8    program     static                          
       ___return_lbl00001   0x0185c2    program     static                          
                 FXD0808U   0x0185c4    program     extern C:\MCC18\src\traditional\math\fxd0808u.c
                     loop   0x0185cc    program     static                          
                  endloop   0x0185da    program     static                          
       ___return_lbl00000   0x0185de    program     static                          
     TCPSocketInitializer   0x0185e0    program     extern E:\Users\Pal\DEVICES\Kern_dev_\SOFT2\MCHP\Kern_v6\Kern\Alternative Configurations\TCPIPConfig_Kern.h
     SerializedMACAddress   0x0185f8    program     static E:\Users\Pal\DEVICES\Kern_dev_\SOFT2\MCHP\Kern_v6\Kern\Main.c
         cReadCommunities   0x0185fe    program     static E:\Users\Pal\DEVICES\Kern_dev_\SOFT2\MCHP\Kern_v6\Kern\Main.c
        cWriteCommunities   0x018607    program     static E:\Users\Pal\DEVICES\Kern_dev_\SOFT2\MCHP\Kern_v6\Kern\Main.c
            dataTypeTable   0x018610    program     static E:\Users\Pal\DEVICES\Kern_dev_\SOFT2\MCHP\Kern_v6\Microchip\TCPIP Stack\SNMP.c
               __config_0   0x01fff8    program     static E:\Users\Pal\DEVICES\Kern_dev_\SOFT2\MCHP\Kern_v6\Kern\Main.c
               __config_1   0x01fffa    program     static E:\Users\Pal\DEVICES\Kern_dev_\SOFT2\MCHP\Kern_v6\Kern\Main.c
               __config_2   0x01fffb    program     static E:\Users\Pal\DEVICES\Kern_dev_\SOFT2\MCHP\Kern_v6\Kern\Main.c
               __config_3   0x01fffd    program     static E:\Users\Pal\DEVICES\Kern_dev_\SOFT2\MCHP\Kern_v6\Kern\Main.c
                     SIGN   0x000000       data     extern C:\MCC18\src\traditional\math\cmath18.asm
            __FPFLAGSbits   0x000001       data     extern C:\MCC18\src\traditional\math\cmath18.asm
                __FPFLAGS   0x000001       data     extern C:\MCC18\src\traditional\math\cmath18.asm
                 __AARGB7   0x000002       data     extern C:\MCC18\src\traditional\math\aarg.asm
                  __REMB3   0x000002       data     extern C:\MCC18\src\traditional\math\aarg.asm
                  __REMB2   0x000003       data     extern C:\MCC18\src\traditional\math\aarg.asm
                 __AARGB6   0x000003       data     extern C:\MCC18\src\traditional\math\aarg.asm
                  __REMB1   0x000004       data     extern C:\MCC18\src\traditional\math\aarg.asm
                 __AARGB5   0x000004       data     extern C:\MCC18\src\traditional\math\aarg.asm
                  __REMB0   0x000005       data     extern C:\MCC18\src\traditional\math\aarg.asm
                 __AARGB4   0x000005       data     extern C:\MCC18\src\traditional\math\aarg.asm
                 __AARGB3   0x000006       data     extern C:\MCC18\src\traditional\math\aarg.asm
                 __AARGB2   0x000007       data     extern C:\MCC18\src\traditional\math\aarg.asm
                 __AARGB1   0x000008       data     extern C:\MCC18\src\traditional\math\aarg.asm
                 __AARGB0   0x000009       data     extern C:\MCC18\src\traditional\math\aarg.asm
                   __AEXP   0x00000a       data     extern C:\MCC18\src\traditional\math\aarg.asm
                 __BARGB3   0x00000b       data     extern C:\MCC18\src\traditional\math\barg.asm
                 __BARGB2   0x00000c       data     extern C:\MCC18\src\traditional\math\barg.asm
                 __BARGB1   0x00000d       data     extern C:\MCC18\src\traditional\math\barg.asm
                 __BARGB0   0x00000e       data     extern C:\MCC18\src\traditional\math\barg.asm
                   __BEXP   0x00000f       data     extern C:\MCC18\src\traditional\math\barg.asm
                 __TEMPB3   0x000010       data     extern C:\MCC18\src\traditional\math\temparg.asm
                 __TEMPB2   0x000011       data     extern C:\MCC18\src\traditional\math\temparg.asm
                 __TEMPB1   0x000012       data     extern C:\MCC18\src\traditional\math\temparg.asm
                   __TEMP   0x000013       data     extern C:\MCC18\src\traditional\math\temparg.asm
                 __TEMPB0   0x000013       data     extern C:\MCC18\src\traditional\math\temparg.asm
                  __tmp_0   0x000014       data     static E:\Users\Pal\DEVICES\Kern_dev_\SOFT2\MCHP\Kern_v6\Microchip\TCPIP Stack\ETH97J60.c
                  __tmp_0   0x000014       data     static E:\Users\Pal\DEVICES\Kern_dev_\SOFT2\MCHP\Kern_v6\Microchip\TCPIP Stack\Reboot.c
                  __tmp_0   0x000014       data     static E:\Users\Pal\DEVICES\Kern_dev_\SOFT2\MCHP\Kern_v6\Microchip\TCPIP Stack\Helpers.c
                  __tmp_0   0x000014       data     static E:\Users\Pal\DEVICES\Kern_dev_\SOFT2\MCHP\Kern_v6\Microchip\TCPIP Stack\NBNS.c
                  __tmp_0   0x000014       data     static E:\Users\Pal\DEVICES\Kern_dev_\SOFT2\MCHP\Kern_v6\Kern\ParamsTable.c
                  __tmp_0   0x000014       data     static E:\Users\Pal\DEVICES\Kern_dev_\SOFT2\MCHP\Kern_v6\Microchip\TCPIP Stack\MPFS2.c
                  __tmp_0   0x000014       data     static E:\Users\Pal\DEVICES\Kern_dev_\SOFT2\MCHP\Kern_v6\Microchip\TCPIP Stack\SNMP.c
                  __tmp_0   0x000014       data     static E:\Users\Pal\DEVICES\Kern_dev_\SOFT2\MCHP\Kern_v6\Kern\PAL_pUART.c
                  __tmp_0   0x000014       data     static E:\Users\Pal\DEVICES\Kern_dev_\SOFT2\MCHP\Kern_v6\Kern\Main.c
                  __tmp_0   0x000014       data     static E:\Users\Pal\DEVICES\Kern_dev_\SOFT2\MCHP\Kern_v6\Microchip\TCPIP Stack\UDP.c
                  __tmp_0   0x000014       data     static E:\Users\Pal\DEVICES\Kern_dev_\SOFT2\MCHP\Kern_v6\Kern\UdpSet.c
                  __tmp_0   0x000014       data     static E:\Users\Pal\DEVICES\Kern_dev_\SOFT2\MCHP\Kern_v6\Microchip\TCPIP Stack\IP.c
                  __tmp_0   0x000014       data     static E:\Users\Pal\DEVICES\Kern_dev_\SOFT2\MCHP\Kern_v6\Kern\CustomHTTPApp.c
                  __tmp_0   0x000014       data     static E:\Users\Pal\DEVICES\Kern_dev_\SOFT2\MCHP\Kern_v6\Microchip\TCPIP Stack\ICMP.c
                  __tmp_0   0x000014       data     static E:\Users\Pal\DEVICES\Kern_dev_\SOFT2\MCHP\Kern_v6\Microchip\TCPIP Stack\HTTP2.c
                  __tmp_0   0x000014       data     static E:\Users\Pal\DEVICES\Kern_dev_\SOFT2\MCHP\Kern_v6\Kern\DeviceData.c
                  __tmp_0   0x000014       data     static E:\Users\Pal\DEVICES\Kern_dev_\SOFT2\MCHP\Kern_v6\Microchip\TCPIP Stack\DHCP.c
                  __tmp_0   0x000014       data     static E:\Users\Pal\DEVICES\Kern_dev_\SOFT2\MCHP\Kern_v6\Microchip\TCPIP Stack\StackTsk.c
                  __tmp_0   0x000014       data     static E:\Users\Pal\DEVICES\Kern_dev_\SOFT2\MCHP\Kern_v6\Microchip\TCPIP Stack\TCP.c
                  __tmp_0   0x000014       data     static E:\Users\Pal\DEVICES\Kern_dev_\SOFT2\MCHP\Kern_v6\Kern\I2cEEPROM.c
                  __tmp_0   0x000014       data     static E:\Users\Pal\DEVICES\Kern_dev_\SOFT2\MCHP\Kern_v6\Microchip\TCPIP Stack\ARP.c
                  __tmp_0   0x000014       data     static E:\Users\Pal\DEVICES\Kern_dev_\SOFT2\MCHP\Kern_v6\Kern\CustomSNMPApp.c
                MPFSStubs   0x000060       data     static E:\Users\Pal\DEVICES\Kern_dev_\SOFT2\MCHP\Kern_v6\Microchip\TCPIP Stack\MPFS2.c
             isMPFSLocked   0x0000b0       data     static E:\Users\Pal\DEVICES\Kern_dev_\SOFT2\MCHP\Kern_v6\Microchip\TCPIP Stack\MPFS2.c
                 fatCache   0x0000b1       data     static E:\Users\Pal\DEVICES\Kern_dev_\SOFT2\MCHP\Kern_v6\Microchip\TCPIP Stack\MPFS2.c
               fatCacheID   0x0000c7       data     static E:\Users\Pal\DEVICES\Kern_dev_\SOFT2\MCHP\Kern_v6\Microchip\TCPIP Stack\MPFS2.c
                 numFiles   0x0000c9       data     static E:\Users\Pal\DEVICES\Kern_dev_\SOFT2\MCHP\Kern_v6\Microchip\TCPIP Stack\MPFS2.c
                    cFile   0x0000cb       data     static E:\Users\Pal\DEVICES\Kern_dev_\SOFT2\MCHP\Kern_v6\Microchip\TCPIP Stack\MPFS2.c
             __MPFSOpen:0   0x0000cb       data     extern E:\Users\Pal\DEVICES\Kern_dev_\SOFT2\MCHP\Kern_v6\Microchip\TCPIP Stack\MPFS2.c
                    cFile   0x0000cd       data     static E:\Users\Pal\DEVICES\Kern_dev_\SOFT2\MCHP\Kern_v6\Microchip\TCPIP Stack\MPFS2.c
          __MPFSOpenROM:0   0x0000cd       data     extern E:\Users\Pal\DEVICES\Kern_dev_\SOFT2\MCHP\Kern_v6\Microchip\TCPIP Stack\MPFS2.c
                   hFatID   0x0000d0       data     static E:\Users\Pal\DEVICES\Kern_dev_\SOFT2\MCHP\Kern_v6\Microchip\TCPIP Stack\MPFS2.c
           __MPFSOpenID:0   0x0000d0       data     extern E:\Users\Pal\DEVICES\Kern_dev_\SOFT2\MCHP\Kern_v6\Microchip\TCPIP Stack\MPFS2.c
            __MPFSClose:0   0x0000d2       data     extern E:\Users\Pal\DEVICES\Kern_dev_\SOFT2\MCHP\Kern_v6\Microchip\TCPIP Stack\MPFS2.c
                    hMPFS   0x0000d2       data     static E:\Users\Pal\DEVICES\Kern_dev_\SOFT2\MCHP\Kern_v6\Microchip\TCPIP Stack\MPFS2.c
                    hMPFS   0x0000d3       data     static E:\Users\Pal\DEVICES\Kern_dev_\SOFT2\MCHP\Kern_v6\Microchip\TCPIP Stack\MPFS2.c
              __MPFSGet:0   0x0000d3       data     extern E:\Users\Pal\DEVICES\Kern_dev_\SOFT2\MCHP\Kern_v6\Microchip\TCPIP Stack\MPFS2.c
              __MPFSGet:1   0x0000d4       data     extern E:\Users\Pal\DEVICES\Kern_dev_\SOFT2\MCHP\Kern_v6\Microchip\TCPIP Stack\MPFS2.c
                        c   0x0000d4       data     static E:\Users\Pal\DEVICES\Kern_dev_\SOFT2\MCHP\Kern_v6\Microchip\TCPIP Stack\MPFS2.c
                    hMPFS   0x0000d6       data     static E:\Users\Pal\DEVICES\Kern_dev_\SOFT2\MCHP\Kern_v6\Microchip\TCPIP Stack\MPFS2.c
         __MPFSGetArray:0   0x0000d6       data     extern E:\Users\Pal\DEVICES\Kern_dev_\SOFT2\MCHP\Kern_v6\Microchip\TCPIP Stack\MPFS2.c
         __MPFSGetArray:1   0x0000d7       data     extern E:\Users\Pal\DEVICES\Kern_dev_\SOFT2\MCHP\Kern_v6\Microchip\TCPIP Stack\MPFS2.c
                    cData   0x0000d7       data     static E:\Users\Pal\DEVICES\Kern_dev_\SOFT2\MCHP\Kern_v6\Microchip\TCPIP Stack\MPFS2.c
         __MPFSGetArray:2   0x0000d9       data     extern E:\Users\Pal\DEVICES\Kern_dev_\SOFT2\MCHP\Kern_v6\Microchip\TCPIP Stack\MPFS2.c
                     wLen   0x0000d9       data     static E:\Users\Pal\DEVICES\Kern_dev_\SOFT2\MCHP\Kern_v6\Microchip\TCPIP Stack\MPFS2.c
                    hMPFS   0x0000db       data     static E:\Users\Pal\DEVICES\Kern_dev_\SOFT2\MCHP\Kern_v6\Microchip\TCPIP Stack\MPFS2.c
          __MPFSGetLong:0   0x0000db       data     extern E:\Users\Pal\DEVICES\Kern_dev_\SOFT2\MCHP\Kern_v6\Microchip\TCPIP Stack\MPFS2.c
          __MPFSGetLong:1   0x0000dc       data     extern E:\Users\Pal\DEVICES\Kern_dev_\SOFT2\MCHP\Kern_v6\Microchip\TCPIP Stack\MPFS2.c
                       ul   0x0000dc       data     static E:\Users\Pal\DEVICES\Kern_dev_\SOFT2\MCHP\Kern_v6\Microchip\TCPIP Stack\MPFS2.c
                    hMPFS   0x0000de       data     static E:\Users\Pal\DEVICES\Kern_dev_\SOFT2\MCHP\Kern_v6\Microchip\TCPIP Stack\MPFS2.c
             __MPFSSeek:0   0x0000de       data     extern E:\Users\Pal\DEVICES\Kern_dev_\SOFT2\MCHP\Kern_v6\Microchip\TCPIP Stack\MPFS2.c
             __MPFSSeek:1   0x0000df       data     extern E:\Users\Pal\DEVICES\Kern_dev_\SOFT2\MCHP\Kern_v6\Microchip\TCPIP Stack\MPFS2.c
                 dwOffset   0x0000df       data     static E:\Users\Pal\DEVICES\Kern_dev_\SOFT2\MCHP\Kern_v6\Microchip\TCPIP Stack\MPFS2.c
             __MPFSSeek:2   0x0000e3       data     extern E:\Users\Pal\DEVICES\Kern_dev_\SOFT2\MCHP\Kern_v6\Microchip\TCPIP Stack\MPFS2.c
                    tMode   0x0000e3       data     static E:\Users\Pal\DEVICES\Kern_dev_\SOFT2\MCHP\Kern_v6\Microchip\TCPIP Stack\MPFS2.c
                    fatID   0x0000e4       data     static E:\Users\Pal\DEVICES\Kern_dev_\SOFT2\MCHP\Kern_v6\Microchip\TCPIP Stack\MPFS2.c
       ___LoadFATRecord:0   0x0000e4       data     static E:\Users\Pal\DEVICES\Kern_dev_\SOFT2\MCHP\Kern_v6\Microchip\TCPIP Stack\MPFS2.c
     __MPFSGetTimestamp:0   0x0000e6       data     extern E:\Users\Pal\DEVICES\Kern_dev_\SOFT2\MCHP\Kern_v6\Microchip\TCPIP Stack\MPFS2.c
                    hMPFS   0x0000e6       data     static E:\Users\Pal\DEVICES\Kern_dev_\SOFT2\MCHP\Kern_v6\Microchip\TCPIP Stack\MPFS2.c
                    hMPFS   0x0000e7       data     static E:\Users\Pal\DEVICES\Kern_dev_\SOFT2\MCHP\Kern_v6\Microchip\TCPIP Stack\MPFS2.c
     __MPFSGetMicrotime:0   0x0000e7       data     extern E:\Users\Pal\DEVICES\Kern_dev_\SOFT2\MCHP\Kern_v6\Microchip\TCPIP Stack\MPFS2.c
                    hMPFS   0x0000e8       data     static E:\Users\Pal\DEVICES\Kern_dev_\SOFT2\MCHP\Kern_v6\Microchip\TCPIP Stack\MPFS2.c
         __MPFSGetFlags:0   0x0000e8       data     extern E:\Users\Pal\DEVICES\Kern_dev_\SOFT2\MCHP\Kern_v6\Microchip\TCPIP Stack\MPFS2.c
          __MPFSGetSize:0   0x0000e9       data     extern E:\Users\Pal\DEVICES\Kern_dev_\SOFT2\MCHP\Kern_v6\Microchip\TCPIP Stack\MPFS2.c
                    hMPFS   0x0000e9       data     static E:\Users\Pal\DEVICES\Kern_dev_\SOFT2\MCHP\Kern_v6\Microchip\TCPIP Stack\MPFS2.c
                    hMPFS   0x0000ea       data     static E:\Users\Pal\DEVICES\Kern_dev_\SOFT2\MCHP\Kern_v6\Microchip\TCPIP Stack\MPFS2.c
      __MPFSGetBytesRem:0   0x0000ea       data     extern E:\Users\Pal\DEVICES\Kern_dev_\SOFT2\MCHP\Kern_v6\Microchip\TCPIP Stack\MPFS2.c
     __MPFSGetStartAddr:0   0x0000eb       data     extern E:\Users\Pal\DEVICES\Kern_dev_\SOFT2\MCHP\Kern_v6\Microchip\TCPIP Stack\MPFS2.c
                    hMPFS   0x0000eb       data     static E:\Users\Pal\DEVICES\Kern_dev_\SOFT2\MCHP\Kern_v6\Microchip\TCPIP Stack\MPFS2.c
       __MPFSGetEndAddr:0   0x0000ec       data     extern E:\Users\Pal\DEVICES\Kern_dev_\SOFT2\MCHP\Kern_v6\Microchip\TCPIP Stack\MPFS2.c
                    hMPFS   0x0000ec       data     static E:\Users\Pal\DEVICES\Kern_dev_\SOFT2\MCHP\Kern_v6\Microchip\TCPIP Stack\MPFS2.c
                    hMPFS   0x0000ed       data     static E:\Users\Pal\DEVICES\Kern_dev_\SOFT2\MCHP\Kern_v6\Microchip\TCPIP Stack\MPFS2.c
      __MPFSGetFilename:0   0x0000ed       data     extern E:\Users\Pal\DEVICES\Kern_dev_\SOFT2\MCHP\Kern_v6\Microchip\TCPIP Stack\MPFS2.c
      __MPFSGetFilename:1   0x0000ee       data     extern E:\Users\Pal\DEVICES\Kern_dev_\SOFT2\MCHP\Kern_v6\Microchip\TCPIP Stack\MPFS2.c
                    cName   0x0000ee       data     static E:\Users\Pal\DEVICES\Kern_dev_\SOFT2\MCHP\Kern_v6\Microchip\TCPIP Stack\MPFS2.c
                     wLen   0x0000f0       data     static E:\Users\Pal\DEVICES\Kern_dev_\SOFT2\MCHP\Kern_v6\Microchip\TCPIP Stack\MPFS2.c
      __MPFSGetFilename:2   0x0000f0       data     extern E:\Users\Pal\DEVICES\Kern_dev_\SOFT2\MCHP\Kern_v6\Microchip\TCPIP Stack\MPFS2.c
                    hMPFS   0x0000f2       data     static E:\Users\Pal\DEVICES\Kern_dev_\SOFT2\MCHP\Kern_v6\Microchip\TCPIP Stack\MPFS2.c
      __MPFSGetPosition:0   0x0000f2       data     extern E:\Users\Pal\DEVICES\Kern_dev_\SOFT2\MCHP\Kern_v6\Microchip\TCPIP Stack\MPFS2.c
            __MPFSGetID:0   0x0000f3       data     extern E:\Users\Pal\DEVICES\Kern_dev_\SOFT2\MCHP\Kern_v6\Microchip\TCPIP Stack\MPFS2.c
                    hMPFS   0x0000f3       data     static E:\Users\Pal\DEVICES\Kern_dev_\SOFT2\MCHP\Kern_v6\Microchip\TCPIP Stack\MPFS2.c
                  smStack   0x0000f4       data     static E:\Users\Pal\DEVICES\Kern_dev_\SOFT2\MCHP\Kern_v6\Microchip\TCPIP Stack\StackTsk.c
               remoteNode   0x0000f5       data     extern E:\Users\Pal\DEVICES\Kern_dev_\SOFT2\MCHP\Kern_v6\Microchip\TCPIP Stack\StackTsk.c
              DiscoverySM   0x0000ff       data     static E:\Users\Pal\DEVICES\Kern_dev_\SOFT2\MCHP\Kern_v6\Kern\UdpSet.c
                  curHTTP   0x000100       data     extern E:\Users\Pal\DEVICES\Kern_dev_\SOFT2\MCHP\Kern_v6\Microchip\TCPIP Stack\HTTP2.c
                httpStubs   0x0001e3       data     extern E:\Users\Pal\DEVICES\Kern_dev_\SOFT2\MCHP\Kern_v6\Microchip\TCPIP Stack\HTTP2.c
                curHTTPID   0x0001e7       data     extern E:\Users\Pal\DEVICES\Kern_dev_\SOFT2\MCHP\Kern_v6\Microchip\TCPIP Stack\HTTP2.c
              cnt_cnt_cnt   0x0001e8       data     extern E:\Users\Pal\DEVICES\Kern_dev_\SOFT2\MCHP\Kern_v6\Kern\Main.c
                 dwLastIP   0x0001ea       data     static E:\Users\Pal\DEVICES\Kern_dev_\SOFT2\MCHP\Kern_v6\Kern\Main.c
                    t_but   0x0001ee       data     static E:\Users\Pal\DEVICES\Kern_dev_\SOFT2\MCHP\Kern_v6\Kern\Main.c
                 t_chsett   0x0001f2       data     static E:\Users\Pal\DEVICES\Kern_dev_\SOFT2\MCHP\Kern_v6\Kern\Main.c
                   t_trap   0x0001f6       data     static E:\Users\Pal\DEVICES\Kern_dev_\SOFT2\MCHP\Kern_v6\Kern\Main.c
              SuspendFlag   0x0001fa       data     static E:\Users\Pal\DEVICES\Kern_dev_\SOFT2\MCHP\Kern_v6\Kern\Main.c
            ShortPushFlag   0x0001fb       data     static E:\Users\Pal\DEVICES\Kern_dev_\SOFT2\MCHP\Kern_v6\Kern\Main.c
             LongPushFlag   0x0001fc       data     static E:\Users\Pal\DEVICES\Kern_dev_\SOFT2\MCHP\Kern_v6\Kern\Main.c
     ResetIpShortPushTime   0x0001fd       data     static E:\Users\Pal\DEVICES\Kern_dev_\SOFT2\MCHP\Kern_v6\Kern\Main.c
      ResetIpLongPushTime   0x0001fe       data     static E:\Users\Pal\DEVICES\Kern_dev_\SOFT2\MCHP\Kern_v6\Kern\Main.c
           bLastLinkState   0x0001ff       data     static E:\Users\Pal\DEVICES\Kern_dev_\SOFT2\MCHP\Kern_v6\Microchip\TCPIP Stack\StackTsk.c
            UDPSocketInfo   0x000200       data     extern E:\Users\Pal\DEVICES\Kern_dev_\SOFT2\MCHP\Kern_v6\Microchip\TCPIP Stack\UDP.c
          activeUDPSocket   0x0002a8       data     extern E:\Users\Pal\DEVICES\Kern_dev_\SOFT2\MCHP\Kern_v6\Microchip\TCPIP Stack\UDP.c
               UDPTxCount   0x0002a9       data     extern E:\Users\Pal\DEVICES\Kern_dev_\SOFT2\MCHP\Kern_v6\Microchip\TCPIP Stack\UDP.c
               UDPRxCount   0x0002ab       data     extern E:\Users\Pal\DEVICES\Kern_dev_\SOFT2\MCHP\Kern_v6\Microchip\TCPIP Stack\UDP.c
               wPutOffset   0x0002ad       data     static E:\Users\Pal\DEVICES\Kern_dev_\SOFT2\MCHP\Kern_v6\Microchip\TCPIP Stack\UDP.c
               wGetOffset   0x0002af       data     static E:\Users\Pal\DEVICES\Kern_dev_\SOFT2\MCHP\Kern_v6\Microchip\TCPIP Stack\UDP.c
                    Flags   0x0002b1       data     static E:\Users\Pal\DEVICES\Kern_dev_\SOFT2\MCHP\Kern_v6\Microchip\TCPIP Stack\UDP.c
                localPort   0x0002b2       data     static E:\Users\Pal\DEVICES\Kern_dev_\SOFT2\MCHP\Kern_v6\Microchip\TCPIP Stack\UDP.c
              __UDPOpen:0   0x0002b2       data     extern E:\Users\Pal\DEVICES\Kern_dev_\SOFT2\MCHP\Kern_v6\Microchip\TCPIP Stack\UDP.c
               remoteNode   0x0002b4       data     static E:\Users\Pal\DEVICES\Kern_dev_\SOFT2\MCHP\Kern_v6\Microchip\TCPIP Stack\UDP.c
              __UDPOpen:1   0x0002b4       data     extern E:\Users\Pal\DEVICES\Kern_dev_\SOFT2\MCHP\Kern_v6\Microchip\TCPIP Stack\UDP.c
               remotePort   0x0002b6       data     static E:\Users\Pal\DEVICES\Kern_dev_\SOFT2\MCHP\Kern_v6\Microchip\TCPIP Stack\UDP.c
              __UDPOpen:2   0x0002b6       data     extern E:\Users\Pal\DEVICES\Kern_dev_\SOFT2\MCHP\Kern_v6\Microchip\TCPIP Stack\UDP.c
                 NextPort   0x0002b8       data     static E:\Users\Pal\DEVICES\Kern_dev_\SOFT2\MCHP\Kern_v6\Microchip\TCPIP Stack\UDP.c
             __UDPClose:0   0x0002ba       data     extern E:\Users\Pal\DEVICES\Kern_dev_\SOFT2\MCHP\Kern_v6\Microchip\TCPIP Stack\UDP.c
                        s   0x0002ba       data     static E:\Users\Pal\DEVICES\Kern_dev_\SOFT2\MCHP\Kern_v6\Microchip\TCPIP Stack\UDP.c
                  wOffset   0x0002bb       data     static E:\Users\Pal\DEVICES\Kern_dev_\SOFT2\MCHP\Kern_v6\Microchip\TCPIP Stack\UDP.c
       __UDPSetTxBuffer:0   0x0002bb       data     extern E:\Users\Pal\DEVICES\Kern_dev_\SOFT2\MCHP\Kern_v6\Microchip\TCPIP Stack\UDP.c
                  wOffset   0x0002bd       data     static E:\Users\Pal\DEVICES\Kern_dev_\SOFT2\MCHP\Kern_v6\Microchip\TCPIP Stack\UDP.c
       __UDPSetRxBuffer:0   0x0002bd       data     extern E:\Users\Pal\DEVICES\Kern_dev_\SOFT2\MCHP\Kern_v6\Microchip\TCPIP Stack\UDP.c
                        s   0x0002bf       data     static E:\Users\Pal\DEVICES\Kern_dev_\SOFT2\MCHP\Kern_v6\Microchip\TCPIP Stack\UDP.c
        __UDPIsPutReady:0   0x0002bf       data     extern E:\Users\Pal\DEVICES\Kern_dev_\SOFT2\MCHP\Kern_v6\Microchip\TCPIP Stack\UDP.c
               __UDPPut:0   0x0002c0       data     extern E:\Users\Pal\DEVICES\Kern_dev_\SOFT2\MCHP\Kern_v6\Microchip\TCPIP Stack\UDP.c
                        v   0x0002c0       data     static E:\Users\Pal\DEVICES\Kern_dev_\SOFT2\MCHP\Kern_v6\Microchip\TCPIP Stack\UDP.c
                    cData   0x0002c1       data     static E:\Users\Pal\DEVICES\Kern_dev_\SOFT2\MCHP\Kern_v6\Microchip\TCPIP Stack\UDP.c
          __UDPPutArray:0   0x0002c1       data     extern E:\Users\Pal\DEVICES\Kern_dev_\SOFT2\MCHP\Kern_v6\Microchip\TCPIP Stack\UDP.c
                 wDataLen   0x0002c3       data     static E:\Users\Pal\DEVICES\Kern_dev_\SOFT2\MCHP\Kern_v6\Microchip\TCPIP Stack\UDP.c
          __UDPPutArray:1   0x0002c3       data     extern E:\Users\Pal\DEVICES\Kern_dev_\SOFT2\MCHP\Kern_v6\Microchip\TCPIP Stack\UDP.c
       __UDPPutROMArray:0   0x0002c5       data     extern E:\Users\Pal\DEVICES\Kern_dev_\SOFT2\MCHP\Kern_v6\Microchip\TCPIP Stack\UDP.c
                    cData   0x0002c5       data     static E:\Users\Pal\DEVICES\Kern_dev_\SOFT2\MCHP\Kern_v6\Microchip\TCPIP Stack\UDP.c
       __UDPPutROMArray:1   0x0002c8       data     extern E:\Users\Pal\DEVICES\Kern_dev_\SOFT2\MCHP\Kern_v6\Microchip\TCPIP Stack\UDP.c
                 wDataLen   0x0002c8       data     static E:\Users\Pal\DEVICES\Kern_dev_\SOFT2\MCHP\Kern_v6\Microchip\TCPIP Stack\UDP.c
         __UDPPutString:0   0x0002ca       data     extern E:\Users\Pal\DEVICES\Kern_dev_\SOFT2\MCHP\Kern_v6\Microchip\TCPIP Stack\UDP.c
                  strData   0x0002ca       data     static E:\Users\Pal\DEVICES\Kern_dev_\SOFT2\MCHP\Kern_v6\Microchip\TCPIP Stack\UDP.c
      __UDPPutROMString:0   0x0002cc       data     extern E:\Users\Pal\DEVICES\Kern_dev_\SOFT2\MCHP\Kern_v6\Microchip\TCPIP Stack\UDP.c
                  strData   0x0002cc       data     static E:\Users\Pal\DEVICES\Kern_dev_\SOFT2\MCHP\Kern_v6\Microchip\TCPIP Stack\UDP.c
                        s   0x0002cf       data     static E:\Users\Pal\DEVICES\Kern_dev_\SOFT2\MCHP\Kern_v6\Microchip\TCPIP Stack\UDP.c
        __UDPIsGetReady:0   0x0002cf       data     extern E:\Users\Pal\DEVICES\Kern_dev_\SOFT2\MCHP\Kern_v6\Microchip\TCPIP Stack\UDP.c
                        v   0x0002d0       data     static E:\Users\Pal\DEVICES\Kern_dev_\SOFT2\MCHP\Kern_v6\Microchip\TCPIP Stack\UDP.c
               __UDPGet:0   0x0002d0       data     extern E:\Users\Pal\DEVICES\Kern_dev_\SOFT2\MCHP\Kern_v6\Microchip\TCPIP Stack\UDP.c
                    cData   0x0002d2       data     static E:\Users\Pal\DEVICES\Kern_dev_\SOFT2\MCHP\Kern_v6\Microchip\TCPIP Stack\UDP.c
          __UDPGetArray:0   0x0002d2       data     extern E:\Users\Pal\DEVICES\Kern_dev_\SOFT2\MCHP\Kern_v6\Microchip\TCPIP Stack\UDP.c
                 wDataLen   0x0002d4       data     static E:\Users\Pal\DEVICES\Kern_dev_\SOFT2\MCHP\Kern_v6\Microchip\TCPIP Stack\UDP.c
          __UDPGetArray:1   0x0002d4       data     extern E:\Users\Pal\DEVICES\Kern_dev_\SOFT2\MCHP\Kern_v6\Microchip\TCPIP Stack\UDP.c
               remoteNode   0x0002d6       data     static E:\Users\Pal\DEVICES\Kern_dev_\SOFT2\MCHP\Kern_v6\Microchip\TCPIP Stack\UDP.c
           __UDPProcess:0   0x0002d6       data     extern E:\Users\Pal\DEVICES\Kern_dev_\SOFT2\MCHP\Kern_v6\Microchip\TCPIP Stack\UDP.c
                  localIP   0x0002d8       data     static E:\Users\Pal\DEVICES\Kern_dev_\SOFT2\MCHP\Kern_v6\Microchip\TCPIP Stack\UDP.c
           __UDPProcess:1   0x0002d8       data     extern E:\Users\Pal\DEVICES\Kern_dev_\SOFT2\MCHP\Kern_v6\Microchip\TCPIP Stack\UDP.c
                      len   0x0002da       data     static E:\Users\Pal\DEVICES\Kern_dev_\SOFT2\MCHP\Kern_v6\Microchip\TCPIP Stack\UDP.c
           __UDPProcess:2   0x0002da       data     extern E:\Users\Pal\DEVICES\Kern_dev_\SOFT2\MCHP\Kern_v6\Microchip\TCPIP Stack\UDP.c
   __FindMatchingSocket:0   0x0002dc       data     static E:\Users\Pal\DEVICES\Kern_dev_\SOFT2\MCHP\Kern_v6\Microchip\TCPIP Stack\UDP.c
                        h   0x0002dc       data     static E:\Users\Pal\DEVICES\Kern_dev_\SOFT2\MCHP\Kern_v6\Microchip\TCPIP Stack\UDP.c
   __FindMatchingSocket:1   0x0002de       data     static E:\Users\Pal\DEVICES\Kern_dev_\SOFT2\MCHP\Kern_v6\Microchip\TCPIP Stack\UDP.c
               remoteNode   0x0002de       data     static E:\Users\Pal\DEVICES\Kern_dev_\SOFT2\MCHP\Kern_v6\Microchip\TCPIP Stack\UDP.c
   __FindMatchingSocket:2   0x0002e0       data     static E:\Users\Pal\DEVICES\Kern_dev_\SOFT2\MCHP\Kern_v6\Microchip\TCPIP Stack\UDP.c
                  localIP   0x0002e0       data     static E:\Users\Pal\DEVICES\Kern_dev_\SOFT2\MCHP\Kern_v6\Microchip\TCPIP Stack\UDP.c
                    Cache   0x0002e2       data     static E:\Users\Pal\DEVICES\Kern_dev_\SOFT2\MCHP\Kern_v6\Microchip\TCPIP Stack\ARP.c
               __ARPPut:0   0x0002ec       data     static E:\Users\Pal\DEVICES\Kern_dev_\SOFT2\MCHP\Kern_v6\Microchip\TCPIP Stack\ARP.c
                   packet   0x0002ec       data     static E:\Users\Pal\DEVICES\Kern_dev_\SOFT2\MCHP\Kern_v6\Microchip\TCPIP Stack\ARP.c
                   Target   0x0002ee       data     static E:\Users\Pal\DEVICES\Kern_dev_\SOFT2\MCHP\Kern_v6\Microchip\TCPIP Stack\ARP.c
           __ARPResolve:0   0x0002f8       data     extern E:\Users\Pal\DEVICES\Kern_dev_\SOFT2\MCHP\Kern_v6\Microchip\TCPIP Stack\ARP.c
                   IPAddr   0x0002f8       data     static E:\Users\Pal\DEVICES\Kern_dev_\SOFT2\MCHP\Kern_v6\Microchip\TCPIP Stack\ARP.c
        __ARPIsResolved:0   0x0002fa       data     extern E:\Users\Pal\DEVICES\Kern_dev_\SOFT2\MCHP\Kern_v6\Microchip\TCPIP Stack\ARP.c
                   IPAddr   0x0002fa       data     static E:\Users\Pal\DEVICES\Kern_dev_\SOFT2\MCHP\Kern_v6\Microchip\TCPIP Stack\ARP.c
        __ARPIsResolved:1   0x0002fc       data     extern E:\Users\Pal\DEVICES\Kern_dev_\SOFT2\MCHP\Kern_v6\Microchip\TCPIP Stack\ARP.c
                  MACAddr   0x0002fc       data     static E:\Users\Pal\DEVICES\Kern_dev_\SOFT2\MCHP\Kern_v6\Microchip\TCPIP Stack\ARP.c
        __SwapARPPacket:0   0x0002fe       data     extern E:\Users\Pal\DEVICES\Kern_dev_\SOFT2\MCHP\Kern_v6\Microchip\TCPIP Stack\ARP.c
                        p   0x0002fe       data     static E:\Users\Pal\DEVICES\Kern_dev_\SOFT2\MCHP\Kern_v6\Microchip\TCPIP Stack\ARP.c
                 NextPort   0x000300       data     static E:\Users\Pal\DEVICES\Kern_dev_\SOFT2\MCHP\Kern_v6\Microchip\TCPIP Stack\TCP.c
                    MyTCB   0x000302       data     static E:\Users\Pal\DEVICES\Kern_dev_\SOFT2\MCHP\Kern_v6\Microchip\TCPIP Stack\TCP.c
                MyTCBStub   0x000329       data     static E:\Users\Pal\DEVICES\Kern_dev_\SOFT2\MCHP\Kern_v6\Microchip\TCPIP Stack\TCP.c
                     hTCP   0x000345       data     static E:\Users\Pal\DEVICES\Kern_dev_\SOFT2\MCHP\Kern_v6\Microchip\TCPIP Stack\TCP.c
          __SyncTCBStub:0   0x000345       data     static E:\Users\Pal\DEVICES\Kern_dev_\SOFT2\MCHP\Kern_v6\Microchip\TCPIP Stack\TCP.c
              __TCPOpen:0   0x000346       data     extern E:\Users\Pal\DEVICES\Kern_dev_\SOFT2\MCHP\Kern_v6\Microchip\TCPIP Stack\TCP.c
             dwRemoteHost   0x000346       data     static E:\Users\Pal\DEVICES\Kern_dev_\SOFT2\MCHP\Kern_v6\Microchip\TCPIP Stack\TCP.c
              __TCPOpen:1   0x00034a       data     extern E:\Users\Pal\DEVICES\Kern_dev_\SOFT2\MCHP\Kern_v6\Microchip\TCPIP Stack\TCP.c
          vRemoteHostType   0x00034a       data     static E:\Users\Pal\DEVICES\Kern_dev_\SOFT2\MCHP\Kern_v6\Microchip\TCPIP Stack\TCP.c
              __TCPOpen:2   0x00034b       data     extern E:\Users\Pal\DEVICES\Kern_dev_\SOFT2\MCHP\Kern_v6\Microchip\TCPIP Stack\TCP.c
                    wPort   0x00034b       data     static E:\Users\Pal\DEVICES\Kern_dev_\SOFT2\MCHP\Kern_v6\Microchip\TCPIP Stack\TCP.c
              __TCPOpen:3   0x00034d       data     extern E:\Users\Pal\DEVICES\Kern_dev_\SOFT2\MCHP\Kern_v6\Microchip\TCPIP Stack\TCP.c
           vSocketPurpose   0x00034d       data     static E:\Users\Pal\DEVICES\Kern_dev_\SOFT2\MCHP\Kern_v6\Microchip\TCPIP Stack\TCP.c
                     hTCP   0x00034e       data     static E:\Users\Pal\DEVICES\Kern_dev_\SOFT2\MCHP\Kern_v6\Microchip\TCPIP Stack\TCP.c
          __TCPWasReset:0   0x00034e       data     extern E:\Users\Pal\DEVICES\Kern_dev_\SOFT2\MCHP\Kern_v6\Microchip\TCPIP Stack\TCP.c
       __TCPIsConnected:0   0x00034f       data     extern E:\Users\Pal\DEVICES\Kern_dev_\SOFT2\MCHP\Kern_v6\Microchip\TCPIP Stack\TCP.c
                     hTCP   0x00034f       data     static E:\Users\Pal\DEVICES\Kern_dev_\SOFT2\MCHP\Kern_v6\Microchip\TCPIP Stack\TCP.c
        __TCPDisconnect:0   0x000350       data     extern E:\Users\Pal\DEVICES\Kern_dev_\SOFT2\MCHP\Kern_v6\Microchip\TCPIP Stack\TCP.c
                     hTCP   0x000350       data     static E:\Users\Pal\DEVICES\Kern_dev_\SOFT2\MCHP\Kern_v6\Microchip\TCPIP Stack\TCP.c
             __TCPClose:0   0x000351       data     extern E:\Users\Pal\DEVICES\Kern_dev_\SOFT2\MCHP\Kern_v6\Microchip\TCPIP Stack\TCP.c
                     hTCP   0x000351       data     static E:\Users\Pal\DEVICES\Kern_dev_\SOFT2\MCHP\Kern_v6\Microchip\TCPIP Stack\TCP.c
                     hTCP   0x000352       data     static E:\Users\Pal\DEVICES\Kern_dev_\SOFT2\MCHP\Kern_v6\Microchip\TCPIP Stack\TCP.c
     __TCPGetRemoteInfo:0   0x000352       data     extern E:\Users\Pal\DEVICES\Kern_dev_\SOFT2\MCHP\Kern_v6\Microchip\TCPIP Stack\TCP.c
               RemoteInfo   0x000353       data     static E:\Users\Pal\DEVICES\Kern_dev_\SOFT2\MCHP\Kern_v6\Microchip\TCPIP Stack\TCP.c
                     hTCP   0x00035f       data     static E:\Users\Pal\DEVICES\Kern_dev_\SOFT2\MCHP\Kern_v6\Microchip\TCPIP Stack\TCP.c
             __TCPFlush:0   0x00035f       data     extern E:\Users\Pal\DEVICES\Kern_dev_\SOFT2\MCHP\Kern_v6\Microchip\TCPIP Stack\TCP.c
                     hTCP   0x000360       data     static E:\Users\Pal\DEVICES\Kern_dev_\SOFT2\MCHP\Kern_v6\Microchip\TCPIP Stack\TCP.c
        __TCPIsPutReady:0   0x000360       data     extern E:\Users\Pal\DEVICES\Kern_dev_\SOFT2\MCHP\Kern_v6\Microchip\TCPIP Stack\TCP.c
               __TCPPut:0   0x000361       data     extern E:\Users\Pal\DEVICES\Kern_dev_\SOFT2\MCHP\Kern_v6\Microchip\TCPIP Stack\TCP.c
                     hTCP   0x000361       data     static E:\Users\Pal\DEVICES\Kern_dev_\SOFT2\MCHP\Kern_v6\Microchip\TCPIP Stack\TCP.c
               __TCPPut:1   0x000362       data     extern E:\Users\Pal\DEVICES\Kern_dev_\SOFT2\MCHP\Kern_v6\Microchip\TCPIP Stack\TCP.c
                     byte   0x000362       data     static E:\Users\Pal\DEVICES\Kern_dev_\SOFT2\MCHP\Kern_v6\Microchip\TCPIP Stack\TCP.c
                     hTCP   0x000363       data     static E:\Users\Pal\DEVICES\Kern_dev_\SOFT2\MCHP\Kern_v6\Microchip\TCPIP Stack\TCP.c
          __TCPPutArray:0   0x000363       data     extern E:\Users\Pal\DEVICES\Kern_dev_\SOFT2\MCHP\Kern_v6\Microchip\TCPIP Stack\TCP.c
          __TCPPutArray:1   0x000364       data     extern E:\Users\Pal\DEVICES\Kern_dev_\SOFT2\MCHP\Kern_v6\Microchip\TCPIP Stack\TCP.c
                     data   0x000364       data     static E:\Users\Pal\DEVICES\Kern_dev_\SOFT2\MCHP\Kern_v6\Microchip\TCPIP Stack\TCP.c
          __TCPPutArray:2   0x000366       data     extern E:\Users\Pal\DEVICES\Kern_dev_\SOFT2\MCHP\Kern_v6\Microchip\TCPIP Stack\TCP.c
                      len   0x000366       data     static E:\Users\Pal\DEVICES\Kern_dev_\SOFT2\MCHP\Kern_v6\Microchip\TCPIP Stack\TCP.c
                     hTCP   0x000368       data     static E:\Users\Pal\DEVICES\Kern_dev_\SOFT2\MCHP\Kern_v6\Microchip\TCPIP Stack\TCP.c
       __TCPPutROMArray:0   0x000368       data     extern E:\Users\Pal\DEVICES\Kern_dev_\SOFT2\MCHP\Kern_v6\Microchip\TCPIP Stack\TCP.c
       __TCPPutROMArray:1   0x000369       data     extern E:\Users\Pal\DEVICES\Kern_dev_\SOFT2\MCHP\Kern_v6\Microchip\TCPIP Stack\TCP.c
                     data   0x000369       data     static E:\Users\Pal\DEVICES\Kern_dev_\SOFT2\MCHP\Kern_v6\Microchip\TCPIP Stack\TCP.c
       __TCPPutROMArray:2   0x00036c       data     extern E:\Users\Pal\DEVICES\Kern_dev_\SOFT2\MCHP\Kern_v6\Microchip\TCPIP Stack\TCP.c
                      len   0x00036c       data     static E:\Users\Pal\DEVICES\Kern_dev_\SOFT2\MCHP\Kern_v6\Microchip\TCPIP Stack\TCP.c
         __TCPPutString:0   0x00036e       data     extern E:\Users\Pal\DEVICES\Kern_dev_\SOFT2\MCHP\Kern_v6\Microchip\TCPIP Stack\TCP.c
                     hTCP   0x00036e       data     static E:\Users\Pal\DEVICES\Kern_dev_\SOFT2\MCHP\Kern_v6\Microchip\TCPIP Stack\TCP.c
         __TCPPutString:1   0x00036f       data     extern E:\Users\Pal\DEVICES\Kern_dev_\SOFT2\MCHP\Kern_v6\Microchip\TCPIP Stack\TCP.c
                     data   0x00036f       data     static E:\Users\Pal\DEVICES\Kern_dev_\SOFT2\MCHP\Kern_v6\Microchip\TCPIP Stack\TCP.c
                     hTCP   0x000371       data     static E:\Users\Pal\DEVICES\Kern_dev_\SOFT2\MCHP\Kern_v6\Microchip\TCPIP Stack\TCP.c
      __TCPPutROMString:0   0x000371       data     extern E:\Users\Pal\DEVICES\Kern_dev_\SOFT2\MCHP\Kern_v6\Microchip\TCPIP Stack\TCP.c
      __TCPPutROMString:1   0x000372       data     extern E:\Users\Pal\DEVICES\Kern_dev_\SOFT2\MCHP\Kern_v6\Microchip\TCPIP Stack\TCP.c
                     data   0x000372       data     static E:\Users\Pal\DEVICES\Kern_dev_\SOFT2\MCHP\Kern_v6\Microchip\TCPIP Stack\TCP.c
     __TCPGetTxFIFOFull:0   0x000375       data     extern E:\Users\Pal\DEVICES\Kern_dev_\SOFT2\MCHP\Kern_v6\Microchip\TCPIP Stack\TCP.c
                     hTCP   0x000375       data     static E:\Users\Pal\DEVICES\Kern_dev_\SOFT2\MCHP\Kern_v6\Microchip\TCPIP Stack\TCP.c
           __TCPDiscard:0   0x000376       data     extern E:\Users\Pal\DEVICES\Kern_dev_\SOFT2\MCHP\Kern_v6\Microchip\TCPIP Stack\TCP.c
                     hTCP   0x000376       data     static E:\Users\Pal\DEVICES\Kern_dev_\SOFT2\MCHP\Kern_v6\Microchip\TCPIP Stack\TCP.c
                     hTCP   0x000377       data     static E:\Users\Pal\DEVICES\Kern_dev_\SOFT2\MCHP\Kern_v6\Microchip\TCPIP Stack\TCP.c
        __TCPIsGetReady:0   0x000377       data     extern E:\Users\Pal\DEVICES\Kern_dev_\SOFT2\MCHP\Kern_v6\Microchip\TCPIP Stack\TCP.c
               __TCPGet:0   0x000378       data     extern E:\Users\Pal\DEVICES\Kern_dev_\SOFT2\MCHP\Kern_v6\Microchip\TCPIP Stack\TCP.c
                     hTCP   0x000378       data     static E:\Users\Pal\DEVICES\Kern_dev_\SOFT2\MCHP\Kern_v6\Microchip\TCPIP Stack\TCP.c
                     byte   0x000379       data     static E:\Users\Pal\DEVICES\Kern_dev_\SOFT2\MCHP\Kern_v6\Microchip\TCPIP Stack\TCP.c
               __TCPGet:1   0x000379       data     extern E:\Users\Pal\DEVICES\Kern_dev_\SOFT2\MCHP\Kern_v6\Microchip\TCPIP Stack\TCP.c
          __TCPGetArray:0   0x00037b       data     extern E:\Users\Pal\DEVICES\Kern_dev_\SOFT2\MCHP\Kern_v6\Microchip\TCPIP Stack\TCP.c
                     hTCP   0x00037b       data     static E:\Users\Pal\DEVICES\Kern_dev_\SOFT2\MCHP\Kern_v6\Microchip\TCPIP Stack\TCP.c
          __TCPGetArray:1   0x00037c       data     extern E:\Users\Pal\DEVICES\Kern_dev_\SOFT2\MCHP\Kern_v6\Microchip\TCPIP Stack\TCP.c
                   buffer   0x00037c       data     static E:\Users\Pal\DEVICES\Kern_dev_\SOFT2\MCHP\Kern_v6\Microchip\TCPIP Stack\TCP.c
          __TCPGetArray:2   0x00037e       data     extern E:\Users\Pal\DEVICES\Kern_dev_\SOFT2\MCHP\Kern_v6\Microchip\TCPIP Stack\TCP.c
                      len   0x00037e       data     static E:\Users\Pal\DEVICES\Kern_dev_\SOFT2\MCHP\Kern_v6\Microchip\TCPIP Stack\TCP.c
                     hTCP   0x000380       data     static E:\Users\Pal\DEVICES\Kern_dev_\SOFT2\MCHP\Kern_v6\Microchip\TCPIP Stack\TCP.c
     __TCPGetRxFIFOFree:0   0x000380       data     extern E:\Users\Pal\DEVICES\Kern_dev_\SOFT2\MCHP\Kern_v6\Microchip\TCPIP Stack\TCP.c
                     hTCP   0x000381       data     static E:\Users\Pal\DEVICES\Kern_dev_\SOFT2\MCHP\Kern_v6\Microchip\TCPIP Stack\TCP.c
         __TCPPeekArray:0   0x000381       data     extern E:\Users\Pal\DEVICES\Kern_dev_\SOFT2\MCHP\Kern_v6\Microchip\TCPIP Stack\TCP.c
                  vBuffer   0x000382       data     static E:\Users\Pal\DEVICES\Kern_dev_\SOFT2\MCHP\Kern_v6\Microchip\TCPIP Stack\TCP.c
         __TCPPeekArray:1   0x000382       data     extern E:\Users\Pal\DEVICES\Kern_dev_\SOFT2\MCHP\Kern_v6\Microchip\TCPIP Stack\TCP.c
                     wLen   0x000384       data     static E:\Users\Pal\DEVICES\Kern_dev_\SOFT2\MCHP\Kern_v6\Microchip\TCPIP Stack\TCP.c
         __TCPPeekArray:2   0x000384       data     extern E:\Users\Pal\DEVICES\Kern_dev_\SOFT2\MCHP\Kern_v6\Microchip\TCPIP Stack\TCP.c
         __TCPPeekArray:3   0x000386       data     extern E:\Users\Pal\DEVICES\Kern_dev_\SOFT2\MCHP\Kern_v6\Microchip\TCPIP Stack\TCP.c
                   wStart   0x000386       data     static E:\Users\Pal\DEVICES\Kern_dev_\SOFT2\MCHP\Kern_v6\Microchip\TCPIP Stack\TCP.c
              __TCPPeek:0   0x000388       data     extern E:\Users\Pal\DEVICES\Kern_dev_\SOFT2\MCHP\Kern_v6\Microchip\TCPIP Stack\TCP.c
                     hTCP   0x000388       data     static E:\Users\Pal\DEVICES\Kern_dev_\SOFT2\MCHP\Kern_v6\Microchip\TCPIP Stack\TCP.c
                   wStart   0x000389       data     static E:\Users\Pal\DEVICES\Kern_dev_\SOFT2\MCHP\Kern_v6\Microchip\TCPIP Stack\TCP.c
              __TCPPeek:1   0x000389       data     extern E:\Users\Pal\DEVICES\Kern_dev_\SOFT2\MCHP\Kern_v6\Microchip\TCPIP Stack\TCP.c
                     hTCP   0x00038b       data     static E:\Users\Pal\DEVICES\Kern_dev_\SOFT2\MCHP\Kern_v6\Microchip\TCPIP Stack\TCP.c
       __TCPFindArrayEx:0   0x00038b       data     extern E:\Users\Pal\DEVICES\Kern_dev_\SOFT2\MCHP\Kern_v6\Microchip\TCPIP Stack\TCP.c
               cFindArray   0x00038c       data     static E:\Users\Pal\DEVICES\Kern_dev_\SOFT2\MCHP\Kern_v6\Microchip\TCPIP Stack\TCP.c
       __TCPFindArrayEx:1   0x00038c       data     extern E:\Users\Pal\DEVICES\Kern_dev_\SOFT2\MCHP\Kern_v6\Microchip\TCPIP Stack\TCP.c
       __TCPFindArrayEx:2   0x00038e       data     extern E:\Users\Pal\DEVICES\Kern_dev_\SOFT2\MCHP\Kern_v6\Microchip\TCPIP Stack\TCP.c
                     wLen   0x00038e       data     static E:\Users\Pal\DEVICES\Kern_dev_\SOFT2\MCHP\Kern_v6\Microchip\TCPIP Stack\TCP.c
                   wStart   0x000390       data     static E:\Users\Pal\DEVICES\Kern_dev_\SOFT2\MCHP\Kern_v6\Microchip\TCPIP Stack\TCP.c
       __TCPFindArrayEx:3   0x000390       data     extern E:\Users\Pal\DEVICES\Kern_dev_\SOFT2\MCHP\Kern_v6\Microchip\TCPIP Stack\TCP.c
               wSearchLen   0x000392       data     static E:\Users\Pal\DEVICES\Kern_dev_\SOFT2\MCHP\Kern_v6\Microchip\TCPIP Stack\TCP.c
       __TCPFindArrayEx:4   0x000392       data     extern E:\Users\Pal\DEVICES\Kern_dev_\SOFT2\MCHP\Kern_v6\Microchip\TCPIP Stack\TCP.c
             bTextCompare   0x000394       data     static E:\Users\Pal\DEVICES\Kern_dev_\SOFT2\MCHP\Kern_v6\Microchip\TCPIP Stack\TCP.c
       __TCPFindArrayEx:5   0x000394       data     extern E:\Users\Pal\DEVICES\Kern_dev_\SOFT2\MCHP\Kern_v6\Microchip\TCPIP Stack\TCP.c
                     hTCP   0x000395       data     static E:\Users\Pal\DEVICES\Kern_dev_\SOFT2\MCHP\Kern_v6\Microchip\TCPIP Stack\TCP.c
    __TCPFindROMArrayEx:0   0x000395       data     extern E:\Users\Pal\DEVICES\Kern_dev_\SOFT2\MCHP\Kern_v6\Microchip\TCPIP Stack\TCP.c
               cFindArray   0x000396       data     static E:\Users\Pal\DEVICES\Kern_dev_\SOFT2\MCHP\Kern_v6\Microchip\TCPIP Stack\TCP.c
    __TCPFindROMArrayEx:1   0x000396       data     extern E:\Users\Pal\DEVICES\Kern_dev_\SOFT2\MCHP\Kern_v6\Microchip\TCPIP Stack\TCP.c
                     wLen   0x000399       data     static E:\Users\Pal\DEVICES\Kern_dev_\SOFT2\MCHP\Kern_v6\Microchip\TCPIP Stack\TCP.c
    __TCPFindROMArrayEx:2   0x000399       data     extern E:\Users\Pal\DEVICES\Kern_dev_\SOFT2\MCHP\Kern_v6\Microchip\TCPIP Stack\TCP.c
                   wStart   0x00039b       data     static E:\Users\Pal\DEVICES\Kern_dev_\SOFT2\MCHP\Kern_v6\Microchip\TCPIP Stack\TCP.c
    __TCPFindROMArrayEx:3   0x00039b       data     extern E:\Users\Pal\DEVICES\Kern_dev_\SOFT2\MCHP\Kern_v6\Microchip\TCPIP Stack\TCP.c
    __TCPFindROMArrayEx:4   0x00039d       data     extern E:\Users\Pal\DEVICES\Kern_dev_\SOFT2\MCHP\Kern_v6\Microchip\TCPIP Stack\TCP.c
               wSearchLen   0x00039d       data     static E:\Users\Pal\DEVICES\Kern_dev_\SOFT2\MCHP\Kern_v6\Microchip\TCPIP Stack\TCP.c
             bTextCompare   0x00039f       data     static E:\Users\Pal\DEVICES\Kern_dev_\SOFT2\MCHP\Kern_v6\Microchip\TCPIP Stack\TCP.c
    __TCPFindROMArrayEx:5   0x00039f       data     extern E:\Users\Pal\DEVICES\Kern_dev_\SOFT2\MCHP\Kern_v6\Microchip\TCPIP Stack\TCP.c
                     hTCP   0x0003a0       data     static E:\Users\Pal\DEVICES\Kern_dev_\SOFT2\MCHP\Kern_v6\Microchip\TCPIP Stack\TCP.c
            __TCPFindEx:0   0x0003a0       data     extern E:\Users\Pal\DEVICES\Kern_dev_\SOFT2\MCHP\Kern_v6\Microchip\TCPIP Stack\TCP.c
                    cFind   0x0003a1       data     static E:\Users\Pal\DEVICES\Kern_dev_\SOFT2\MCHP\Kern_v6\Microchip\TCPIP Stack\TCP.c
            __TCPFindEx:1   0x0003a1       data     extern E:\Users\Pal\DEVICES\Kern_dev_\SOFT2\MCHP\Kern_v6\Microchip\TCPIP Stack\TCP.c
            __TCPFindEx:2   0x0003a2       data     extern E:\Users\Pal\DEVICES\Kern_dev_\SOFT2\MCHP\Kern_v6\Microchip\TCPIP Stack\TCP.c
                   wStart   0x0003a2       data     static E:\Users\Pal\DEVICES\Kern_dev_\SOFT2\MCHP\Kern_v6\Microchip\TCPIP Stack\TCP.c
               wSearchLen   0x0003a4       data     static E:\Users\Pal\DEVICES\Kern_dev_\SOFT2\MCHP\Kern_v6\Microchip\TCPIP Stack\TCP.c
            __TCPFindEx:3   0x0003a4       data     extern E:\Users\Pal\DEVICES\Kern_dev_\SOFT2\MCHP\Kern_v6\Microchip\TCPIP Stack\TCP.c
            __TCPFindEx:4   0x0003a6       data     extern E:\Users\Pal\DEVICES\Kern_dev_\SOFT2\MCHP\Kern_v6\Microchip\TCPIP Stack\TCP.c
             bTextCompare   0x0003a6       data     static E:\Users\Pal\DEVICES\Kern_dev_\SOFT2\MCHP\Kern_v6\Microchip\TCPIP Stack\TCP.c
                   remote   0x0003a7       data     static E:\Users\Pal\DEVICES\Kern_dev_\SOFT2\MCHP\Kern_v6\Microchip\TCPIP Stack\TCP.c
           __TCPProcess:0   0x0003a7       data     extern E:\Users\Pal\DEVICES\Kern_dev_\SOFT2\MCHP\Kern_v6\Microchip\TCPIP Stack\TCP.c
                  localIP   0x0003a9       data     static E:\Users\Pal\DEVICES\Kern_dev_\SOFT2\MCHP\Kern_v6\Microchip\TCPIP Stack\TCP.c
           __TCPProcess:1   0x0003a9       data     extern E:\Users\Pal\DEVICES\Kern_dev_\SOFT2\MCHP\Kern_v6\Microchip\TCPIP Stack\TCP.c
                      len   0x0003ab       data     static E:\Users\Pal\DEVICES\Kern_dev_\SOFT2\MCHP\Kern_v6\Microchip\TCPIP Stack\TCP.c
           __TCPProcess:2   0x0003ab       data     extern E:\Users\Pal\DEVICES\Kern_dev_\SOFT2\MCHP\Kern_v6\Microchip\TCPIP Stack\TCP.c
              __SendTCP:0   0x0003ad       data     static E:\Users\Pal\DEVICES\Kern_dev_\SOFT2\MCHP\Kern_v6\Microchip\TCPIP Stack\TCP.c
                vTCPFlags   0x0003ad       data     static E:\Users\Pal\DEVICES\Kern_dev_\SOFT2\MCHP\Kern_v6\Microchip\TCPIP Stack\TCP.c
               vSendFlags   0x0003ae       data     static E:\Users\Pal\DEVICES\Kern_dev_\SOFT2\MCHP\Kern_v6\Microchip\TCPIP Stack\TCP.c
              __SendTCP:1   0x0003ae       data     static E:\Users\Pal\DEVICES\Kern_dev_\SOFT2\MCHP\Kern_v6\Microchip\TCPIP Stack\TCP.c
                        h   0x0003af       data     static E:\Users\Pal\DEVICES\Kern_dev_\SOFT2\MCHP\Kern_v6\Microchip\TCPIP Stack\TCP.c
   __FindMatchingSocket:0   0x0003af       data     static E:\Users\Pal\DEVICES\Kern_dev_\SOFT2\MCHP\Kern_v6\Microchip\TCPIP Stack\TCP.c
                   remote   0x0003b1       data     static E:\Users\Pal\DEVICES\Kern_dev_\SOFT2\MCHP\Kern_v6\Microchip\TCPIP Stack\TCP.c
   __FindMatchingSocket:1   0x0003b1       data     static E:\Users\Pal\DEVICES\Kern_dev_\SOFT2\MCHP\Kern_v6\Microchip\TCPIP Stack\TCP.c
                   header   0x0003b3       data     static E:\Users\Pal\DEVICES\Kern_dev_\SOFT2\MCHP\Kern_v6\Microchip\TCPIP Stack\TCP.c
        __SwapTCPHeader:0   0x0003b3       data     static E:\Users\Pal\DEVICES\Kern_dev_\SOFT2\MCHP\Kern_v6\Microchip\TCPIP Stack\TCP.c
         __HandleTCPSeg:0   0x0003b5       data     static E:\Users\Pal\DEVICES\Kern_dev_\SOFT2\MCHP\Kern_v6\Microchip\TCPIP Stack\TCP.c
                        h   0x0003b5       data     static E:\Users\Pal\DEVICES\Kern_dev_\SOFT2\MCHP\Kern_v6\Microchip\TCPIP Stack\TCP.c
                      len   0x0003b7       data     static E:\Users\Pal\DEVICES\Kern_dev_\SOFT2\MCHP\Kern_v6\Microchip\TCPIP Stack\TCP.c
         __HandleTCPSeg:1   0x0003b7       data     static E:\Users\Pal\DEVICES\Kern_dev_\SOFT2\MCHP\Kern_v6\Microchip\TCPIP Stack\TCP.c
                     hTCP   0x0003b9       data     static E:\Users\Pal\DEVICES\Kern_dev_\SOFT2\MCHP\Kern_v6\Microchip\TCPIP Stack\TCP.c
    __TCPAdjustFIFOSize:0   0x0003b9       data     extern E:\Users\Pal\DEVICES\Kern_dev_\SOFT2\MCHP\Kern_v6\Microchip\TCPIP Stack\TCP.c
               wMinRXSize   0x0003ba       data     static E:\Users\Pal\DEVICES\Kern_dev_\SOFT2\MCHP\Kern_v6\Microchip\TCPIP Stack\TCP.c
    __TCPAdjustFIFOSize:1   0x0003ba       data     extern E:\Users\Pal\DEVICES\Kern_dev_\SOFT2\MCHP\Kern_v6\Microchip\TCPIP Stack\TCP.c
               wMinTXSize   0x0003bc       data     static E:\Users\Pal\DEVICES\Kern_dev_\SOFT2\MCHP\Kern_v6\Microchip\TCPIP Stack\TCP.c
    __TCPAdjustFIFOSize:2   0x0003bc       data     extern E:\Users\Pal\DEVICES\Kern_dev_\SOFT2\MCHP\Kern_v6\Microchip\TCPIP Stack\TCP.c
    __TCPAdjustFIFOSize:3   0x0003be       data     extern E:\Users\Pal\DEVICES\Kern_dev_\SOFT2\MCHP\Kern_v6\Microchip\TCPIP Stack\TCP.c
                   vFlags   0x0003be       data     static E:\Users\Pal\DEVICES\Kern_dev_\SOFT2\MCHP\Kern_v6\Microchip\TCPIP Stack\TCP.c
                  ptrDest   0x0003bf       data     static E:\Users\Pal\DEVICES\Kern_dev_\SOFT2\MCHP\Kern_v6\Microchip\TCPIP Stack\TCP.c
           __TCPRAMCopy:0   0x0003bf       data     static E:\Users\Pal\DEVICES\Kern_dev_\SOFT2\MCHP\Kern_v6\Microchip\TCPIP Stack\TCP.c
                vDestType   0x0003c1       data     static E:\Users\Pal\DEVICES\Kern_dev_\SOFT2\MCHP\Kern_v6\Microchip\TCPIP Stack\TCP.c
           __TCPRAMCopy:1   0x0003c1       data     static E:\Users\Pal\DEVICES\Kern_dev_\SOFT2\MCHP\Kern_v6\Microchip\TCPIP Stack\TCP.c
                ptrSource   0x0003c2       data     static E:\Users\Pal\DEVICES\Kern_dev_\SOFT2\MCHP\Kern_v6\Microchip\TCPIP Stack\TCP.c
           __TCPRAMCopy:2   0x0003c2       data     static E:\Users\Pal\DEVICES\Kern_dev_\SOFT2\MCHP\Kern_v6\Microchip\TCPIP Stack\TCP.c
           __TCPRAMCopy:3   0x0003c4       data     static E:\Users\Pal\DEVICES\Kern_dev_\SOFT2\MCHP\Kern_v6\Microchip\TCPIP Stack\TCP.c
              vSourceType   0x0003c4       data     static E:\Users\Pal\DEVICES\Kern_dev_\SOFT2\MCHP\Kern_v6\Microchip\TCPIP Stack\TCP.c
                  wLength   0x0003c5       data     static E:\Users\Pal\DEVICES\Kern_dev_\SOFT2\MCHP\Kern_v6\Microchip\TCPIP Stack\TCP.c
           __TCPRAMCopy:4   0x0003c5       data     static E:\Users\Pal\DEVICES\Kern_dev_\SOFT2\MCHP\Kern_v6\Microchip\TCPIP Stack\TCP.c
                    wDest   0x0003c7       data     static E:\Users\Pal\DEVICES\Kern_dev_\SOFT2\MCHP\Kern_v6\Microchip\TCPIP Stack\TCP.c
        __TCPRAMCopyROM:0   0x0003c7       data     static E:\Users\Pal\DEVICES\Kern_dev_\SOFT2\MCHP\Kern_v6\Microchip\TCPIP Stack\TCP.c
                wDestType   0x0003c9       data     static E:\Users\Pal\DEVICES\Kern_dev_\SOFT2\MCHP\Kern_v6\Microchip\TCPIP Stack\TCP.c
        __TCPRAMCopyROM:1   0x0003c9       data     static E:\Users\Pal\DEVICES\Kern_dev_\SOFT2\MCHP\Kern_v6\Microchip\TCPIP Stack\TCP.c
                  wSource   0x0003ca       data     static E:\Users\Pal\DEVICES\Kern_dev_\SOFT2\MCHP\Kern_v6\Microchip\TCPIP Stack\TCP.c
        __TCPRAMCopyROM:2   0x0003ca       data     static E:\Users\Pal\DEVICES\Kern_dev_\SOFT2\MCHP\Kern_v6\Microchip\TCPIP Stack\TCP.c
        __TCPRAMCopyROM:3   0x0003cd       data     static E:\Users\Pal\DEVICES\Kern_dev_\SOFT2\MCHP\Kern_v6\Microchip\TCPIP Stack\TCP.c
                  wLength   0x0003cd       data     static E:\Users\Pal\DEVICES\Kern_dev_\SOFT2\MCHP\Kern_v6\Microchip\TCPIP Stack\TCP.c
               DHCPClient   0x0003cf       data     static E:\Users\Pal\DEVICES\Kern_dev_\SOFT2\MCHP\Kern_v6\Microchip\TCPIP Stack\DHCP.c
               vInterface   0x0003eb       data     static E:\Users\Pal\DEVICES\Kern_dev_\SOFT2\MCHP\Kern_v6\Microchip\TCPIP Stack\DHCP.c
             __DHCPInit:0   0x0003eb       data     extern E:\Users\Pal\DEVICES\Kern_dev_\SOFT2\MCHP\Kern_v6\Microchip\TCPIP Stack\DHCP.c
          __DHCPDisable:0   0x0003ec       data     extern E:\Users\Pal\DEVICES\Kern_dev_\SOFT2\MCHP\Kern_v6\Microchip\TCPIP Stack\DHCP.c
               vInterface   0x0003ec       data     static E:\Users\Pal\DEVICES\Kern_dev_\SOFT2\MCHP\Kern_v6\Microchip\TCPIP Stack\DHCP.c
           __DHCPEnable:0   0x0003ed       data     extern E:\Users\Pal\DEVICES\Kern_dev_\SOFT2\MCHP\Kern_v6\Microchip\TCPIP Stack\DHCP.c
               vInterface   0x0003ed       data     static E:\Users\Pal\DEVICES\Kern_dev_\SOFT2\MCHP\Kern_v6\Microchip\TCPIP Stack\DHCP.c
        __DHCPIsEnabled:0   0x0003ee       data     extern E:\Users\Pal\DEVICES\Kern_dev_\SOFT2\MCHP\Kern_v6\Microchip\TCPIP Stack\DHCP.c
               vInterface   0x0003ee       data     static E:\Users\Pal\DEVICES\Kern_dev_\SOFT2\MCHP\Kern_v6\Microchip\TCPIP Stack\DHCP.c
               vInterface   0x0003ef       data     static E:\Users\Pal\DEVICES\Kern_dev_\SOFT2\MCHP\Kern_v6\Microchip\TCPIP Stack\DHCP.c
          __DHCPIsBound:0   0x0003ef       data     extern E:\Users\Pal\DEVICES\Kern_dev_\SOFT2\MCHP\Kern_v6\Microchip\TCPIP Stack\DHCP.c
     __DHCPStateChanged:0   0x0003f0       data     extern E:\Users\Pal\DEVICES\Kern_dev_\SOFT2\MCHP\Kern_v6\Microchip\TCPIP Stack\DHCP.c
               vInterface   0x0003f0       data     static E:\Users\Pal\DEVICES\Kern_dev_\SOFT2\MCHP\Kern_v6\Microchip\TCPIP Stack\DHCP.c
               vInterface   0x0003f1       data     static E:\Users\Pal\DEVICES\Kern_dev_\SOFT2\MCHP\Kern_v6\Microchip\TCPIP Stack\DHCP.c
 __DHCPIsServerDetected:0   0x0003f1       data     extern E:\Users\Pal\DEVICES\Kern_dev_\SOFT2\MCHP\Kern_v6\Microchip\TCPIP Stack\DHCP.c
            ___DHCPSend:0   0x0003f2       data     static E:\Users\Pal\DEVICES\Kern_dev_\SOFT2\MCHP\Kern_v6\Microchip\TCPIP Stack\DHCP.c
              messageType   0x0003f2       data     static E:\Users\Pal\DEVICES\Kern_dev_\SOFT2\MCHP\Kern_v6\Microchip\TCPIP Stack\DHCP.c
                bRenewing   0x0003f3       data     static E:\Users\Pal\DEVICES\Kern_dev_\SOFT2\MCHP\Kern_v6\Microchip\TCPIP Stack\DHCP.c
            ___DHCPSend:1   0x0003f3       data     static E:\Users\Pal\DEVICES\Kern_dev_\SOFT2\MCHP\Kern_v6\Microchip\TCPIP Stack\DHCP.c
                     prom   0x0003f4       data     static C:\MCC18\src\traditional\startup\c018i.c
                curr_byte   0x0003f7       data     static C:\MCC18\src\traditional\startup\c018i.c
               curr_entry   0x0003f9       data     static C:\MCC18\src\traditional\startup\c018i.c
                 data_ptr   0x0003fb       data     static C:\MCC18\src\traditional\startup\c018i.c
            LastPutSocket   0x0003fe       data     static E:\Users\Pal\DEVICES\Kern_dev_\SOFT2\MCHP\Kern_v6\Microchip\TCPIP Stack\UDP.c
         SocketWithRxData   0x0003ff       data     static E:\Users\Pal\DEVICES\Kern_dev_\SOFT2\MCHP\Kern_v6\Microchip\TCPIP Stack\UDP.c
          puart_rx_buffer   0x000400       data     extern E:\Users\Pal\DEVICES\Kern_dev_\SOFT2\MCHP\Kern_v6\Kern\PAL_pUART.c
               ptx_buffer   0x000440       data     extern E:\Users\Pal\DEVICES\Kern_dev_\SOFT2\MCHP\Kern_v6\Kern\PAL_pUART.c
        puart_rx_wr_index   0x000460       data     extern E:\Users\Pal\DEVICES\Kern_dev_\SOFT2\MCHP\Kern_v6\Kern\PAL_pUART.c
        puart_rx_rd_index   0x000462       data     extern E:\Users\Pal\DEVICES\Kern_dev_\SOFT2\MCHP\Kern_v6\Kern\PAL_pUART.c
         puart_rx_counter   0x000464       data     extern E:\Users\Pal\DEVICES\Kern_dev_\SOFT2\MCHP\Kern_v6\Kern\PAL_pUART.c
       puart_rx_wr_index_   0x000466       data     extern E:\Users\Pal\DEVICES\Kern_dev_\SOFT2\MCHP\Kern_v6\Kern\PAL_pUART.c
             ptx_wr_index   0x000468       data     extern E:\Users\Pal\DEVICES\Kern_dev_\SOFT2\MCHP\Kern_v6\Kern\PAL_pUART.c
             ptx_rd_index   0x00046a       data     extern E:\Users\Pal\DEVICES\Kern_dev_\SOFT2\MCHP\Kern_v6\Kern\PAL_pUART.c
              ptx_counter   0x00046c       data     extern E:\Users\Pal\DEVICES\Kern_dev_\SOFT2\MCHP\Kern_v6\Kern\PAL_pUART.c
                data_temp   0x00046e       data     extern E:\Users\Pal\DEVICES\Kern_dev_\SOFT2\MCHP\Kern_v6\Kern\PAL_pUART.c
             control_temp   0x00046f       data     extern E:\Users\Pal\DEVICES\Kern_dev_\SOFT2\MCHP\Kern_v6\Kern\PAL_pUART.c
          puart_data_temp   0x000470       data     extern E:\Users\Pal\DEVICES\Kern_dev_\SOFT2\MCHP\Kern_v6\Kern\PAL_pUART.c
              bPUART_RXIN   0x000471       data     extern E:\Users\Pal\DEVICES\Kern_dev_\SOFT2\MCHP\Kern_v6\Kern\PAL_pUART.c
                     PUIB   0x000472       data     extern E:\Users\Pal\DEVICES\Kern_dev_\SOFT2\MCHP\Kern_v6\Kern\PAL_pUART.c
         puart_silent_cnt   0x0004b2       data     extern E:\Users\Pal\DEVICES\Kern_dev_\SOFT2\MCHP\Kern_v6\Kern\PAL_pUART.c
         bPUART_STROB_OLD   0x0004b4       data     extern E:\Users\Pal\DEVICES\Kern_dev_\SOFT2\MCHP\Kern_v6\Kern\PAL_pUART.c
             bPUART_STROB   0x0004b5       data     extern E:\Users\Pal\DEVICES\Kern_dev_\SOFT2\MCHP\Kern_v6\Kern\PAL_pUART.c
            __puart_out:0   0x0004b6       data     extern E:\Users\Pal\DEVICES\Kern_dev_\SOFT2\MCHP\Kern_v6\Kern\PAL_pUART.c
                      num   0x0004b6       data     static E:\Users\Pal\DEVICES\Kern_dev_\SOFT2\MCHP\Kern_v6\Kern\PAL_pUART.c
                    data0   0x0004b7       data     static E:\Users\Pal\DEVICES\Kern_dev_\SOFT2\MCHP\Kern_v6\Kern\PAL_pUART.c
            __puart_out:1   0x0004b7       data     extern E:\Users\Pal\DEVICES\Kern_dev_\SOFT2\MCHP\Kern_v6\Kern\PAL_pUART.c
                    data1   0x0004b8       data     static E:\Users\Pal\DEVICES\Kern_dev_\SOFT2\MCHP\Kern_v6\Kern\PAL_pUART.c
            __puart_out:2   0x0004b8       data     extern E:\Users\Pal\DEVICES\Kern_dev_\SOFT2\MCHP\Kern_v6\Kern\PAL_pUART.c
                    data2   0x0004b9       data     static E:\Users\Pal\DEVICES\Kern_dev_\SOFT2\MCHP\Kern_v6\Kern\PAL_pUART.c
            __puart_out:3   0x0004b9       data     extern E:\Users\Pal\DEVICES\Kern_dev_\SOFT2\MCHP\Kern_v6\Kern\PAL_pUART.c
            __puart_out:4   0x0004ba       data     extern E:\Users\Pal\DEVICES\Kern_dev_\SOFT2\MCHP\Kern_v6\Kern\PAL_pUART.c
                    data3   0x0004ba       data     static E:\Users\Pal\DEVICES\Kern_dev_\SOFT2\MCHP\Kern_v6\Kern\PAL_pUART.c
            __puart_out:5   0x0004bb       data     extern E:\Users\Pal\DEVICES\Kern_dev_\SOFT2\MCHP\Kern_v6\Kern\PAL_pUART.c
                    data4   0x0004bb       data     static E:\Users\Pal\DEVICES\Kern_dev_\SOFT2\MCHP\Kern_v6\Kern\PAL_pUART.c
                    data5   0x0004bc       data     static E:\Users\Pal\DEVICES\Kern_dev_\SOFT2\MCHP\Kern_v6\Kern\PAL_pUART.c
            __puart_out:6   0x0004bc       data     extern E:\Users\Pal\DEVICES\Kern_dev_\SOFT2\MCHP\Kern_v6\Kern\PAL_pUART.c
                      ptr   0x0004bd       data     static E:\Users\Pal\DEVICES\Kern_dev_\SOFT2\MCHP\Kern_v6\Kern\PAL_pUART.c
         __uart_out_adr:0   0x0004bd       data     extern E:\Users\Pal\DEVICES\Kern_dev_\SOFT2\MCHP\Kern_v6\Kern\PAL_pUART.c
                      len   0x0004bf       data     static E:\Users\Pal\DEVICES\Kern_dev_\SOFT2\MCHP\Kern_v6\Kern\PAL_pUART.c
         __uart_out_adr:1   0x0004bf       data     extern E:\Users\Pal\DEVICES\Kern_dev_\SOFT2\MCHP\Kern_v6\Kern\PAL_pUART.c
             __pputchar:0   0x0004c0       data     extern E:\Users\Pal\DEVICES\Kern_dev_\SOFT2\MCHP\Kern_v6\Kern\PAL_pUART.c
                        c   0x0004c0       data     static E:\Users\Pal\DEVICES\Kern_dev_\SOFT2\MCHP\Kern_v6\Kern\PAL_pUART.c
                puart_cnt   0x0004c1       data     static E:\Users\Pal\DEVICES\Kern_dev_\SOFT2\MCHP\Kern_v6\Kern\PAL_pUART.c
                    index   0x0004c2       data     static E:\Users\Pal\DEVICES\Kern_dev_\SOFT2\MCHP\Kern_v6\Kern\PAL_pUART.c
   __puart_index_offset:0   0x0004c2       data     extern E:\Users\Pal\DEVICES\Kern_dev_\SOFT2\MCHP\Kern_v6\Kern\PAL_pUART.c
   __puart_index_offset:1   0x0004c4       data     extern E:\Users\Pal\DEVICES\Kern_dev_\SOFT2\MCHP\Kern_v6\Kern\PAL_pUART.c
                   offset   0x0004c4       data     static E:\Users\Pal\DEVICES\Kern_dev_\SOFT2\MCHP\Kern_v6\Kern\PAL_pUART.c
  __puart_control_check:0   0x0004c6       data     extern E:\Users\Pal\DEVICES\Kern_dev_\SOFT2\MCHP\Kern_v6\Kern\PAL_pUART.c
                    index   0x0004c6       data     static E:\Users\Pal\DEVICES\Kern_dev_\SOFT2\MCHP\Kern_v6\Kern\PAL_pUART.c
       NextPacketLocation   0x0004c7       data     static E:\Users\Pal\DEVICES\Kern_dev_\SOFT2\MCHP\Kern_v6\Microchip\TCPIP Stack\ETH97J60.c
    CurrentPacketLocation   0x0004c9       data     static E:\Users\Pal\DEVICES\Kern_dev_\SOFT2\MCHP\Kern_v6\Microchip\TCPIP Stack\ETH97J60.c
                    flags   0x0004cb       data     static E:\Users\Pal\DEVICES\Kern_dev_\SOFT2\MCHP\Kern_v6\Microchip\TCPIP Stack\ETH97J60.c
              wTXWatchdog   0x0004cc       data     static E:\Users\Pal\DEVICES\Kern_dev_\SOFT2\MCHP\Kern_v6\Microchip\TCPIP Stack\ETH97J60.c
                   remote   0x0004ce       data     static E:\Users\Pal\DEVICES\Kern_dev_\SOFT2\MCHP\Kern_v6\Microchip\TCPIP Stack\ETH97J60.c
         __MACGetHeader:0   0x0004ce       data     extern E:\Users\Pal\DEVICES\Kern_dev_\SOFT2\MCHP\Kern_v6\Microchip\TCPIP Stack\ETH97J60.c
         __MACGetHeader:1   0x0004d0       data     extern E:\Users\Pal\DEVICES\Kern_dev_\SOFT2\MCHP\Kern_v6\Microchip\TCPIP Stack\ETH97J60.c
                     type   0x0004d0       data     static E:\Users\Pal\DEVICES\Kern_dev_\SOFT2\MCHP\Kern_v6\Microchip\TCPIP Stack\ETH97J60.c
                   remote   0x0004d2       data     static E:\Users\Pal\DEVICES\Kern_dev_\SOFT2\MCHP\Kern_v6\Microchip\TCPIP Stack\ETH97J60.c
         __MACPutHeader:0   0x0004d2       data     extern E:\Users\Pal\DEVICES\Kern_dev_\SOFT2\MCHP\Kern_v6\Microchip\TCPIP Stack\ETH97J60.c
         __MACPutHeader:1   0x0004d4       data     extern E:\Users\Pal\DEVICES\Kern_dev_\SOFT2\MCHP\Kern_v6\Microchip\TCPIP Stack\ETH97J60.c
                     type   0x0004d4       data     static E:\Users\Pal\DEVICES\Kern_dev_\SOFT2\MCHP\Kern_v6\Microchip\TCPIP Stack\ETH97J60.c
         __MACPutHeader:2   0x0004d5       data     extern E:\Users\Pal\DEVICES\Kern_dev_\SOFT2\MCHP\Kern_v6\Microchip\TCPIP Stack\ETH97J60.c
                  dataLen   0x0004d5       data     static E:\Users\Pal\DEVICES\Kern_dev_\SOFT2\MCHP\Kern_v6\Microchip\TCPIP Stack\ETH97J60.c
    __MACSetReadPtrInRx:0   0x0004d7       data     extern E:\Users\Pal\DEVICES\Kern_dev_\SOFT2\MCHP\Kern_v6\Microchip\TCPIP Stack\ETH97J60.c
                   offset   0x0004d7       data     static E:\Users\Pal\DEVICES\Kern_dev_\SOFT2\MCHP\Kern_v6\Microchip\TCPIP Stack\ETH97J60.c
       __MACSetWritePtr:0   0x0004d9       data     extern E:\Users\Pal\DEVICES\Kern_dev_\SOFT2\MCHP\Kern_v6\Microchip\TCPIP Stack\ETH97J60.c
                  address   0x0004d9       data     static E:\Users\Pal\DEVICES\Kern_dev_\SOFT2\MCHP\Kern_v6\Microchip\TCPIP Stack\ETH97J60.c
                  address   0x0004db       data     static E:\Users\Pal\DEVICES\Kern_dev_\SOFT2\MCHP\Kern_v6\Microchip\TCPIP Stack\ETH97J60.c
        __MACSetReadPtr:0   0x0004db       data     extern E:\Users\Pal\DEVICES\Kern_dev_\SOFT2\MCHP\Kern_v6\Microchip\TCPIP Stack\ETH97J60.c
                   offset   0x0004dd       data     static E:\Users\Pal\DEVICES\Kern_dev_\SOFT2\MCHP\Kern_v6\Microchip\TCPIP Stack\ETH97J60.c
    __MACCalcRxChecksum:0   0x0004dd       data     extern E:\Users\Pal\DEVICES\Kern_dev_\SOFT2\MCHP\Kern_v6\Microchip\TCPIP Stack\ETH97J60.c
    __MACCalcRxChecksum:1   0x0004df       data     extern E:\Users\Pal\DEVICES\Kern_dev_\SOFT2\MCHP\Kern_v6\Microchip\TCPIP Stack\ETH97J60.c
                      len   0x0004df       data     static E:\Users\Pal\DEVICES\Kern_dev_\SOFT2\MCHP\Kern_v6\Microchip\TCPIP Stack\ETH97J60.c
 __CalcIPBufferChecksum:0   0x0004e1       data     extern E:\Users\Pal\DEVICES\Kern_dev_\SOFT2\MCHP\Kern_v6\Microchip\TCPIP Stack\ETH97J60.c
                      len   0x0004e1       data     static E:\Users\Pal\DEVICES\Kern_dev_\SOFT2\MCHP\Kern_v6\Microchip\TCPIP Stack\ETH97J60.c
                 destAddr   0x0004e3       data     static E:\Users\Pal\DEVICES\Kern_dev_\SOFT2\MCHP\Kern_v6\Microchip\TCPIP Stack\ETH97J60.c
      __MACMemCopyAsync:0   0x0004e3       data     extern E:\Users\Pal\DEVICES\Kern_dev_\SOFT2\MCHP\Kern_v6\Microchip\TCPIP Stack\ETH97J60.c
      __MACMemCopyAsync:1   0x0004e5       data     extern E:\Users\Pal\DEVICES\Kern_dev_\SOFT2\MCHP\Kern_v6\Microchip\TCPIP Stack\ETH97J60.c
               sourceAddr   0x0004e5       data     static E:\Users\Pal\DEVICES\Kern_dev_\SOFT2\MCHP\Kern_v6\Microchip\TCPIP Stack\ETH97J60.c
      __MACMemCopyAsync:2   0x0004e7       data     extern E:\Users\Pal\DEVICES\Kern_dev_\SOFT2\MCHP\Kern_v6\Microchip\TCPIP Stack\ETH97J60.c
                      len   0x0004e7       data     static E:\Users\Pal\DEVICES\Kern_dev_\SOFT2\MCHP\Kern_v6\Microchip\TCPIP Stack\ETH97J60.c
          __MACGetArray:0   0x0004e9       data     extern E:\Users\Pal\DEVICES\Kern_dev_\SOFT2\MCHP\Kern_v6\Microchip\TCPIP Stack\ETH97J60.c
                      val   0x0004e9       data     static E:\Users\Pal\DEVICES\Kern_dev_\SOFT2\MCHP\Kern_v6\Microchip\TCPIP Stack\ETH97J60.c
          __MACGetArray:1   0x0004eb       data     extern E:\Users\Pal\DEVICES\Kern_dev_\SOFT2\MCHP\Kern_v6\Microchip\TCPIP Stack\ETH97J60.c
                      len   0x0004eb       data     static E:\Users\Pal\DEVICES\Kern_dev_\SOFT2\MCHP\Kern_v6\Microchip\TCPIP Stack\ETH97J60.c
               __MACPut:0   0x0004ed       data     extern E:\Users\Pal\DEVICES\Kern_dev_\SOFT2\MCHP\Kern_v6\Microchip\TCPIP Stack\ETH97J60.c
                      val   0x0004ed       data     static E:\Users\Pal\DEVICES\Kern_dev_\SOFT2\MCHP\Kern_v6\Microchip\TCPIP Stack\ETH97J60.c
                      val   0x0004ee       data     static E:\Users\Pal\DEVICES\Kern_dev_\SOFT2\MCHP\Kern_v6\Microchip\TCPIP Stack\ETH97J60.c
          __MACPutArray:0   0x0004ee       data     extern E:\Users\Pal\DEVICES\Kern_dev_\SOFT2\MCHP\Kern_v6\Microchip\TCPIP Stack\ETH97J60.c
          __MACPutArray:1   0x0004f0       data     extern E:\Users\Pal\DEVICES\Kern_dev_\SOFT2\MCHP\Kern_v6\Microchip\TCPIP Stack\ETH97J60.c
                      len   0x0004f0       data     static E:\Users\Pal\DEVICES\Kern_dev_\SOFT2\MCHP\Kern_v6\Microchip\TCPIP Stack\ETH97J60.c
       __MACPutROMArray:0   0x0004f2       data     extern E:\Users\Pal\DEVICES\Kern_dev_\SOFT2\MCHP\Kern_v6\Microchip\TCPIP Stack\ETH97J60.c
                      val   0x0004f2       data     static E:\Users\Pal\DEVICES\Kern_dev_\SOFT2\MCHP\Kern_v6\Microchip\TCPIP Stack\ETH97J60.c
                      len   0x0004f5       data     static E:\Users\Pal\DEVICES\Kern_dev_\SOFT2\MCHP\Kern_v6\Microchip\TCPIP Stack\ETH97J60.c
       __MACPutROMArray:1   0x0004f5       data     extern E:\Users\Pal\DEVICES\Kern_dev_\SOFT2\MCHP\Kern_v6\Microchip\TCPIP Stack\ETH97J60.c
           __ReadPHYReg:0   0x0004f7       data     extern E:\Users\Pal\DEVICES\Kern_dev_\SOFT2\MCHP\Kern_v6\Microchip\TCPIP Stack\ETH97J60.c
                 Register   0x0004f7       data     static E:\Users\Pal\DEVICES\Kern_dev_\SOFT2\MCHP\Kern_v6\Microchip\TCPIP Stack\ETH97J60.c
          __WritePHYReg:0   0x0004f8       data     extern E:\Users\Pal\DEVICES\Kern_dev_\SOFT2\MCHP\Kern_v6\Microchip\TCPIP Stack\ETH97J60.c
                 Register   0x0004f8       data     static E:\Users\Pal\DEVICES\Kern_dev_\SOFT2\MCHP\Kern_v6\Microchip\TCPIP Stack\ETH97J60.c
          __WritePHYReg:1   0x0004f9       data     extern E:\Users\Pal\DEVICES\Kern_dev_\SOFT2\MCHP\Kern_v6\Microchip\TCPIP Stack\ETH97J60.c
                     Data   0x0004f9       data     static E:\Users\Pal\DEVICES\Kern_dev_\SOFT2\MCHP\Kern_v6\Microchip\TCPIP Stack\ETH97J60.c
                 MySocket   0x0004fb       data     static E:\Users\Pal\DEVICES\Kern_dev_\SOFT2\MCHP\Kern_v6\Kern\UdpSet.c
                     Data   0x0004fc       data     static E:\Users\Pal\DEVICES\Kern_dev_\SOFT2\MCHP\Kern_v6\Kern\UdpSet.c
      __SendDataToUdpTx:0   0x0004fc       data     extern E:\Users\Pal\DEVICES\Kern_dev_\SOFT2\MCHP\Kern_v6\Kern\UdpSet.c
               DataLength   0x0004fe       data     static E:\Users\Pal\DEVICES\Kern_dev_\SOFT2\MCHP\Kern_v6\Kern\UdpSet.c
      __SendDataToUdpTx:1   0x0004fe       data     extern E:\Users\Pal\DEVICES\Kern_dev_\SOFT2\MCHP\Kern_v6\Kern\UdpSet.c
             SNMPTxOffset   0x000500       data     extern E:\Users\Pal\DEVICES\Kern_dev_\SOFT2\MCHP\Kern_v6\Microchip\TCPIP Stack\SNMP.c
             SNMPRxOffset   0x000502       data     static E:\Users\Pal\DEVICES\Kern_dev_\SOFT2\MCHP\Kern_v6\Microchip\TCPIP Stack\SNMP.c
               SNMPStatus   0x000504       data     static E:\Users\Pal\DEVICES\Kern_dev_\SOFT2\MCHP\Kern_v6\Microchip\TCPIP Stack\SNMP.c
                    hMPFS   0x000505       data     extern E:\Users\Pal\DEVICES\Kern_dev_\SOFT2\MCHP\Kern_v6\Microchip\TCPIP Stack\SNMP.c
  msgSecrtyParamLenOffset   0x000506       data     extern E:\Users\Pal\DEVICES\Kern_dev_\SOFT2\MCHP\Kern_v6\Microchip\TCPIP Stack\SNMP.c
          getZeroInstance   0x000508       data     extern E:\Users\Pal\DEVICES\Kern_dev_\SOFT2\MCHP\Kern_v6\Microchip\TCPIP Stack\SNMP.c
          appendZeroToOID   0x000509       data     extern E:\Users\Pal\DEVICES\Kern_dev_\SOFT2\MCHP\Kern_v6\Microchip\TCPIP Stack\SNMP.c
      snmpReqVarErrStatus   0x00050a       data     extern E:\Users\Pal\DEVICES\Kern_dev_\SOFT2\MCHP\Kern_v6\Microchip\TCPIP Stack\SNMP.c
           SNMPNotifyInfo   0x000512       data     extern E:\Users\Pal\DEVICES\Kern_dev_\SOFT2\MCHP\Kern_v6\Microchip\TCPIP Stack\SNMP.c
                 ReadPort   0x00052b       data     static E:\Users\Pal\DEVICES\Kern_dev_\SOFT2\MCHP\Kern_v6\Microchip\TCPIP Stack\SNMP.c
       __SpaSibSNMPInit:0   0x00052b       data     extern E:\Users\Pal\DEVICES\Kern_dev_\SOFT2\MCHP\Kern_v6\Microchip\TCPIP Stack\SNMP.c
               remoteHost   0x00052d       data     static E:\Users\Pal\DEVICES\Kern_dev_\SOFT2\MCHP\Kern_v6\Microchip\TCPIP Stack\SNMP.c
    __SNMPNotifyPrepare:0   0x00052d       data     extern E:\Users\Pal\DEVICES\Kern_dev_\SOFT2\MCHP\Kern_v6\Microchip\TCPIP Stack\SNMP.c
    __SNMPNotifyPrepare:1   0x00052f       data     extern E:\Users\Pal\DEVICES\Kern_dev_\SOFT2\MCHP\Kern_v6\Microchip\TCPIP Stack\SNMP.c
                community   0x00052f       data     static E:\Users\Pal\DEVICES\Kern_dev_\SOFT2\MCHP\Kern_v6\Microchip\TCPIP Stack\SNMP.c
    __SNMPNotifyPrepare:2   0x000531       data     extern E:\Users\Pal\DEVICES\Kern_dev_\SOFT2\MCHP\Kern_v6\Microchip\TCPIP Stack\SNMP.c
             communityLen   0x000531       data     static E:\Users\Pal\DEVICES\Kern_dev_\SOFT2\MCHP\Kern_v6\Microchip\TCPIP Stack\SNMP.c
    __SNMPNotifyPrepare:3   0x000532       data     extern E:\Users\Pal\DEVICES\Kern_dev_\SOFT2\MCHP\Kern_v6\Microchip\TCPIP Stack\SNMP.c
               agentIDVar   0x000532       data     static E:\Users\Pal\DEVICES\Kern_dev_\SOFT2\MCHP\Kern_v6\Microchip\TCPIP Stack\SNMP.c
    __SNMPNotifyPrepare:4   0x000533       data     extern E:\Users\Pal\DEVICES\Kern_dev_\SOFT2\MCHP\Kern_v6\Microchip\TCPIP Stack\SNMP.c
         notificationCode   0x000533       data     static E:\Users\Pal\DEVICES\Kern_dev_\SOFT2\MCHP\Kern_v6\Microchip\TCPIP Stack\SNMP.c
    __SNMPNotifyPrepare:5   0x000534       data     extern E:\Users\Pal\DEVICES\Kern_dev_\SOFT2\MCHP\Kern_v6\Microchip\TCPIP Stack\SNMP.c
                timestamp   0x000534       data     static E:\Users\Pal\DEVICES\Kern_dev_\SOFT2\MCHP\Kern_v6\Microchip\TCPIP Stack\SNMP.c
    __SNMPIsNotifyReady:0   0x000538       data     extern E:\Users\Pal\DEVICES\Kern_dev_\SOFT2\MCHP\Kern_v6\Microchip\TCPIP Stack\SNMP.c
               remoteHost   0x000538       data     static E:\Users\Pal\DEVICES\Kern_dev_\SOFT2\MCHP\Kern_v6\Microchip\TCPIP Stack\SNMP.c
    __SNMPIsNotifyReady:1   0x00053a       data     extern E:\Users\Pal\DEVICES\Kern_dev_\SOFT2\MCHP\Kern_v6\Microchip\TCPIP Stack\SNMP.c
             SnmpTrapPort   0x00053a       data     static E:\Users\Pal\DEVICES\Kern_dev_\SOFT2\MCHP\Kern_v6\Microchip\TCPIP Stack\SNMP.c
        generic_trap_code   0x00053c       data     static E:\Users\Pal\DEVICES\Kern_dev_\SOFT2\MCHP\Kern_v6\Microchip\TCPIP Stack\SNMP.c
  __getSnmpV2GenTrapOid:0   0x00053c       data     extern E:\Users\Pal\DEVICES\Kern_dev_\SOFT2\MCHP\Kern_v6\Microchip\TCPIP Stack\SNMP.c
  __getSnmpV2GenTrapOid:1   0x00053d       data     extern E:\Users\Pal\DEVICES\Kern_dev_\SOFT2\MCHP\Kern_v6\Microchip\TCPIP Stack\SNMP.c
                      len   0x00053d       data     static E:\Users\Pal\DEVICES\Kern_dev_\SOFT2\MCHP\Kern_v6\Microchip\TCPIP Stack\SNMP.c
                      var   0x00053f       data     static E:\Users\Pal\DEVICES\Kern_dev_\SOFT2\MCHP\Kern_v6\Microchip\TCPIP Stack\SNMP.c
           __SNMPNotify:0   0x00053f       data     extern E:\Users\Pal\DEVICES\Kern_dev_\SOFT2\MCHP\Kern_v6\Microchip\TCPIP Stack\SNMP.c
                      val   0x000540       data     static E:\Users\Pal\DEVICES\Kern_dev_\SOFT2\MCHP\Kern_v6\Microchip\TCPIP Stack\SNMP.c
           __SNMPNotify:1   0x000540       data     extern E:\Users\Pal\DEVICES\Kern_dev_\SOFT2\MCHP\Kern_v6\Microchip\TCPIP Stack\SNMP.c
                    index   0x000544       data     static E:\Users\Pal\DEVICES\Kern_dev_\SOFT2\MCHP\Kern_v6\Microchip\TCPIP Stack\SNMP.c
           __SNMPNotify:2   0x000544       data     extern E:\Users\Pal\DEVICES\Kern_dev_\SOFT2\MCHP\Kern_v6\Microchip\TCPIP Stack\SNMP.c
                 pduDbPtr   0x000545       data     static E:\Users\Pal\DEVICES\Kern_dev_\SOFT2\MCHP\Kern_v6\Microchip\TCPIP Stack\SNMP.c
        __ProcessHeader:0   0x000545       data     static E:\Users\Pal\DEVICES\Kern_dev_\SOFT2\MCHP\Kern_v6\Microchip\TCPIP Stack\SNMP.c
        __ProcessHeader:1   0x000547       data     static E:\Users\Pal\DEVICES\Kern_dev_\SOFT2\MCHP\Kern_v6\Microchip\TCPIP Stack\SNMP.c
                community   0x000547       data     static E:\Users\Pal\DEVICES\Kern_dev_\SOFT2\MCHP\Kern_v6\Microchip\TCPIP Stack\SNMP.c
                      len   0x000549       data     static E:\Users\Pal\DEVICES\Kern_dev_\SOFT2\MCHP\Kern_v6\Microchip\TCPIP Stack\SNMP.c
        __ProcessHeader:2   0x000549       data     static E:\Users\Pal\DEVICES\Kern_dev_\SOFT2\MCHP\Kern_v6\Microchip\TCPIP Stack\SNMP.c
                 pduDbPtr   0x00054b       data     static E:\Users\Pal\DEVICES\Kern_dev_\SOFT2\MCHP\Kern_v6\Microchip\TCPIP Stack\SNMP.c
  __ProcessGetSetHeader:0   0x00054b       data     static E:\Users\Pal\DEVICES\Kern_dev_\SOFT2\MCHP\Kern_v6\Microchip\TCPIP Stack\SNMP.c
                 pduDbPtr   0x00054d       data     static E:\Users\Pal\DEVICES\Kern_dev_\SOFT2\MCHP\Kern_v6\Microchip\TCPIP Stack\SNMP.c
     __ProcessVariables:0   0x00054d       data     static E:\Users\Pal\DEVICES\Kern_dev_\SOFT2\MCHP\Kern_v6\Microchip\TCPIP Stack\SNMP.c
                community   0x00054f       data     static E:\Users\Pal\DEVICES\Kern_dev_\SOFT2\MCHP\Kern_v6\Microchip\TCPIP Stack\SNMP.c
     __ProcessVariables:1   0x00054f       data     static E:\Users\Pal\DEVICES\Kern_dev_\SOFT2\MCHP\Kern_v6\Microchip\TCPIP Stack\SNMP.c
     __ProcessVariables:2   0x000551       data     static E:\Users\Pal\DEVICES\Kern_dev_\SOFT2\MCHP\Kern_v6\Microchip\TCPIP Stack\SNMP.c
                      len   0x000551       data     static E:\Users\Pal\DEVICES\Kern_dev_\SOFT2\MCHP\Kern_v6\Microchip\TCPIP Stack\SNMP.c
    __ProcessGetNextVar:0   0x000552       data     extern E:\Users\Pal\DEVICES\Kern_dev_\SOFT2\MCHP\Kern_v6\Microchip\TCPIP Stack\SNMP.c
                      rec   0x000552       data     static E:\Users\Pal\DEVICES\Kern_dev_\SOFT2\MCHP\Kern_v6\Microchip\TCPIP Stack\SNMP.c
                 pduDbPtr   0x000554       data     static E:\Users\Pal\DEVICES\Kern_dev_\SOFT2\MCHP\Kern_v6\Microchip\TCPIP Stack\SNMP.c
    __ProcessGetNextVar:1   0x000554       data     extern E:\Users\Pal\DEVICES\Kern_dev_\SOFT2\MCHP\Kern_v6\Microchip\TCPIP Stack\SNMP.c
                        v   0x000556       data     static E:\Users\Pal\DEVICES\Kern_dev_\SOFT2\MCHP\Kern_v6\Microchip\TCPIP Stack\SNMP.c
              varDataType   0x00055a       data     static E:\Users\Pal\DEVICES\Kern_dev_\SOFT2\MCHP\Kern_v6\Microchip\TCPIP Stack\SNMP.c
               indexBytes   0x00055b       data     static E:\Users\Pal\DEVICES\Kern_dev_\SOFT2\MCHP\Kern_v6\Microchip\TCPIP Stack\SNMP.c
                      rec   0x00055c       data     static E:\Users\Pal\DEVICES\Kern_dev_\SOFT2\MCHP\Kern_v6\Microchip\TCPIP Stack\SNMP.c
    __ProcessGetBulkVar:0   0x00055c       data     extern E:\Users\Pal\DEVICES\Kern_dev_\SOFT2\MCHP\Kern_v6\Microchip\TCPIP Stack\SNMP.c
    __ProcessGetBulkVar:1   0x00055e       data     extern E:\Users\Pal\DEVICES\Kern_dev_\SOFT2\MCHP\Kern_v6\Microchip\TCPIP Stack\SNMP.c
              oidValuePtr   0x00055e       data     static E:\Users\Pal\DEVICES\Kern_dev_\SOFT2\MCHP\Kern_v6\Microchip\TCPIP Stack\SNMP.c
    __ProcessGetBulkVar:2   0x000560       data     extern E:\Users\Pal\DEVICES\Kern_dev_\SOFT2\MCHP\Kern_v6\Microchip\TCPIP Stack\SNMP.c
                oidLenPtr   0x000560       data     static E:\Users\Pal\DEVICES\Kern_dev_\SOFT2\MCHP\Kern_v6\Microchip\TCPIP Stack\SNMP.c
    __ProcessGetBulkVar:3   0x000562       data     extern E:\Users\Pal\DEVICES\Kern_dev_\SOFT2\MCHP\Kern_v6\Microchip\TCPIP Stack\SNMP.c
                successor   0x000562       data     static E:\Users\Pal\DEVICES\Kern_dev_\SOFT2\MCHP\Kern_v6\Microchip\TCPIP Stack\SNMP.c
    __ProcessGetBulkVar:4   0x000564       data     extern E:\Users\Pal\DEVICES\Kern_dev_\SOFT2\MCHP\Kern_v6\Microchip\TCPIP Stack\SNMP.c
                 pduDbPtr   0x000564       data     static E:\Users\Pal\DEVICES\Kern_dev_\SOFT2\MCHP\Kern_v6\Microchip\TCPIP Stack\SNMP.c
              varDataType   0x000566       data     static E:\Users\Pal\DEVICES\Kern_dev_\SOFT2\MCHP\Kern_v6\Microchip\TCPIP Stack\SNMP.c
               indexBytes   0x000567       data     static E:\Users\Pal\DEVICES\Kern_dev_\SOFT2\MCHP\Kern_v6\Microchip\TCPIP Stack\SNMP.c
                        v   0x000568       data     static E:\Users\Pal\DEVICES\Kern_dev_\SOFT2\MCHP\Kern_v6\Microchip\TCPIP Stack\SNMP.c
            __OIDLookup:0   0x00056c       data     extern E:\Users\Pal\DEVICES\Kern_dev_\SOFT2\MCHP\Kern_v6\Microchip\TCPIP Stack\SNMP.c
                 pduDbPtr   0x00056c       data     static E:\Users\Pal\DEVICES\Kern_dev_\SOFT2\MCHP\Kern_v6\Microchip\TCPIP Stack\SNMP.c
                      oid   0x00056e       data     static E:\Users\Pal\DEVICES\Kern_dev_\SOFT2\MCHP\Kern_v6\Microchip\TCPIP Stack\SNMP.c
            __OIDLookup:1   0x00056e       data     extern E:\Users\Pal\DEVICES\Kern_dev_\SOFT2\MCHP\Kern_v6\Microchip\TCPIP Stack\SNMP.c
            __OIDLookup:2   0x000570       data     extern E:\Users\Pal\DEVICES\Kern_dev_\SOFT2\MCHP\Kern_v6\Microchip\TCPIP Stack\SNMP.c
                   oidLen   0x000570       data     static E:\Users\Pal\DEVICES\Kern_dev_\SOFT2\MCHP\Kern_v6\Microchip\TCPIP Stack\SNMP.c
            __OIDLookup:3   0x000571       data     extern E:\Users\Pal\DEVICES\Kern_dev_\SOFT2\MCHP\Kern_v6\Microchip\TCPIP Stack\SNMP.c
                      rec   0x000571       data     static E:\Users\Pal\DEVICES\Kern_dev_\SOFT2\MCHP\Kern_v6\Microchip\TCPIP Stack\SNMP.c
                      rec   0x000573       data     static E:\Users\Pal\DEVICES\Kern_dev_\SOFT2\MCHP\Kern_v6\Microchip\TCPIP Stack\SNMP.c
          __GetNextLeaf:0   0x000573       data     extern E:\Users\Pal\DEVICES\Kern_dev_\SOFT2\MCHP\Kern_v6\Microchip\TCPIP Stack\SNMP.c
     __IsValidCommunity:0   0x000575       data     static E:\Users\Pal\DEVICES\Kern_dev_\SOFT2\MCHP\Kern_v6\Microchip\TCPIP Stack\SNMP.c
                community   0x000575       data     static E:\Users\Pal\DEVICES\Kern_dev_\SOFT2\MCHP\Kern_v6\Microchip\TCPIP Stack\SNMP.c
     __IsValidCommunity:1   0x000577       data     static E:\Users\Pal\DEVICES\Kern_dev_\SOFT2\MCHP\Kern_v6\Microchip\TCPIP Stack\SNMP.c
                      len   0x000577       data     static E:\Users\Pal\DEVICES\Kern_dev_\SOFT2\MCHP\Kern_v6\Microchip\TCPIP Stack\SNMP.c
           __IsValidInt:0   0x000579       data     extern E:\Users\Pal\DEVICES\Kern_dev_\SOFT2\MCHP\Kern_v6\Microchip\TCPIP Stack\SNMP.c
                      val   0x000579       data     static E:\Users\Pal\DEVICES\Kern_dev_\SOFT2\MCHP\Kern_v6\Microchip\TCPIP Stack\SNMP.c
           __IsValidPDU:0   0x00057b       data     static E:\Users\Pal\DEVICES\Kern_dev_\SOFT2\MCHP\Kern_v6\Microchip\TCPIP Stack\SNMP.c
                      pdu   0x00057b       data     static E:\Users\Pal\DEVICES\Kern_dev_\SOFT2\MCHP\Kern_v6\Microchip\TCPIP Stack\SNMP.c
                      len   0x00057d       data     static E:\Users\Pal\DEVICES\Kern_dev_\SOFT2\MCHP\Kern_v6\Microchip\TCPIP Stack\SNMP.c
        __IsValidLength:0   0x00057d       data     extern E:\Users\Pal\DEVICES\Kern_dev_\SOFT2\MCHP\Kern_v6\Microchip\TCPIP Stack\SNMP.c
           __IsValidOID:0   0x00057f       data     static E:\Users\Pal\DEVICES\Kern_dev_\SOFT2\MCHP\Kern_v6\Microchip\TCPIP Stack\SNMP.c
                      oid   0x00057f       data     static E:\Users\Pal\DEVICES\Kern_dev_\SOFT2\MCHP\Kern_v6\Microchip\TCPIP Stack\SNMP.c
           __IsValidOID:1   0x000581       data     static E:\Users\Pal\DEVICES\Kern_dev_\SOFT2\MCHP\Kern_v6\Microchip\TCPIP Stack\SNMP.c
                      len   0x000581       data     static E:\Users\Pal\DEVICES\Kern_dev_\SOFT2\MCHP\Kern_v6\Microchip\TCPIP Stack\SNMP.c
                  dataLen   0x000583       data     static E:\Users\Pal\DEVICES\Kern_dev_\SOFT2\MCHP\Kern_v6\Microchip\TCPIP Stack\SNMP.c
     __IsValidStructure:0   0x000583       data     extern E:\Users\Pal\DEVICES\Kern_dev_\SOFT2\MCHP\Kern_v6\Microchip\TCPIP Stack\SNMP.c
      ___SNMPDuplexInit:0   0x000585       data     extern E:\Users\Pal\DEVICES\Kern_dev_\SOFT2\MCHP\Kern_v6\Microchip\TCPIP Stack\SNMP.c
                   socket   0x000585       data     static E:\Users\Pal\DEVICES\Kern_dev_\SOFT2\MCHP\Kern_v6\Microchip\TCPIP Stack\SNMP.c
             ___SNMPPut:0   0x000586       data     extern E:\Users\Pal\DEVICES\Kern_dev_\SOFT2\MCHP\Kern_v6\Microchip\TCPIP Stack\SNMP.c
                        v   0x000586       data     static E:\Users\Pal\DEVICES\Kern_dev_\SOFT2\MCHP\Kern_v6\Microchip\TCPIP Stack\SNMP.c
     __GetOIDStringByID:0   0x000587       data     extern E:\Users\Pal\DEVICES\Kern_dev_\SOFT2\MCHP\Kern_v6\Microchip\TCPIP Stack\SNMP.c
                       id   0x000587       data     static E:\Users\Pal\DEVICES\Kern_dev_\SOFT2\MCHP\Kern_v6\Microchip\TCPIP Stack\SNMP.c
     __GetOIDStringByID:1   0x000588       data     extern E:\Users\Pal\DEVICES\Kern_dev_\SOFT2\MCHP\Kern_v6\Microchip\TCPIP Stack\SNMP.c
                     info   0x000588       data     static E:\Users\Pal\DEVICES\Kern_dev_\SOFT2\MCHP\Kern_v6\Microchip\TCPIP Stack\SNMP.c
                oidString   0x00058a       data     static E:\Users\Pal\DEVICES\Kern_dev_\SOFT2\MCHP\Kern_v6\Microchip\TCPIP Stack\SNMP.c
     __GetOIDStringByID:2   0x00058a       data     extern E:\Users\Pal\DEVICES\Kern_dev_\SOFT2\MCHP\Kern_v6\Microchip\TCPIP Stack\SNMP.c
                      len   0x00058c       data     static E:\Users\Pal\DEVICES\Kern_dev_\SOFT2\MCHP\Kern_v6\Microchip\TCPIP Stack\SNMP.c
     __GetOIDStringByID:3   0x00058c       data     extern E:\Users\Pal\DEVICES\Kern_dev_\SOFT2\MCHP\Kern_v6\Microchip\TCPIP Stack\SNMP.c
                      rec   0x00058e       data     static E:\Users\Pal\DEVICES\Kern_dev_\SOFT2\MCHP\Kern_v6\Microchip\TCPIP Stack\SNMP.c
   __GetOIDStringByAddr:0   0x00058e       data     extern E:\Users\Pal\DEVICES\Kern_dev_\SOFT2\MCHP\Kern_v6\Microchip\TCPIP Stack\SNMP.c
                oidString   0x000590       data     static E:\Users\Pal\DEVICES\Kern_dev_\SOFT2\MCHP\Kern_v6\Microchip\TCPIP Stack\SNMP.c
   __GetOIDStringByAddr:1   0x000590       data     extern E:\Users\Pal\DEVICES\Kern_dev_\SOFT2\MCHP\Kern_v6\Microchip\TCPIP Stack\SNMP.c
   __GetOIDStringByAddr:2   0x000592       data     extern E:\Users\Pal\DEVICES\Kern_dev_\SOFT2\MCHP\Kern_v6\Microchip\TCPIP Stack\SNMP.c
                      len   0x000592       data     static E:\Users\Pal\DEVICES\Kern_dev_\SOFT2\MCHP\Kern_v6\Microchip\TCPIP Stack\SNMP.c
                        h   0x000594       data     static E:\Users\Pal\DEVICES\Kern_dev_\SOFT2\MCHP\Kern_v6\Microchip\TCPIP Stack\SNMP.c
        __ReadMIBRecord:0   0x000594       data     static E:\Users\Pal\DEVICES\Kern_dev_\SOFT2\MCHP\Kern_v6\Microchip\TCPIP Stack\SNMP.c
                      rec   0x000598       data     static E:\Users\Pal\DEVICES\Kern_dev_\SOFT2\MCHP\Kern_v6\Microchip\TCPIP Stack\SNMP.c
        __ReadMIBRecord:1   0x000598       data     static E:\Users\Pal\DEVICES\Kern_dev_\SOFT2\MCHP\Kern_v6\Microchip\TCPIP Stack\SNMP.c
                 dataType   0x00059a       data     static E:\Users\Pal\DEVICES\Kern_dev_\SOFT2\MCHP\Kern_v6\Microchip\TCPIP Stack\SNMP.c
      __GetDataTypeInfo:0   0x00059a       data     extern E:\Users\Pal\DEVICES\Kern_dev_\SOFT2\MCHP\Kern_v6\Microchip\TCPIP Stack\SNMP.c
      __GetDataTypeInfo:1   0x00059b       data     extern E:\Users\Pal\DEVICES\Kern_dev_\SOFT2\MCHP\Kern_v6\Microchip\TCPIP Stack\SNMP.c
                     info   0x00059b       data     static E:\Users\Pal\DEVICES\Kern_dev_\SOFT2\MCHP\Kern_v6\Microchip\TCPIP Stack\SNMP.c
                 pduDbPtr   0x00059d       data     static E:\Users\Pal\DEVICES\Kern_dev_\SOFT2\MCHP\Kern_v6\Microchip\TCPIP Stack\SNMP.c
        __ProcessSetVar:0   0x00059d       data     extern E:\Users\Pal\DEVICES\Kern_dev_\SOFT2\MCHP\Kern_v6\Microchip\TCPIP Stack\SNMP.c
        __ProcessSetVar:1   0x00059f       data     extern E:\Users\Pal\DEVICES\Kern_dev_\SOFT2\MCHP\Kern_v6\Microchip\TCPIP Stack\SNMP.c
                      rec   0x00059f       data     static E:\Users\Pal\DEVICES\Kern_dev_\SOFT2\MCHP\Kern_v6\Microchip\TCPIP Stack\SNMP.c
              errorStatus   0x0005a1       data     static E:\Users\Pal\DEVICES\Kern_dev_\SOFT2\MCHP\Kern_v6\Microchip\TCPIP Stack\SNMP.c
        __ProcessSetVar:2   0x0005a1       data     extern E:\Users\Pal\DEVICES\Kern_dev_\SOFT2\MCHP\Kern_v6\Microchip\TCPIP Stack\SNMP.c
                      rec   0x0005a3       data     static E:\Users\Pal\DEVICES\Kern_dev_\SOFT2\MCHP\Kern_v6\Microchip\TCPIP Stack\SNMP.c
        __ProcessGetVar:0   0x0005a3       data     extern E:\Users\Pal\DEVICES\Kern_dev_\SOFT2\MCHP\Kern_v6\Microchip\TCPIP Stack\SNMP.c
                   bAsOID   0x0005a5       data     static E:\Users\Pal\DEVICES\Kern_dev_\SOFT2\MCHP\Kern_v6\Microchip\TCPIP Stack\SNMP.c
        __ProcessGetVar:1   0x0005a5       data     extern E:\Users\Pal\DEVICES\Kern_dev_\SOFT2\MCHP\Kern_v6\Microchip\TCPIP Stack\SNMP.c
        __ProcessGetVar:2   0x0005a6       data     extern E:\Users\Pal\DEVICES\Kern_dev_\SOFT2\MCHP\Kern_v6\Microchip\TCPIP Stack\SNMP.c
                 pduDbPtr   0x0005a6       data     static E:\Users\Pal\DEVICES\Kern_dev_\SOFT2\MCHP\Kern_v6\Microchip\TCPIP Stack\SNMP.c
        errorStatusOffset   0x0005a8       data     static E:\Users\Pal\DEVICES\Kern_dev_\SOFT2\MCHP\Kern_v6\Microchip\TCPIP Stack\SNMP.c
       __SetErrorStatus:0   0x0005a8       data     extern E:\Users\Pal\DEVICES\Kern_dev_\SOFT2\MCHP\Kern_v6\Microchip\TCPIP Stack\SNMP.c
         errorIndexOffset   0x0005aa       data     static E:\Users\Pal\DEVICES\Kern_dev_\SOFT2\MCHP\Kern_v6\Microchip\TCPIP Stack\SNMP.c
       __SetErrorStatus:1   0x0005aa       data     extern E:\Users\Pal\DEVICES\Kern_dev_\SOFT2\MCHP\Kern_v6\Microchip\TCPIP Stack\SNMP.c
              errorStatus   0x0005ac       data     static E:\Users\Pal\DEVICES\Kern_dev_\SOFT2\MCHP\Kern_v6\Microchip\TCPIP Stack\SNMP.c
       __SetErrorStatus:2   0x0005ac       data     extern E:\Users\Pal\DEVICES\Kern_dev_\SOFT2\MCHP\Kern_v6\Microchip\TCPIP Stack\SNMP.c
       __SetErrorStatus:3   0x0005ad       data     extern E:\Users\Pal\DEVICES\Kern_dev_\SOFT2\MCHP\Kern_v6\Microchip\TCPIP Stack\SNMP.c
               errorIndex   0x0005ad       data     static E:\Users\Pal\DEVICES\Kern_dev_\SOFT2\MCHP\Kern_v6\Microchip\TCPIP Stack\SNMP.c
    __FindOIDsInRequest:0   0x0005ae       data     static E:\Users\Pal\DEVICES\Kern_dev_\SOFT2\MCHP\Kern_v6\Microchip\TCPIP Stack\SNMP.c
                   pdulen   0x0005ae       data     static E:\Users\Pal\DEVICES\Kern_dev_\SOFT2\MCHP\Kern_v6\Microchip\TCPIP Stack\SNMP.c
__SNMPCheckIfPvtMibObjRequested:0   0x0005b0       data     static E:\Users\Pal\DEVICES\Kern_dev_\SOFT2\MCHP\Kern_v6\Microchip\TCPIP Stack\SNMP.c
              OIDValuePtr   0x0005b0       data     static E:\Users\Pal\DEVICES\Kern_dev_\SOFT2\MCHP\Kern_v6\Microchip\TCPIP Stack\SNMP.c
             __SendByte:0   0x0005b2       data     extern E:\Users\Pal\DEVICES\Kern_dev_\SOFT2\MCHP\Kern_v6\Kern\I2cEEPROM.c
                     Byte   0x0005b2       data     static E:\Users\Pal\DEVICES\Kern_dev_\SOFT2\MCHP\Kern_v6\Kern\I2cEEPROM.c
                 DeviceID   0x0005b3       data     static E:\Users\Pal\DEVICES\Kern_dev_\SOFT2\MCHP\Kern_v6\Kern\I2cEEPROM.c
               __SendID:0   0x0005b3       data     extern E:\Users\Pal\DEVICES\Kern_dev_\SOFT2\MCHP\Kern_v6\Kern\I2cEEPROM.c
     __EEPROM_WriteByte:0   0x0005b4       data     extern E:\Users\Pal\DEVICES\Kern_dev_\SOFT2\MCHP\Kern_v6\Kern\I2cEEPROM.c
                  Address   0x0005b4       data     static E:\Users\Pal\DEVICES\Kern_dev_\SOFT2\MCHP\Kern_v6\Kern\I2cEEPROM.c
                     Byte   0x0005b5       data     static E:\Users\Pal\DEVICES\Kern_dev_\SOFT2\MCHP\Kern_v6\Kern\I2cEEPROM.c
     __EEPROM_WriteByte:1   0x0005b5       data     extern E:\Users\Pal\DEVICES\Kern_dev_\SOFT2\MCHP\Kern_v6\Kern\I2cEEPROM.c
      __EEPROM_ReadByte:0   0x0005b6       data     extern E:\Users\Pal\DEVICES\Kern_dev_\SOFT2\MCHP\Kern_v6\Kern\I2cEEPROM.c
                  Address   0x0005b6       data     static E:\Users\Pal\DEVICES\Kern_dev_\SOFT2\MCHP\Kern_v6\Kern\I2cEEPROM.c
       __EEPROM_ReadMAC:0   0x0005b7       data     extern E:\Users\Pal\DEVICES\Kern_dev_\SOFT2\MCHP\Kern_v6\Kern\I2cEEPROM.c
                      mac   0x0005b7       data     static E:\Users\Pal\DEVICES\Kern_dev_\SOFT2\MCHP\Kern_v6\Kern\I2cEEPROM.c
               StartIndex   0x0005b9       data     static E:\Users\Pal\DEVICES\Kern_dev_\SOFT2\MCHP\Kern_v6\Kern\I2cEEPROM.c
    __EEPROM_WriteArray:0   0x0005b9       data     extern E:\Users\Pal\DEVICES\Kern_dev_\SOFT2\MCHP\Kern_v6\Kern\I2cEEPROM.c
    __EEPROM_WriteArray:1   0x0005ba       data     extern E:\Users\Pal\DEVICES\Kern_dev_\SOFT2\MCHP\Kern_v6\Kern\I2cEEPROM.c
                     Data   0x0005ba       data     static E:\Users\Pal\DEVICES\Kern_dev_\SOFT2\MCHP\Kern_v6\Kern\I2cEEPROM.c
    __EEPROM_WriteArray:2   0x0005bc       data     extern E:\Users\Pal\DEVICES\Kern_dev_\SOFT2\MCHP\Kern_v6\Kern\I2cEEPROM.c
               DataLength   0x0005bc       data     static E:\Users\Pal\DEVICES\Kern_dev_\SOFT2\MCHP\Kern_v6\Kern\I2cEEPROM.c
               StartIndex   0x0005bd       data     static E:\Users\Pal\DEVICES\Kern_dev_\SOFT2\MCHP\Kern_v6\Kern\I2cEEPROM.c
     __EEPROM_ReadArray:0   0x0005bd       data     extern E:\Users\Pal\DEVICES\Kern_dev_\SOFT2\MCHP\Kern_v6\Kern\I2cEEPROM.c
     __EEPROM_ReadArray:1   0x0005be       data     extern E:\Users\Pal\DEVICES\Kern_dev_\SOFT2\MCHP\Kern_v6\Kern\I2cEEPROM.c
                     Data   0x0005be       data     static E:\Users\Pal\DEVICES\Kern_dev_\SOFT2\MCHP\Kern_v6\Kern\I2cEEPROM.c
               DataLength   0x0005c0       data     static E:\Users\Pal\DEVICES\Kern_dev_\SOFT2\MCHP\Kern_v6\Kern\I2cEEPROM.c
     __EEPROM_ReadArray:2   0x0005c0       data     extern E:\Users\Pal\DEVICES\Kern_dev_\SOFT2\MCHP\Kern_v6\Kern\I2cEEPROM.c
          __ICMPProcess:0   0x0005c1       data     extern E:\Users\Pal\DEVICES\Kern_dev_\SOFT2\MCHP\Kern_v6\Microchip\TCPIP Stack\ICMP.c
                   remote   0x0005c1       data     static E:\Users\Pal\DEVICES\Kern_dev_\SOFT2\MCHP\Kern_v6\Microchip\TCPIP Stack\ICMP.c
          __ICMPProcess:1   0x0005c3       data     extern E:\Users\Pal\DEVICES\Kern_dev_\SOFT2\MCHP\Kern_v6\Microchip\TCPIP Stack\ICMP.c
                      len   0x0005c3       data     static E:\Users\Pal\DEVICES\Kern_dev_\SOFT2\MCHP\Kern_v6\Microchip\TCPIP Stack\ICMP.c
          dwInternalTicks   0x0005c5       data     static E:\Users\Pal\DEVICES\Kern_dev_\SOFT2\MCHP\Kern_v6\Microchip\TCPIP Stack\Tick.c
           dwLFSRRandSeed   0x0005c9       data     static E:\Users\Pal\DEVICES\Kern_dev_\SOFT2\MCHP\Kern_v6\Microchip\TCPIP Stack\Helpers.c
              lastSuccess   0x0005cd       data     static E:\Users\Pal\DEVICES\Kern_dev_\SOFT2\MCHP\Kern_v6\Kern\CustomHTTPApp.c
              lastFailure   0x0005ce       data     static E:\Users\Pal\DEVICES\Kern_dev_\SOFT2\MCHP\Kern_v6\Kern\CustomHTTPApp.c
             NeedRedirect   0x0005cf       data     static E:\Users\Pal\DEVICES\Kern_dev_\SOFT2\MCHP\Kern_v6\Kern\CustomHTTPApp.c
   NeedRefreshNetworkSett   0x0005d0       data     static E:\Users\Pal\DEVICES\Kern_dev_\SOFT2\MCHP\Kern_v6\Kern\CustomHTTPApp.c
              _Identifier   0x0005d1       data     static E:\Users\Pal\DEVICES\Kern_dev_\SOFT2\MCHP\Kern_v6\Microchip\TCPIP Stack\IP.c
DHCPClientInitializedOnce   0x0005d3       data     extern E:\Users\Pal\DEVICES\Kern_dev_\SOFT2\MCHP\Kern_v6\Microchip\TCPIP Stack\DHCP.c
                    smARP   0x0005d4       data     static E:\Users\Pal\DEVICES\Kern_dev_\SOFT2\MCHP\Kern_v6\Microchip\TCPIP Stack\ARP.c
                AppConfig   0x000600       data     extern E:\Users\Pal\DEVICES\Kern_dev_\SOFT2\MCHP\Kern_v6\Kern\Main.c
              ResetStatus   0x000659       data     extern E:\Users\Pal\DEVICES\Kern_dev_\SOFT2\MCHP\Kern_v6\Kern\Main.c
                time_temp   0x00065f       data     extern E:\Users\Pal\DEVICES\Kern_dev_\SOFT2\MCHP\Kern_v6\Kern\Main.c
                time_cnt0   0x000663       data     extern E:\Users\Pal\DEVICES\Kern_dev_\SOFT2\MCHP\Kern_v6\Kern\Main.c
                time_cnt1   0x000664       data     extern E:\Users\Pal\DEVICES\Kern_dev_\SOFT2\MCHP\Kern_v6\Kern\Main.c
                time_cnt2   0x000665       data     extern E:\Users\Pal\DEVICES\Kern_dev_\SOFT2\MCHP\Kern_v6\Kern\Main.c
                time_cnt3   0x000666       data     extern E:\Users\Pal\DEVICES\Kern_dev_\SOFT2\MCHP\Kern_v6\Kern\Main.c
                time_cnt4   0x000667       data     extern E:\Users\Pal\DEVICES\Kern_dev_\SOFT2\MCHP\Kern_v6\Kern\Main.c
                  b1000Hz   0x000668       data     extern E:\Users\Pal\DEVICES\Kern_dev_\SOFT2\MCHP\Kern_v6\Kern\Main.c
                   b100Hz   0x000669       data     extern E:\Users\Pal\DEVICES\Kern_dev_\SOFT2\MCHP\Kern_v6\Kern\Main.c
                    b10Hz   0x00066a       data     extern E:\Users\Pal\DEVICES\Kern_dev_\SOFT2\MCHP\Kern_v6\Kern\Main.c
                     b5Hz   0x00066b       data     extern E:\Users\Pal\DEVICES\Kern_dev_\SOFT2\MCHP\Kern_v6\Kern\Main.c
                     b2Hz   0x00066c       data     extern E:\Users\Pal\DEVICES\Kern_dev_\SOFT2\MCHP\Kern_v6\Kern\Main.c
                     b1Hz   0x00066d       data     extern E:\Users\Pal\DEVICES\Kern_dev_\SOFT2\MCHP\Kern_v6\Kern\Main.c
                 trap_cnt   0x00066e       data     extern E:\Users\Pal\DEVICES\Kern_dev_\SOFT2\MCHP\Kern_v6\Kern\Main.c
               pAppConfig   0x00066f       data     static E:\Users\Pal\DEVICES\Kern_dev_\SOFT2\MCHP\Kern_v6\Kern\Main.c
        __SaveAppConfig:0   0x00066f       data     extern E:\Users\Pal\DEVICES\Kern_dev_\SOFT2\MCHP\Kern_v6\Kern\Main.c
                 TCBStubs   0x000671       data     static E:\Users\Pal\DEVICES\Kern_dev_\SOFT2\MCHP\Kern_v6\Microchip\TCPIP Stack\TCP.c
                      tbl   0x0006e1       data     static E:\Users\Pal\DEVICES\Kern_dev_\SOFT2\MCHP\Kern_v6\Kern\ParamsTable.c
         __SettingsInit:0   0x0006e1       data     extern E:\Users\Pal\DEVICES\Kern_dev_\SOFT2\MCHP\Kern_v6\Kern\ParamsTable.c
    __SettingsSetDefaul:0   0x0006e3       data     extern E:\Users\Pal\DEVICES\Kern_dev_\SOFT2\MCHP\Kern_v6\Kern\ParamsTable.c
                      tbl   0x0006e3       data     static E:\Users\Pal\DEVICES\Kern_dev_\SOFT2\MCHP\Kern_v6\Kern\ParamsTable.c
         __SettingsLoad:0   0x0006e5       data     extern E:\Users\Pal\DEVICES\Kern_dev_\SOFT2\MCHP\Kern_v6\Kern\ParamsTable.c
                      tbl   0x0006e5       data     static E:\Users\Pal\DEVICES\Kern_dev_\SOFT2\MCHP\Kern_v6\Kern\ParamsTable.c
         __SettingsLoad:1   0x0006e7       data     extern E:\Users\Pal\DEVICES\Kern_dev_\SOFT2\MCHP\Kern_v6\Kern\ParamsTable.c
                    index   0x0006e7       data     static E:\Users\Pal\DEVICES\Kern_dev_\SOFT2\MCHP\Kern_v6\Kern\ParamsTable.c
  __SettingsLoadPointer:0   0x0006e9       data     extern E:\Users\Pal\DEVICES\Kern_dev_\SOFT2\MCHP\Kern_v6\Kern\ParamsTable.c
                      tbl   0x0006e9       data     static E:\Users\Pal\DEVICES\Kern_dev_\SOFT2\MCHP\Kern_v6\Kern\ParamsTable.c
  __SettingsLoadPointer:1   0x0006eb       data     extern E:\Users\Pal\DEVICES\Kern_dev_\SOFT2\MCHP\Kern_v6\Kern\ParamsTable.c
                    value   0x0006eb       data     static E:\Users\Pal\DEVICES\Kern_dev_\SOFT2\MCHP\Kern_v6\Kern\ParamsTable.c
        __TestSaveParam:0   0x0006ed       data     extern E:\Users\Pal\DEVICES\Kern_dev_\SOFT2\MCHP\Kern_v6\Kern\ParamsTable.c
                  RamData   0x0006ed       data     static E:\Users\Pal\DEVICES\Kern_dev_\SOFT2\MCHP\Kern_v6\Kern\ParamsTable.c
        __TestSaveParam:1   0x0006ef       data     extern E:\Users\Pal\DEVICES\Kern_dev_\SOFT2\MCHP\Kern_v6\Kern\ParamsTable.c
                  ParAddr   0x0006ef       data     static E:\Users\Pal\DEVICES\Kern_dev_\SOFT2\MCHP\Kern_v6\Kern\ParamsTable.c
                  ParSize   0x0006f1       data     static E:\Users\Pal\DEVICES\Kern_dev_\SOFT2\MCHP\Kern_v6\Kern\ParamsTable.c
        __TestSaveParam:2   0x0006f1       data     extern E:\Users\Pal\DEVICES\Kern_dev_\SOFT2\MCHP\Kern_v6\Kern\ParamsTable.c
         __SettingsSave:0   0x0006f2       data     extern E:\Users\Pal\DEVICES\Kern_dev_\SOFT2\MCHP\Kern_v6\Kern\ParamsTable.c
                      tbl   0x0006f2       data     static E:\Users\Pal\DEVICES\Kern_dev_\SOFT2\MCHP\Kern_v6\Kern\ParamsTable.c
  __SettingsSavePointer:0   0x0006f4       data     extern E:\Users\Pal\DEVICES\Kern_dev_\SOFT2\MCHP\Kern_v6\Kern\ParamsTable.c
                      tbl   0x0006f4       data     static E:\Users\Pal\DEVICES\Kern_dev_\SOFT2\MCHP\Kern_v6\Kern\ParamsTable.c
                  valueue   0x0006f6       data     static E:\Users\Pal\DEVICES\Kern_dev_\SOFT2\MCHP\Kern_v6\Kern\ParamsTable.c
  __SettingsSavePointer:1   0x0006f6       data     extern E:\Users\Pal\DEVICES\Kern_dev_\SOFT2\MCHP\Kern_v6\Kern\ParamsTable.c
                      tbl   0x0006f8       data     static E:\Users\Pal\DEVICES\Kern_dev_\SOFT2\MCHP\Kern_v6\Kern\ParamsTable.c
        __SettingsReset:0   0x0006f8       data     extern E:\Users\Pal\DEVICES\Kern_dev_\SOFT2\MCHP\Kern_v6\Kern\ParamsTable.c
                    index   0x0006fa       data     static E:\Users\Pal\DEVICES\Kern_dev_\SOFT2\MCHP\Kern_v6\Kern\ParamsTable.c
        __SettingsReset:1   0x0006fa       data     extern E:\Users\Pal\DEVICES\Kern_dev_\SOFT2\MCHP\Kern_v6\Kern\ParamsTable.c
                      tbl   0x0006fc       data     static E:\Users\Pal\DEVICES\Kern_dev_\SOFT2\MCHP\Kern_v6\Kern\ParamsTable.c
 __SettingsResetPointer:0   0x0006fc       data     extern E:\Users\Pal\DEVICES\Kern_dev_\SOFT2\MCHP\Kern_v6\Kern\ParamsTable.c
 __SettingsResetPointer:1   0x0006fe       data     extern E:\Users\Pal\DEVICES\Kern_dev_\SOFT2\MCHP\Kern_v6\Kern\ParamsTable.c
                      val   0x0006fe       data     static E:\Users\Pal\DEVICES\Kern_dev_\SOFT2\MCHP\Kern_v6\Kern\ParamsTable.c
         param_desc_table   0x000700       data     extern E:\Users\Pal\DEVICES\Kern_dev_\SOFT2\MCHP\Kern_v6\Kern\ParamsTable.c
            SettingsTable   0x00075b       data     extern E:\Users\Pal\DEVICES\Kern_dev_\SOFT2\MCHP\Kern_v6\Kern\ParamsTable.c
                 SYNQueue   0x000767       data     static E:\Users\Pal\DEVICES\Kern_dev_\SOFT2\MCHP\Kern_v6\Microchip\TCPIP Stack\TCP.c
                   dwSeed   0x0007cb       data     static E:\Users\Pal\DEVICES\Kern_dev_\SOFT2\MCHP\Kern_v6\Microchip\TCPIP Stack\Helpers.c
         __LFSRSeedRand:0   0x0007cb       data     extern E:\Users\Pal\DEVICES\Kern_dev_\SOFT2\MCHP\Kern_v6\Microchip\TCPIP Stack\Helpers.c
                      str   0x0007cf       data     static E:\Users\Pal\DEVICES\Kern_dev_\SOFT2\MCHP\Kern_v6\Microchip\TCPIP Stack\Helpers.c
    __StringToIPAddress:0   0x0007cf       data     extern E:\Users\Pal\DEVICES\Kern_dev_\SOFT2\MCHP\Kern_v6\Microchip\TCPIP Stack\Helpers.c
                IPAddress   0x0007d1       data     static E:\Users\Pal\DEVICES\Kern_dev_\SOFT2\MCHP\Kern_v6\Microchip\TCPIP Stack\Helpers.c
    __StringToIPAddress:1   0x0007d1       data     extern E:\Users\Pal\DEVICES\Kern_dev_\SOFT2\MCHP\Kern_v6\Microchip\TCPIP Stack\Helpers.c
 __ROMStringToIPAddress:0   0x0007d3       data     extern E:\Users\Pal\DEVICES\Kern_dev_\SOFT2\MCHP\Kern_v6\Microchip\TCPIP Stack\Helpers.c
                      str   0x0007d3       data     static E:\Users\Pal\DEVICES\Kern_dev_\SOFT2\MCHP\Kern_v6\Microchip\TCPIP Stack\Helpers.c
                IPAddress   0x0007d6       data     static E:\Users\Pal\DEVICES\Kern_dev_\SOFT2\MCHP\Kern_v6\Microchip\TCPIP Stack\Helpers.c
 __ROMStringToIPAddress:1   0x0007d6       data     extern E:\Users\Pal\DEVICES\Kern_dev_\SOFT2\MCHP\Kern_v6\Microchip\TCPIP Stack\Helpers.c
                __uitoa:0   0x0007d8       data     extern E:\Users\Pal\DEVICES\Kern_dev_\SOFT2\MCHP\Kern_v6\Microchip\TCPIP Stack\Helpers.c
                    Value   0x0007d8       data     static E:\Users\Pal\DEVICES\Kern_dev_\SOFT2\MCHP\Kern_v6\Microchip\TCPIP Stack\Helpers.c
                   Buffer   0x0007da       data     static E:\Users\Pal\DEVICES\Kern_dev_\SOFT2\MCHP\Kern_v6\Microchip\TCPIP Stack\Helpers.c
                __uitoa:1   0x0007da       data     extern E:\Users\Pal\DEVICES\Kern_dev_\SOFT2\MCHP\Kern_v6\Microchip\TCPIP Stack\Helpers.c
               AsciiChars   0x0007dc       data     static E:\Users\Pal\DEVICES\Kern_dev_\SOFT2\MCHP\Kern_v6\Microchip\TCPIP Stack\Helpers.c
              __hexatob:0   0x0007dc       data     extern E:\Users\Pal\DEVICES\Kern_dev_\SOFT2\MCHP\Kern_v6\Microchip\TCPIP Stack\Helpers.c
         __btohexa_high:0   0x0007de       data     extern E:\Users\Pal\DEVICES\Kern_dev_\SOFT2\MCHP\Kern_v6\Microchip\TCPIP Stack\Helpers.c
                        b   0x0007de       data     static E:\Users\Pal\DEVICES\Kern_dev_\SOFT2\MCHP\Kern_v6\Microchip\TCPIP Stack\Helpers.c
          __btohexa_low:0   0x0007df       data     extern E:\Users\Pal\DEVICES\Kern_dev_\SOFT2\MCHP\Kern_v6\Microchip\TCPIP Stack\Helpers.c
                        b   0x0007df       data     static E:\Users\Pal\DEVICES\Kern_dev_\SOFT2\MCHP\Kern_v6\Microchip\TCPIP Stack\Helpers.c
       __stricmppgm2ram:0   0x0007e0       data     extern E:\Users\Pal\DEVICES\Kern_dev_\SOFT2\MCHP\Kern_v6\Microchip\TCPIP Stack\Helpers.c
                        a   0x0007e0       data     static E:\Users\Pal\DEVICES\Kern_dev_\SOFT2\MCHP\Kern_v6\Microchip\TCPIP Stack\Helpers.c
       __stricmppgm2ram:1   0x0007e2       data     extern E:\Users\Pal\DEVICES\Kern_dev_\SOFT2\MCHP\Kern_v6\Microchip\TCPIP Stack\Helpers.c
                        b   0x0007e2       data     static E:\Users\Pal\DEVICES\Kern_dev_\SOFT2\MCHP\Kern_v6\Microchip\TCPIP Stack\Helpers.c
                __swaps:0   0x0007e5       data     extern E:\Users\Pal\DEVICES\Kern_dev_\SOFT2\MCHP\Kern_v6\Microchip\TCPIP Stack\Helpers.c
                        v   0x0007e5       data     static E:\Users\Pal\DEVICES\Kern_dev_\SOFT2\MCHP\Kern_v6\Microchip\TCPIP Stack\Helpers.c
                __swapl:0   0x0007e7       data     extern E:\Users\Pal\DEVICES\Kern_dev_\SOFT2\MCHP\Kern_v6\Microchip\TCPIP Stack\Helpers.c
                        v   0x0007e7       data     static E:\Users\Pal\DEVICES\Kern_dev_\SOFT2\MCHP\Kern_v6\Microchip\TCPIP Stack\Helpers.c
       __CalcIPChecksum:0   0x0007eb       data     extern E:\Users\Pal\DEVICES\Kern_dev_\SOFT2\MCHP\Kern_v6\Microchip\TCPIP Stack\Helpers.c
                   buffer   0x0007eb       data     static E:\Users\Pal\DEVICES\Kern_dev_\SOFT2\MCHP\Kern_v6\Microchip\TCPIP Stack\Helpers.c
       __CalcIPChecksum:1   0x0007ed       data     extern E:\Users\Pal\DEVICES\Kern_dev_\SOFT2\MCHP\Kern_v6\Microchip\TCPIP Stack\Helpers.c
                    count   0x0007ed       data     static E:\Users\Pal\DEVICES\Kern_dev_\SOFT2\MCHP\Kern_v6\Microchip\TCPIP Stack\Helpers.c
                 toRotate   0x0007ef       data     extern E:\Users\Pal\DEVICES\Kern_dev_\SOFT2\MCHP\Kern_v6\Microchip\TCPIP Stack\Helpers.c
      __leftRotateDWORD:0   0x0007f3       data     extern E:\Users\Pal\DEVICES\Kern_dev_\SOFT2\MCHP\Kern_v6\Microchip\TCPIP Stack\Helpers.c
                      val   0x0007f3       data     static E:\Users\Pal\DEVICES\Kern_dev_\SOFT2\MCHP\Kern_v6\Microchip\TCPIP Stack\Helpers.c
                     bits   0x0007f7       data     static E:\Users\Pal\DEVICES\Kern_dev_\SOFT2\MCHP\Kern_v6\Microchip\TCPIP Stack\Helpers.c
      __leftRotateDWORD:1   0x0007f7       data     extern E:\Users\Pal\DEVICES\Kern_dev_\SOFT2\MCHP\Kern_v6\Microchip\TCPIP Stack\Helpers.c
    __FormatNetBIOSName:0   0x0007f8       data     extern E:\Users\Pal\DEVICES\Kern_dev_\SOFT2\MCHP\Kern_v6\Microchip\TCPIP Stack\Helpers.c
                     Name   0x0007f8       data     static E:\Users\Pal\DEVICES\Kern_dev_\SOFT2\MCHP\Kern_v6\Microchip\TCPIP Stack\Helpers.c
             searchString   0x0007fa       data     static E:\Users\Pal\DEVICES\Kern_dev_\SOFT2\MCHP\Kern_v6\Microchip\TCPIP Stack\Helpers.c
              __strnchr:0   0x0007fa       data     extern E:\Users\Pal\DEVICES\Kern_dev_\SOFT2\MCHP\Kern_v6\Microchip\TCPIP Stack\Helpers.c
              __strnchr:1   0x0007fc       data     extern E:\Users\Pal\DEVICES\Kern_dev_\SOFT2\MCHP\Kern_v6\Microchip\TCPIP Stack\Helpers.c
                    count   0x0007fc       data     static E:\Users\Pal\DEVICES\Kern_dev_\SOFT2\MCHP\Kern_v6\Microchip\TCPIP Stack\Helpers.c
                        c   0x0007fe       data     static E:\Users\Pal\DEVICES\Kern_dev_\SOFT2\MCHP\Kern_v6\Microchip\TCPIP Stack\Helpers.c
              __strnchr:2   0x0007fe       data     extern E:\Users\Pal\DEVICES\Kern_dev_\SOFT2\MCHP\Kern_v6\Microchip\TCPIP Stack\Helpers.c
                 MySocket   0x0007ff       data     static E:\Users\Pal\DEVICES\Kern_dev_\SOFT2\MCHP\Kern_v6\Microchip\TCPIP Stack\Reboot.c
               IpAddr_def   0x000800       data     extern E:\Users\Pal\DEVICES\Kern_dev_\SOFT2\MCHP\Kern_v6\Kern\ParamsList.c
              NetMask_def   0x000804       data     extern E:\Users\Pal\DEVICES\Kern_dev_\SOFT2\MCHP\Kern_v6\Kern\ParamsList.c
                DefGw_def   0x000808       data     extern E:\Users\Pal\DEVICES\Kern_dev_\SOFT2\MCHP\Kern_v6\Kern\ParamsList.c
      SNMPTrapServer1_def   0x00080c       data     extern E:\Users\Pal\DEVICES\Kern_dev_\SOFT2\MCHP\Kern_v6\Kern\ParamsList.c
      SNMPTrapServer2_def   0x000810       data     extern E:\Users\Pal\DEVICES\Kern_dev_\SOFT2\MCHP\Kern_v6\Kern\ParamsList.c
      SNMPTrapServer3_def   0x000814       data     extern E:\Users\Pal\DEVICES\Kern_dev_\SOFT2\MCHP\Kern_v6\Kern\ParamsList.c
      SNMPTrapServer4_def   0x000818       data     extern E:\Users\Pal\DEVICES\Kern_dev_\SOFT2\MCHP\Kern_v6\Kern\ParamsList.c
      SNMPTrapServer5_def   0x00081c       data     extern E:\Users\Pal\DEVICES\Kern_dev_\SOFT2\MCHP\Kern_v6\Kern\ParamsList.c
         SNMPReadPort_def   0x000820       data     extern E:\Users\Pal\DEVICES\Kern_dev_\SOFT2\MCHP\Kern_v6\Kern\ParamsList.c
        SNMPWritePort_def   0x000822       data     extern E:\Users\Pal\DEVICES\Kern_dev_\SOFT2\MCHP\Kern_v6\Kern\ParamsList.c
SNMPReadCommunityName_def   0x000824       data     extern E:\Users\Pal\DEVICES\Kern_dev_\SOFT2\MCHP\Kern_v6\Kern\ParamsList.c
       DeviceLocation_def   0x000834       data     extern E:\Users\Pal\DEVICES\Kern_dev_\SOFT2\MCHP\Kern_v6\Kern\ParamsList.c
SNMPWriteCommunityName_def   0x000853       data     extern E:\Users\Pal\DEVICES\Kern_dev_\SOFT2\MCHP\Kern_v6\Kern\ParamsList.c
             newAppConfig   0x000863       data     extern E:\Users\Pal\DEVICES\Kern_dev_\SOFT2\MCHP\Kern_v6\Kern\CustomHTTPApp.c
          __HTTPPrintIP:0   0x0008bc       data     extern E:\Users\Pal\DEVICES\Kern_dev_\SOFT2\MCHP\Kern_v6\Kern\CustomHTTPApp.c
                       ip   0x0008bc       data     static E:\Users\Pal\DEVICES\Kern_dev_\SOFT2\MCHP\Kern_v6\Kern\CustomHTTPApp.c
            __HTTPPrint:0   0x0008c0       data     extern E:\Users\Pal\DEVICES\Kern_dev_\SOFT2\MCHP\Kern_v6\Kern\HTTPPrint.h
               callbackID   0x0008c0       data     static E:\Users\Pal\DEVICES\Kern_dev_\SOFT2\MCHP\Kern_v6\Kern\HTTPPrint.h
         __HTTPLoadConn:0   0x0008c4       data     static E:\Users\Pal\DEVICES\Kern_dev_\SOFT2\MCHP\Kern_v6\Microchip\TCPIP Stack\HTTP2.c
                    hHTTP   0x0008c4       data     static E:\Users\Pal\DEVICES\Kern_dev_\SOFT2\MCHP\Kern_v6\Microchip\TCPIP Stack\HTTP2.c
__HTTPHeaderParseLookup:0   0x0008c5       data     static E:\Users\Pal\DEVICES\Kern_dev_\SOFT2\MCHP\Kern_v6\Microchip\TCPIP Stack\HTTP2.c
                        i   0x0008c5       data     static E:\Users\Pal\DEVICES\Kern_dev_\SOFT2\MCHP\Kern_v6\Microchip\TCPIP Stack\HTTP2.c
                    cData   0x0008c6       data     static E:\Users\Pal\DEVICES\Kern_dev_\SOFT2\MCHP\Kern_v6\Microchip\TCPIP Stack\HTTP2.c
        __HTTPURLDecode:0   0x0008c6       data     extern E:\Users\Pal\DEVICES\Kern_dev_\SOFT2\MCHP\Kern_v6\Microchip\TCPIP Stack\HTTP2.c
           __HTTPGetArg:0   0x0008c8       data     extern E:\Users\Pal\DEVICES\Kern_dev_\SOFT2\MCHP\Kern_v6\Microchip\TCPIP Stack\HTTP2.c
                    cData   0x0008c8       data     static E:\Users\Pal\DEVICES\Kern_dev_\SOFT2\MCHP\Kern_v6\Microchip\TCPIP Stack\HTTP2.c
           __HTTPGetArg:1   0x0008ca       data     extern E:\Users\Pal\DEVICES\Kern_dev_\SOFT2\MCHP\Kern_v6\Microchip\TCPIP Stack\HTTP2.c
                     cArg   0x0008ca       data     static E:\Users\Pal\DEVICES\Kern_dev_\SOFT2\MCHP\Kern_v6\Microchip\TCPIP Stack\HTTP2.c
        __HTTPGetROMArg:0   0x0008cc       data     extern E:\Users\Pal\DEVICES\Kern_dev_\SOFT2\MCHP\Kern_v6\Microchip\TCPIP Stack\HTTP2.c
                    cData   0x0008cc       data     static E:\Users\Pal\DEVICES\Kern_dev_\SOFT2\MCHP\Kern_v6\Microchip\TCPIP Stack\HTTP2.c
        __HTTPGetROMArg:1   0x0008ce       data     extern E:\Users\Pal\DEVICES\Kern_dev_\SOFT2\MCHP\Kern_v6\Microchip\TCPIP Stack\HTTP2.c
                     cArg   0x0008ce       data     static E:\Users\Pal\DEVICES\Kern_dev_\SOFT2\MCHP\Kern_v6\Microchip\TCPIP Stack\HTTP2.c
                    cData   0x0008d1       data     static E:\Users\Pal\DEVICES\Kern_dev_\SOFT2\MCHP\Kern_v6\Microchip\TCPIP Stack\HTTP2.c
     __HTTPReadPostName:0   0x0008d1       data     extern E:\Users\Pal\DEVICES\Kern_dev_\SOFT2\MCHP\Kern_v6\Microchip\TCPIP Stack\HTTP2.c
                     wLen   0x0008d3       data     static E:\Users\Pal\DEVICES\Kern_dev_\SOFT2\MCHP\Kern_v6\Microchip\TCPIP Stack\HTTP2.c
     __HTTPReadPostName:1   0x0008d3       data     extern E:\Users\Pal\DEVICES\Kern_dev_\SOFT2\MCHP\Kern_v6\Microchip\TCPIP Stack\HTTP2.c
                    cData   0x0008d5       data     static E:\Users\Pal\DEVICES\Kern_dev_\SOFT2\MCHP\Kern_v6\Microchip\TCPIP Stack\HTTP2.c
    __HTTPReadPostValue:0   0x0008d5       data     extern E:\Users\Pal\DEVICES\Kern_dev_\SOFT2\MCHP\Kern_v6\Microchip\TCPIP Stack\HTTP2.c
                     wLen   0x0008d7       data     static E:\Users\Pal\DEVICES\Kern_dev_\SOFT2\MCHP\Kern_v6\Microchip\TCPIP Stack\HTTP2.c
    __HTTPReadPostValue:1   0x0008d7       data     extern E:\Users\Pal\DEVICES\Kern_dev_\SOFT2\MCHP\Kern_v6\Microchip\TCPIP Stack\HTTP2.c
                   cDelim   0x0008d9       data     static E:\Users\Pal\DEVICES\Kern_dev_\SOFT2\MCHP\Kern_v6\Microchip\TCPIP Stack\HTTP2.c
           __HTTPReadTo:0   0x0008d9       data     static E:\Users\Pal\DEVICES\Kern_dev_\SOFT2\MCHP\Kern_v6\Microchip\TCPIP Stack\HTTP2.c
           __HTTPReadTo:1   0x0008da       data     static E:\Users\Pal\DEVICES\Kern_dev_\SOFT2\MCHP\Kern_v6\Microchip\TCPIP Stack\HTTP2.c
                    cData   0x0008da       data     static E:\Users\Pal\DEVICES\Kern_dev_\SOFT2\MCHP\Kern_v6\Microchip\TCPIP Stack\HTTP2.c
                     wLen   0x0008dc       data     static E:\Users\Pal\DEVICES\Kern_dev_\SOFT2\MCHP\Kern_v6\Microchip\TCPIP Stack\HTTP2.c
           __HTTPReadTo:2   0x0008dc       data     static E:\Users\Pal\DEVICES\Kern_dev_\SOFT2\MCHP\Kern_v6\Microchip\TCPIP Stack\HTTP2.c
          __HTTPIncFile:0   0x0008de       data     extern E:\Users\Pal\DEVICES\Kern_dev_\SOFT2\MCHP\Kern_v6\Microchip\TCPIP Stack\HTTP2.c
                    cFile   0x0008de       data     static E:\Users\Pal\DEVICES\Kern_dev_\SOFT2\MCHP\Kern_v6\Microchip\TCPIP Stack\HTTP2.c
              IPHeaderLen   0x0008e1       data     static E:\Users\Pal\DEVICES\Kern_dev_\SOFT2\MCHP\Kern_v6\Microchip\TCPIP Stack\IP.c
                  localIP   0x0008e2       data     static E:\Users\Pal\DEVICES\Kern_dev_\SOFT2\MCHP\Kern_v6\Microchip\TCPIP Stack\IP.c
          __IPGetHeader:0   0x0008e2       data     extern E:\Users\Pal\DEVICES\Kern_dev_\SOFT2\MCHP\Kern_v6\Microchip\TCPIP Stack\IP.c
                   remote   0x0008e4       data     static E:\Users\Pal\DEVICES\Kern_dev_\SOFT2\MCHP\Kern_v6\Microchip\TCPIP Stack\IP.c
          __IPGetHeader:1   0x0008e4       data     extern E:\Users\Pal\DEVICES\Kern_dev_\SOFT2\MCHP\Kern_v6\Microchip\TCPIP Stack\IP.c
          __IPGetHeader:2   0x0008e6       data     extern E:\Users\Pal\DEVICES\Kern_dev_\SOFT2\MCHP\Kern_v6\Microchip\TCPIP Stack\IP.c
                 protocol   0x0008e6       data     static E:\Users\Pal\DEVICES\Kern_dev_\SOFT2\MCHP\Kern_v6\Microchip\TCPIP Stack\IP.c
          __IPGetHeader:3   0x0008e8       data     extern E:\Users\Pal\DEVICES\Kern_dev_\SOFT2\MCHP\Kern_v6\Microchip\TCPIP Stack\IP.c
                      len   0x0008e8       data     static E:\Users\Pal\DEVICES\Kern_dev_\SOFT2\MCHP\Kern_v6\Microchip\TCPIP Stack\IP.c
          __IPPutHeader:0   0x0008ea       data     extern E:\Users\Pal\DEVICES\Kern_dev_\SOFT2\MCHP\Kern_v6\Microchip\TCPIP Stack\IP.c
                   remote   0x0008ea       data     static E:\Users\Pal\DEVICES\Kern_dev_\SOFT2\MCHP\Kern_v6\Microchip\TCPIP Stack\IP.c
                 protocol   0x0008ec       data     static E:\Users\Pal\DEVICES\Kern_dev_\SOFT2\MCHP\Kern_v6\Microchip\TCPIP Stack\IP.c
          __IPPutHeader:1   0x0008ec       data     extern E:\Users\Pal\DEVICES\Kern_dev_\SOFT2\MCHP\Kern_v6\Microchip\TCPIP Stack\IP.c
          __IPPutHeader:2   0x0008ed       data     extern E:\Users\Pal\DEVICES\Kern_dev_\SOFT2\MCHP\Kern_v6\Microchip\TCPIP Stack\IP.c
                      len   0x0008ed       data     static E:\Users\Pal\DEVICES\Kern_dev_\SOFT2\MCHP\Kern_v6\Microchip\TCPIP Stack\IP.c
                   Offset   0x0008ef       data     static E:\Users\Pal\DEVICES\Kern_dev_\SOFT2\MCHP\Kern_v6\Microchip\TCPIP Stack\IP.c
        __IPSetRxBuffer:0   0x0008ef       data     extern E:\Users\Pal\DEVICES\Kern_dev_\SOFT2\MCHP\Kern_v6\Microchip\TCPIP Stack\IP.c
         __SwapIPHeader:0   0x0008f1       data     static E:\Users\Pal\DEVICES\Kern_dev_\SOFT2\MCHP\Kern_v6\Microchip\TCPIP Stack\IP.c
                        h   0x0008f1       data     static E:\Users\Pal\DEVICES\Kern_dev_\SOFT2\MCHP\Kern_v6\Microchip\TCPIP Stack\IP.c
             vTickReading   0x0008f3       data     static E:\Users\Pal\DEVICES\Kern_dev_\SOFT2\MCHP\Kern_v6\Microchip\TCPIP Stack\Tick.c
              dwTickValue   0x0008f9       data     static E:\Users\Pal\DEVICES\Kern_dev_\SOFT2\MCHP\Kern_v6\Microchip\TCPIP Stack\Tick.c
__TickConvertToMilliseconds:0   0x0008f9       data     extern E:\Users\Pal\DEVICES\Kern_dev_\SOFT2\MCHP\Kern_v6\Microchip\TCPIP Stack\Tick.c
              hCurrentTCP   0x0008fd       data     static E:\Users\Pal\DEVICES\Kern_dev_\SOFT2\MCHP\Kern_v6\Microchip\TCPIP Stack\TCP.c
                 hLastTCB   0x0008fe       data     static E:\Users\Pal\DEVICES\Kern_dev_\SOFT2\MCHP\Kern_v6\Microchip\TCPIP Stack\TCP.c
                   smNBNS   0x0008ff       data     static E:\Users\Pal\DEVICES\Kern_dev_\SOFT2\MCHP\Kern_v6\Microchip\TCPIP Stack\NBNS.c
          SNMPAgentSocket   0x000900       data     static E:\Users\Pal\DEVICES\Kern_dev_\SOFT2\MCHP\Kern_v6\Microchip\TCPIP Stack\SNMP.c
       gSnmpNonMibRecInfo   0x000901       data     extern E:\Users\Pal\DEVICES\Kern_dev_\SOFT2\MCHP\Kern_v6\Microchip\TCPIP Stack\SNMP.c
             gen_trap_oid   0x000934       data     static E:\Users\Pal\DEVICES\Kern_dev_\SOFT2\MCHP\Kern_v6\Microchip\TCPIP Stack\SNMP.c
            snmptrap_oids   0x00093d       data     static E:\Users\Pal\DEVICES\Kern_dev_\SOFT2\MCHP\Kern_v6\Microchip\TCPIP Stack\SNMP.c
               varbindlen   0x000946       data     static E:\Users\Pal\DEVICES\Kern_dev_\SOFT2\MCHP\Kern_v6\Microchip\TCPIP Stack\SNMP.c
    packetStructLenOffset   0x00094a       data     static E:\Users\Pal\DEVICES\Kern_dev_\SOFT2\MCHP\Kern_v6\Microchip\TCPIP Stack\SNMP.c
       pduStructLenOffset   0x00094c       data     static E:\Users\Pal\DEVICES\Kern_dev_\SOFT2\MCHP\Kern_v6\Microchip\TCPIP Stack\SNMP.c
   varBindStructLenOffset   0x00094e       data     static E:\Users\Pal\DEVICES\Kern_dev_\SOFT2\MCHP\Kern_v6\Microchip\TCPIP Stack\SNMP.c
   varPairStructLenOffset   0x000950       data     static E:\Users\Pal\DEVICES\Kern_dev_\SOFT2\MCHP\Kern_v6\Microchip\TCPIP Stack\SNMP.c
               prevOffset   0x000952       data     static E:\Users\Pal\DEVICES\Kern_dev_\SOFT2\MCHP\Kern_v6\Microchip\TCPIP Stack\SNMP.c
               varBindLen   0x000954       data     static E:\Users\Pal\DEVICES\Kern_dev_\SOFT2\MCHP\Kern_v6\Microchip\TCPIP Stack\SNMP.c
                   smSnmp   0x000956       data     static E:\Users\Pal\DEVICES\Kern_dev_\SOFT2\MCHP\Kern_v6\Microchip\TCPIP Stack\SNMP.c
               DeviceData   0x000a00       data     extern E:\Users\Pal\DEVICES\Kern_dev_\SOFT2\MCHP\Kern_v6\Kern\DeviceData.c
             TxTrapBuffer   0x000aa0       data     static E:\Users\Pal\DEVICES\Kern_dev_\SOFT2\MCHP\Kern_v6\Kern\CustomSNMPApp.c
__SNMPSendSpaSibTrapAll:0   0x000b60       data     extern E:\Users\Pal\DEVICES\Kern_dev_\SOFT2\MCHP\Kern_v6\Kern\CustomSNMPApp.c
                    _val1   0x000b60       data     static E:\Users\Pal\DEVICES\Kern_dev_\SOFT2\MCHP\Kern_v6\Kern\CustomSNMPApp.c
__SNMPSendSpaSibTrapAll:1   0x000b64       data     extern E:\Users\Pal\DEVICES\Kern_dev_\SOFT2\MCHP\Kern_v6\Kern\CustomSNMPApp.c
                    _val2   0x000b64       data     static E:\Users\Pal\DEVICES\Kern_dev_\SOFT2\MCHP\Kern_v6\Kern\CustomSNMPApp.c
                 _message   0x000b68       data     static E:\Users\Pal\DEVICES\Kern_dev_\SOFT2\MCHP\Kern_v6\Kern\CustomSNMPApp.c
__SNMPSendSpaSibTrapAll:2   0x000b68       data     extern E:\Users\Pal\DEVICES\Kern_dev_\SOFT2\MCHP\Kern_v6\Kern\CustomSNMPApp.c
                remHostId   0x000b6b       data     static E:\Users\Pal\DEVICES\Kern_dev_\SOFT2\MCHP\Kern_v6\Kern\CustomSNMPApp.c
   __SNMPSendSpaSibTrap:0   0x000b6b       data     extern E:\Users\Pal\DEVICES\Kern_dev_\SOFT2\MCHP\Kern_v6\Kern\CustomSNMPApp.c
                     val1   0x000b6c       data     static E:\Users\Pal\DEVICES\Kern_dev_\SOFT2\MCHP\Kern_v6\Kern\CustomSNMPApp.c
   __SNMPSendSpaSibTrap:1   0x000b6c       data     extern E:\Users\Pal\DEVICES\Kern_dev_\SOFT2\MCHP\Kern_v6\Kern\CustomSNMPApp.c
   __SNMPSendSpaSibTrap:2   0x000b70       data     extern E:\Users\Pal\DEVICES\Kern_dev_\SOFT2\MCHP\Kern_v6\Kern\CustomSNMPApp.c
                     val2   0x000b70       data     static E:\Users\Pal\DEVICES\Kern_dev_\SOFT2\MCHP\Kern_v6\Kern\CustomSNMPApp.c
                  message   0x000b74       data     static E:\Users\Pal\DEVICES\Kern_dev_\SOFT2\MCHP\Kern_v6\Kern\CustomSNMPApp.c
   __SNMPSendSpaSibTrap:3   0x000b74       data     extern E:\Users\Pal\DEVICES\Kern_dev_\SOFT2\MCHP\Kern_v6\Kern\CustomSNMPApp.c
                TimerRead   0x000b77       data     static E:\Users\Pal\DEVICES\Kern_dev_\SOFT2\MCHP\Kern_v6\Kern\CustomSNMPApp.c
                  trapVar   0x000b7b       data     static E:\Users\Pal\DEVICES\Kern_dev_\SOFT2\MCHP\Kern_v6\Kern\CustomSNMPApp.c
                community   0x000b87       data     static E:\Users\Pal\DEVICES\Kern_dev_\SOFT2\MCHP\Kern_v6\Kern\CustomSNMPApp.c
__SNMPValidateCommunity:0   0x000b87       data     extern E:\Users\Pal\DEVICES\Kern_dev_\SOFT2\MCHP\Kern_v6\Kern\CustomSNMPApp.c
    __SNMPIsValidSetLen:0   0x000b89       data     extern E:\Users\Pal\DEVICES\Kern_dev_\SOFT2\MCHP\Kern_v6\Kern\CustomSNMPApp.c
                      var   0x000b89       data     static E:\Users\Pal\DEVICES\Kern_dev_\SOFT2\MCHP\Kern_v6\Kern\CustomSNMPApp.c
                      len   0x000b8a       data     static E:\Users\Pal\DEVICES\Kern_dev_\SOFT2\MCHP\Kern_v6\Kern\CustomSNMPApp.c
    __SNMPIsValidSetLen:1   0x000b8a       data     extern E:\Users\Pal\DEVICES\Kern_dev_\SOFT2\MCHP\Kern_v6\Kern\CustomSNMPApp.c
                    index   0x000b8b       data     static E:\Users\Pal\DEVICES\Kern_dev_\SOFT2\MCHP\Kern_v6\Kern\CustomSNMPApp.c
    __SNMPIsValidSetLen:2   0x000b8b       data     extern E:\Users\Pal\DEVICES\Kern_dev_\SOFT2\MCHP\Kern_v6\Kern\CustomSNMPApp.c
                      var   0x000b8c       data     static E:\Users\Pal\DEVICES\Kern_dev_\SOFT2\MCHP\Kern_v6\Kern\CustomSNMPApp.c
           __SNMPSetVar:0   0x000b8c       data     extern E:\Users\Pal\DEVICES\Kern_dev_\SOFT2\MCHP\Kern_v6\Kern\CustomSNMPApp.c
           __SNMPSetVar:1   0x000b8d       data     extern E:\Users\Pal\DEVICES\Kern_dev_\SOFT2\MCHP\Kern_v6\Kern\CustomSNMPApp.c
                    index   0x000b8d       data     static E:\Users\Pal\DEVICES\Kern_dev_\SOFT2\MCHP\Kern_v6\Kern\CustomSNMPApp.c
                      ref   0x000b8e       data     static E:\Users\Pal\DEVICES\Kern_dev_\SOFT2\MCHP\Kern_v6\Kern\CustomSNMPApp.c
           __SNMPSetVar:2   0x000b8e       data     extern E:\Users\Pal\DEVICES\Kern_dev_\SOFT2\MCHP\Kern_v6\Kern\CustomSNMPApp.c
                      val   0x000b8f       data     static E:\Users\Pal\DEVICES\Kern_dev_\SOFT2\MCHP\Kern_v6\Kern\CustomSNMPApp.c
           __SNMPSetVar:3   0x000b8f       data     extern E:\Users\Pal\DEVICES\Kern_dev_\SOFT2\MCHP\Kern_v6\Kern\CustomSNMPApp.c
                      var   0x000b93       data     static E:\Users\Pal\DEVICES\Kern_dev_\SOFT2\MCHP\Kern_v6\Kern\CustomSNMPApp.c
    __SNMPGetExactIndex:0   0x000b93       data     extern E:\Users\Pal\DEVICES\Kern_dev_\SOFT2\MCHP\Kern_v6\Kern\CustomSNMPApp.c
    __SNMPGetExactIndex:1   0x000b94       data     extern E:\Users\Pal\DEVICES\Kern_dev_\SOFT2\MCHP\Kern_v6\Kern\CustomSNMPApp.c
                    index   0x000b94       data     static E:\Users\Pal\DEVICES\Kern_dev_\SOFT2\MCHP\Kern_v6\Kern\CustomSNMPApp.c
     __SNMPGetNextIndex:0   0x000b95       data     extern E:\Users\Pal\DEVICES\Kern_dev_\SOFT2\MCHP\Kern_v6\Kern\CustomSNMPApp.c
                      var   0x000b95       data     static E:\Users\Pal\DEVICES\Kern_dev_\SOFT2\MCHP\Kern_v6\Kern\CustomSNMPApp.c
                    index   0x000b96       data     static E:\Users\Pal\DEVICES\Kern_dev_\SOFT2\MCHP\Kern_v6\Kern\CustomSNMPApp.c
     __SNMPGetNextIndex:1   0x000b96       data     extern E:\Users\Pal\DEVICES\Kern_dev_\SOFT2\MCHP\Kern_v6\Kern\CustomSNMPApp.c
                   pduPtr   0x000b98       data     static E:\Users\Pal\DEVICES\Kern_dev_\SOFT2\MCHP\Kern_v6\Kern\CustomSNMPApp.c
__SNMPIdRecrdValidation:0   0x000b98       data     extern E:\Users\Pal\DEVICES\Kern_dev_\SOFT2\MCHP\Kern_v6\Kern\CustomSNMPApp.c
                      var   0x000b9a       data     static E:\Users\Pal\DEVICES\Kern_dev_\SOFT2\MCHP\Kern_v6\Kern\CustomSNMPApp.c
__SNMPIdRecrdValidation:1   0x000b9a       data     extern E:\Users\Pal\DEVICES\Kern_dev_\SOFT2\MCHP\Kern_v6\Kern\CustomSNMPApp.c
__SNMPIdRecrdValidation:2   0x000b9c       data     extern E:\Users\Pal\DEVICES\Kern_dev_\SOFT2\MCHP\Kern_v6\Kern\CustomSNMPApp.c
              oidValuePtr   0x000b9c       data     static E:\Users\Pal\DEVICES\Kern_dev_\SOFT2\MCHP\Kern_v6\Kern\CustomSNMPApp.c
                   oidLen   0x000b9e       data     static E:\Users\Pal\DEVICES\Kern_dev_\SOFT2\MCHP\Kern_v6\Kern\CustomSNMPApp.c
__SNMPIdRecrdValidation:3   0x000b9e       data     extern E:\Users\Pal\DEVICES\Kern_dev_\SOFT2\MCHP\Kern_v6\Kern\CustomSNMPApp.c
                      var   0x000b9f       data     static E:\Users\Pal\DEVICES\Kern_dev_\SOFT2\MCHP\Kern_v6\Kern\CustomSNMPApp.c
           __SNMPGetVar:0   0x000b9f       data     extern E:\Users\Pal\DEVICES\Kern_dev_\SOFT2\MCHP\Kern_v6\Kern\CustomSNMPApp.c
                    index   0x000ba0       data     static E:\Users\Pal\DEVICES\Kern_dev_\SOFT2\MCHP\Kern_v6\Kern\CustomSNMPApp.c
           __SNMPGetVar:1   0x000ba0       data     extern E:\Users\Pal\DEVICES\Kern_dev_\SOFT2\MCHP\Kern_v6\Kern\CustomSNMPApp.c
           __SNMPGetVar:2   0x000ba1       data     extern E:\Users\Pal\DEVICES\Kern_dev_\SOFT2\MCHP\Kern_v6\Kern\CustomSNMPApp.c
                      ref   0x000ba1       data     static E:\Users\Pal\DEVICES\Kern_dev_\SOFT2\MCHP\Kern_v6\Kern\CustomSNMPApp.c
                      val   0x000ba3       data     static E:\Users\Pal\DEVICES\Kern_dev_\SOFT2\MCHP\Kern_v6\Kern\CustomSNMPApp.c
           __SNMPGetVar:3   0x000ba3       data     extern E:\Users\Pal\DEVICES\Kern_dev_\SOFT2\MCHP\Kern_v6\Kern\CustomSNMPApp.c
                        i   0x000ba5       data     static E:\Users\Pal\DEVICES\Kern_dev_\SOFT2\MCHP\Kern_v6\Kern\ParamsTable.c
                  dwvHigh   0x000ba5       data     static E:\Users\Pal\DEVICES\Kern_dev_\SOFT2\MCHP\Kern_v6\Kern\CustomSNMPApp.c
             wFreeTXSpace   0x000ba5       data     static E:\Users\Pal\DEVICES\Kern_dev_\SOFT2\MCHP\Kern_v6\Microchip\TCPIP Stack\TCP.c
                        i   0x000ba5       data     static E:\Users\Pal\DEVICES\Kern_dev_\SOFT2\MCHP\Kern_v6\Kern\PAL_pUART.c
                        i   0x000ba5       data     static E:\Users\Pal\DEVICES\Kern_dev_\SOFT2\MCHP\Kern_v6\Kern\Main.c
                        c   0x000ba5       data     static E:\Users\Pal\DEVICES\Kern_dev_\SOFT2\MCHP\Kern_v6\Kern\I2cEEPROM.c
                        i   0x000ba5       data     static E:\Users\Pal\DEVICES\Kern_dev_\SOFT2\MCHP\Kern_v6\Microchip\TCPIP Stack\Helpers.c
                        i   0x000ba5       data     static E:\Users\Pal\DEVICES\Kern_dev_\SOFT2\MCHP\Kern_v6\Microchip\TCPIP Stack\Helpers.c
                    dwVal   0x000ba5       data     static E:\Users\Pal\DEVICES\Kern_dev_\SOFT2\MCHP\Kern_v6\Microchip\TCPIP Stack\Helpers.c
                    dwVal   0x000ba5       data     static E:\Users\Pal\DEVICES\Kern_dev_\SOFT2\MCHP\Kern_v6\Microchip\TCPIP Stack\ICMP.c
                        i   0x000ba5       data     static E:\Users\Pal\DEVICES\Kern_dev_\SOFT2\MCHP\Kern_v6\Microchip\TCPIP Stack\NBNS.c
                 wDataLen   0x000ba5       data     static E:\Users\Pal\DEVICES\Kern_dev_\SOFT2\MCHP\Kern_v6\Microchip\TCPIP Stack\TCP.c
                 wDataLen   0x000ba5       data     static E:\Users\Pal\DEVICES\Kern_dev_\SOFT2\MCHP\Kern_v6\Microchip\TCPIP Stack\TCP.c
                TCPHeader   0x000ba5       data     static E:\Users\Pal\DEVICES\Kern_dev_\SOFT2\MCHP\Kern_v6\Microchip\TCPIP Stack\TCP.c
             CalcChecksum   0x000ba5       data     static E:\Users\Pal\DEVICES\Kern_dev_\SOFT2\MCHP\Kern_v6\Microchip\TCPIP Stack\IP.c
                   header   0x000ba5       data     static E:\Users\Pal\DEVICES\Kern_dev_\SOFT2\MCHP\Kern_v6\Microchip\TCPIP Stack\ETH97J60.c
                        i   0x000ba5       data     static E:\Users\Pal\DEVICES\Kern_dev_\SOFT2\MCHP\Kern_v6\Microchip\TCPIP Stack\Helpers.c
                    dwVal   0x000ba5       data     static E:\Users\Pal\DEVICES\Kern_dev_\SOFT2\MCHP\Kern_v6\Microchip\TCPIP Stack\Helpers.c
                    hMPFS   0x000ba5       data     static E:\Users\Pal\DEVICES\Kern_dev_\SOFT2\MCHP\Kern_v6\Microchip\TCPIP Stack\MPFS2.c
      getbulkOverFlowFlag   0x000ba5       data     static E:\Users\Pal\DEVICES\Kern_dev_\SOFT2\MCHP\Kern_v6\Microchip\TCPIP Stack\SNMP.c
                        i   0x000ba5       data     static E:\Users\Pal\DEVICES\Kern_dev_\SOFT2\MCHP\Kern_v6\Microchip\TCPIP Stack\DHCP.c
                   wCount   0x000ba5       data     static E:\Users\Pal\DEVICES\Kern_dev_\SOFT2\MCHP\Kern_v6\Microchip\TCPIP Stack\HTTP2.c
                        i   0x000ba5       data     static E:\Users\Pal\DEVICES\Kern_dev_\SOFT2\MCHP\Kern_v6\Microchip\TCPIP Stack\DHCP.c
                       cA   0x000ba5       data     static E:\Users\Pal\DEVICES\Kern_dev_\SOFT2\MCHP\Kern_v6\Microchip\TCPIP Stack\Helpers.c
                       c2   0x000ba5       data     static E:\Users\Pal\DEVICES\Kern_dev_\SOFT2\MCHP\Kern_v6\Microchip\TCPIP Stack\Helpers.c
                 tempData   0x000ba5       data     static E:\Users\Pal\DEVICES\Kern_dev_\SOFT2\MCHP\Kern_v6\Microchip\TCPIP Stack\SNMP.c
                   temp11   0x000ba5       data     static E:\Users\Pal\DEVICES\Kern_dev_\SOFT2\MCHP\Kern_v6\Kern\PAL_pUART.c
                   Result   0x000ba5       data     static E:\Users\Pal\DEVICES\Kern_dev_\SOFT2\MCHP\Kern_v6\Microchip\TCPIP Stack\ETH97J60.c
           wGetReadyCount   0x000ba5       data     static E:\Users\Pal\DEVICES\Kern_dev_\SOFT2\MCHP\Kern_v6\Microchip\TCPIP Stack\TCP.c
                        s   0x000ba5       data     static E:\Users\Pal\DEVICES\Kern_dev_\SOFT2\MCHP\Kern_v6\Microchip\TCPIP Stack\UDP.c
               remoteNode   0x000ba5       data     static E:\Users\Pal\DEVICES\Kern_dev_\SOFT2\MCHP\Kern_v6\Microchip\TCPIP Stack\SNMP.c
                 numBytes   0x000ba5       data     static E:\Users\Pal\DEVICES\Kern_dev_\SOFT2\MCHP\Kern_v6\Microchip\TCPIP Stack\HTTP2.c
                  GIESave   0x000ba5       data     static E:\Users\Pal\DEVICES\Kern_dev_\SOFT2\MCHP\Kern_v6\Microchip\TCPIP Stack\ETH97J60.c
                   oldPtr   0x000ba5       data     static E:\Users\Pal\DEVICES\Kern_dev_\SOFT2\MCHP\Kern_v6\Microchip\TCPIP Stack\HTTP2.c
                   oldPtr   0x000ba5       data     static E:\Users\Pal\DEVICES\Kern_dev_\SOFT2\MCHP\Kern_v6\Microchip\TCPIP Stack\HTTP2.c
               pCommunity   0x000ba5       data     static E:\Users\Pal\DEVICES\Kern_dev_\SOFT2\MCHP\Kern_v6\Microchip\TCPIP Stack\SNMP.c
                    pRead   0x000ba5       data     static E:\Users\Pal\DEVICES\Kern_dev_\SOFT2\MCHP\Kern_v6\Microchip\TCPIP Stack\HTTP2.c
                  crcRead   0x000ba5       data     static E:\Users\Pal\DEVICES\Kern_dev_\SOFT2\MCHP\Kern_v6\Kern\ParamsTable.c
                   packet   0x000ba5       data     static E:\Users\Pal\DEVICES\Kern_dev_\SOFT2\MCHP\Kern_v6\Microchip\TCPIP Stack\ARP.c
                  ptrTemp   0x000ba5       data     static E:\Users\Pal\DEVICES\Kern_dev_\SOFT2\MCHP\Kern_v6\Microchip\TCPIP Stack\TCP.c
                  ptrRead   0x000ba5       data     static E:\Users\Pal\DEVICES\Kern_dev_\SOFT2\MCHP\Kern_v6\Microchip\TCPIP Stack\TCP.c
                  ptrRead   0x000ba5       data     static E:\Users\Pal\DEVICES\Kern_dev_\SOFT2\MCHP\Kern_v6\Microchip\TCPIP Stack\TCP.c
                  ptrRead   0x000ba5       data     static E:\Users\Pal\DEVICES\Kern_dev_\SOFT2\MCHP\Kern_v6\Microchip\TCPIP Stack\TCP.c
                   packet   0x000ba5       data     static E:\Users\Pal\DEVICES\Kern_dev_\SOFT2\MCHP\Kern_v6\Microchip\TCPIP Stack\ARP.c
                   packet   0x000ba5       data     static E:\Users\Pal\DEVICES\Kern_dev_\SOFT2\MCHP\Kern_v6\Microchip\TCPIP Stack\ARP.c
                 pin_temp   0x000ba5       data     static E:\Users\Pal\DEVICES\Kern_dev_\SOFT2\MCHP\Kern_v6\Kern\PAL_pUART.c
                     addr   0x000ba5       data     static E:\Users\Pal\DEVICES\Kern_dev_\SOFT2\MCHP\Kern_v6\Microchip\TCPIP Stack\MPFS2.c
                        h   0x000ba5       data     static E:\Users\Pal\DEVICES\Kern_dev_\SOFT2\MCHP\Kern_v6\Microchip\TCPIP Stack\UDP.c
                        i   0x000ba5       data     static E:\Users\Pal\DEVICES\Kern_dev_\SOFT2\MCHP\Kern_v6\Microchip\TCPIP Stack\MPFS2.c
                  vBuffer   0x000ba5       data     static E:\Users\Pal\DEVICES\Kern_dev_\SOFT2\MCHP\Kern_v6\Microchip\TCPIP Stack\TCP.c
                vBitCount   0x000ba5       data     static E:\Users\Pal\DEVICES\Kern_dev_\SOFT2\MCHP\Kern_v6\Microchip\TCPIP Stack\Helpers.c
                        v   0x000ba5       data     static E:\Users\Pal\DEVICES\Kern_dev_\SOFT2\MCHP\Kern_v6\Microchip\TCPIP Stack\DHCP.c
                  trapVar   0x000ba5       data     static E:\Users\Pal\DEVICES\Kern_dev_\SOFT2\MCHP\Kern_v6\Kern\CustomSNMPApp.c
           wGetReadyCount   0x000ba5       data     static E:\Users\Pal\DEVICES\Kern_dev_\SOFT2\MCHP\Kern_v6\Microchip\TCPIP Stack\TCP.c
                  temp_tx   0x000ba5       data     static E:\Users\Pal\DEVICES\Kern_dev_\SOFT2\MCHP\Kern_v6\Kern\PAL_pUART.c
                  tempLen   0x000ba5       data     static E:\Users\Pal\DEVICES\Kern_dev_\SOFT2\MCHP\Kern_v6\Microchip\TCPIP Stack\SNMP.c
                      Tmp   0x000ba5       data     static E:\Users\Pal\DEVICES\Kern_dev_\SOFT2\MCHP\Kern_v6\Kern\UdpSet.c
        BootloaderAddress   0x000ba5       data     static E:\Users\Pal\DEVICES\Kern_dev_\SOFT2\MCHP\Kern_v6\Microchip\TCPIP Stack\Reboot.c
                     MyIP   0x000ba6       data     static E:\Users\Pal\DEVICES\Kern_dev_\SOFT2\MCHP\Kern_v6\Microchip\TCPIP Stack\DHCP.c
                        w   0x000ba6       data     static E:\Users\Pal\DEVICES\Kern_dev_\SOFT2\MCHP\Kern_v6\Microchip\TCPIP Stack\Helpers.c
                    Digit   0x000ba6       data     static E:\Users\Pal\DEVICES\Kern_dev_\SOFT2\MCHP\Kern_v6\Microchip\TCPIP Stack\Helpers.c
                     temp   0x000ba6       data     static E:\Users\Pal\DEVICES\Kern_dev_\SOFT2\MCHP\Kern_v6\Microchip\TCPIP Stack\SNMP.c
                       cB   0x000ba6       data     static E:\Users\Pal\DEVICES\Kern_dev_\SOFT2\MCHP\Kern_v6\Microchip\TCPIP Stack\Helpers.c
                        i   0x000ba6       data     static E:\Users\Pal\DEVICES\Kern_dev_\SOFT2\MCHP\Kern_v6\Microchip\TCPIP Stack\DHCP.c
                        i   0x000ba6       data     static E:\Users\Pal\DEVICES\Kern_dev_\SOFT2\MCHP\Kern_v6\Microchip\TCPIP Stack\ETH97J60.c
                       ii   0x000ba6       data     static E:\Users\Pal\DEVICES\Kern_dev_\SOFT2\MCHP\Kern_v6\Kern\PAL_pUART.c
                        j   0x000ba6       data     static E:\Users\Pal\DEVICES\Kern_dev_\SOFT2\MCHP\Kern_v6\Kern\Main.c
                     Type   0x000ba6       data     static E:\Users\Pal\DEVICES\Kern_dev_\SOFT2\MCHP\Kern_v6\Microchip\TCPIP Stack\NBNS.c
                        t   0x000ba6       data     static E:\Users\Pal\DEVICES\Kern_dev_\SOFT2\MCHP\Kern_v6\Kern\PAL_pUART.c
                 nameHash   0x000ba6       data     static E:\Users\Pal\DEVICES\Kern_dev_\SOFT2\MCHP\Kern_v6\Microchip\TCPIP Stack\MPFS2.c
                        t   0x000ba6       data     static E:\Users\Pal\DEVICES\Kern_dev_\SOFT2\MCHP\Kern_v6\Microchip\TCPIP Stack\Helpers.c
                     hTCP   0x000ba7       data     static E:\Users\Pal\DEVICES\Kern_dev_\SOFT2\MCHP\Kern_v6\Microchip\TCPIP Stack\TCP.c
                        j   0x000ba7       data     static E:\Users\Pal\DEVICES\Kern_dev_\SOFT2\MCHP\Kern_v6\Microchip\TCPIP Stack\DHCP.c
                  ptrHead   0x000ba7       data     static E:\Users\Pal\DEVICES\Kern_dev_\SOFT2\MCHP\Kern_v6\Microchip\TCPIP Stack\TCP.c
                     wLen   0x000ba7       data     static E:\Users\Pal\DEVICES\Kern_dev_\SOFT2\MCHP\Kern_v6\Microchip\TCPIP Stack\HTTP2.c
                   header   0x000ba7       data     static E:\Users\Pal\DEVICES\Kern_dev_\SOFT2\MCHP\Kern_v6\Microchip\TCPIP Stack\IP.c
                        i   0x000ba7       data     static E:\Users\Pal\DEVICES\Kern_dev_\SOFT2\MCHP\Kern_v6\Kern\CustomHTTPApp.c
                wFIFOSize   0x000ba7       data     static E:\Users\Pal\DEVICES\Kern_dev_\SOFT2\MCHP\Kern_v6\Microchip\TCPIP Stack\TCP.c
                        w   0x000ba7       data     static E:\Users\Pal\DEVICES\Kern_dev_\SOFT2\MCHP\Kern_v6\Microchip\TCPIP Stack\TCP.c
                wFIFOSize   0x000ba7       data     static E:\Users\Pal\DEVICES\Kern_dev_\SOFT2\MCHP\Kern_v6\Microchip\TCPIP Stack\TCP.c
                 wDataLen   0x000ba7       data     static E:\Users\Pal\DEVICES\Kern_dev_\SOFT2\MCHP\Kern_v6\Microchip\TCPIP Stack\TCP.c
                  crcCalc   0x000ba7       data     static E:\Users\Pal\DEVICES\Kern_dev_\SOFT2\MCHP\Kern_v6\Kern\ParamsTable.c
                 wDataLen   0x000ba7       data     static E:\Users\Pal\DEVICES\Kern_dev_\SOFT2\MCHP\Kern_v6\Microchip\TCPIP Stack\TCP.c
                      iii   0x000ba7       data     static E:\Users\Pal\DEVICES\Kern_dev_\SOFT2\MCHP\Kern_v6\Kern\PAL_pUART.c
                 OIDValue   0x000ba7       data     static E:\Users\Pal\DEVICES\Kern_dev_\SOFT2\MCHP\Kern_v6\Microchip\TCPIP Stack\SNMP.c
                      tmp   0x000ba7       data     static E:\Users\Pal\DEVICES\Kern_dev_\SOFT2\MCHP\Kern_v6\Kern\ParamsTable.c
                      i11   0x000ba7       data     static E:\Users\Pal\DEVICES\Kern_dev_\SOFT2\MCHP\Kern_v6\Kern\PAL_pUART.c
                 RightLen   0x000ba7       data     static E:\Users\Pal\DEVICES\Kern_dev_\SOFT2\MCHP\Kern_v6\Microchip\TCPIP Stack\TCP.c
                   pWrite   0x000ba7       data     static E:\Users\Pal\DEVICES\Kern_dev_\SOFT2\MCHP\Kern_v6\Microchip\TCPIP Stack\HTTP2.c
                      len   0x000ba7       data     static E:\Users\Pal\DEVICES\Kern_dev_\SOFT2\MCHP\Kern_v6\Microchip\TCPIP Stack\HTTP2.c
                      len   0x000ba7       data     static E:\Users\Pal\DEVICES\Kern_dev_\SOFT2\MCHP\Kern_v6\Microchip\TCPIP Stack\SNMP.c
                        i   0x000ba8       data     static E:\Users\Pal\DEVICES\Kern_dev_\SOFT2\MCHP\Kern_v6\Microchip\TCPIP Stack\MPFS2.c
                    wTime   0x000ba8       data     static E:\Users\Pal\DEVICES\Kern_dev_\SOFT2\MCHP\Kern_v6\Microchip\TCPIP Stack\Helpers.c
                     type   0x000ba8       data     static E:\Users\Pal\DEVICES\Kern_dev_\SOFT2\MCHP\Kern_v6\Microchip\TCPIP Stack\DHCP.c
                 OIDValue   0x000ba8       data     static E:\Users\Pal\DEVICES\Kern_dev_\SOFT2\MCHP\Kern_v6\Microchip\TCPIP Stack\SNMP.c
                    Class   0x000ba8       data     static E:\Users\Pal\DEVICES\Kern_dev_\SOFT2\MCHP\Kern_v6\Microchip\TCPIP Stack\NBNS.c
                  Divisor   0x000ba8       data     static E:\Users\Pal\DEVICES\Kern_dev_\SOFT2\MCHP\Kern_v6\Microchip\TCPIP Stack\Helpers.c
                     wLen   0x000ba9       data     static E:\Users\Pal\DEVICES\Kern_dev_\SOFT2\MCHP\Kern_v6\Microchip\TCPIP Stack\HTTP2.c
                      crc   0x000ba9       data     static E:\Users\Pal\DEVICES\Kern_dev_\SOFT2\MCHP\Kern_v6\Kern\ParamsTable.c
          wBytesUntilWrap   0x000ba9       data     static E:\Users\Pal\DEVICES\Kern_dev_\SOFT2\MCHP\Kern_v6\Microchip\TCPIP Stack\TCP.c
                   lbDone   0x000ba9       data     static E:\Users\Pal\DEVICES\Kern_dev_\SOFT2\MCHP\Kern_v6\Microchip\TCPIP Stack\DHCP.c
                     data   0x000ba9       data     static E:\Users\Pal\DEVICES\Kern_dev_\SOFT2\MCHP\Kern_v6\Microchip\TCPIP Stack\HTTP2.c
                        i   0x000ba9       data     static E:\Users\Pal\DEVICES\Kern_dev_\SOFT2\MCHP\Kern_v6\Microchip\TCPIP Stack\Helpers.c
                        i   0x000ba9       data     static E:\Users\Pal\DEVICES\Kern_dev_\SOFT2\MCHP\Kern_v6\Microchip\TCPIP Stack\Helpers.c
                        c   0x000ba9       data     static E:\Users\Pal\DEVICES\Kern_dev_\SOFT2\MCHP\Kern_v6\Microchip\TCPIP Stack\HTTP2.c
                      pdu   0x000ba9       data     static E:\Users\Pal\DEVICES\Kern_dev_\SOFT2\MCHP\Kern_v6\Microchip\TCPIP Stack\SNMP.c
            wTXAllocation   0x000ba9       data     static E:\Users\Pal\DEVICES\Kern_dev_\SOFT2\MCHP\Kern_v6\Microchip\TCPIP Stack\TCP.c
                   dwvLow   0x000ba9       data     static E:\Users\Pal\DEVICES\Kern_dev_\SOFT2\MCHP\Kern_v6\Kern\CustomSNMPApp.c
          wBytesUntilWrap   0x000ba9       data     static E:\Users\Pal\DEVICES\Kern_dev_\SOFT2\MCHP\Kern_v6\Microchip\TCPIP Stack\TCP.c
          wBytesUntilWrap   0x000ba9       data     static E:\Users\Pal\DEVICES\Kern_dev_\SOFT2\MCHP\Kern_v6\Microchip\TCPIP Stack\TCP.c
                     data   0x000baa       data     static E:\Users\Pal\DEVICES\Kern_dev_\SOFT2\MCHP\Kern_v6\Microchip\TCPIP Stack\HTTP2.c
                  charLen   0x000baa       data     static E:\Users\Pal\DEVICES\Kern_dev_\SOFT2\MCHP\Kern_v6\Microchip\TCPIP Stack\Helpers.c
             tempServerID   0x000baa       data     static E:\Users\Pal\DEVICES\Kern_dev_\SOFT2\MCHP\Kern_v6\Microchip\TCPIP Stack\DHCP.c
                  charLen   0x000baa       data     static E:\Users\Pal\DEVICES\Kern_dev_\SOFT2\MCHP\Kern_v6\Microchip\TCPIP Stack\Helpers.c
                  Printed   0x000baa       data     static E:\Users\Pal\DEVICES\Kern_dev_\SOFT2\MCHP\Kern_v6\Microchip\TCPIP Stack\Helpers.c
               wLastValue   0x000baa       data     static E:\Users\Pal\DEVICES\Kern_dev_\SOFT2\MCHP\Kern_v6\Microchip\TCPIP Stack\Helpers.c
                hashCache   0x000baa       data     static E:\Users\Pal\DEVICES\Kern_dev_\SOFT2\MCHP\Kern_v6\Microchip\TCPIP Stack\MPFS2.c
               NBNSHeader   0x000baa       data     static E:\Users\Pal\DEVICES\Kern_dev_\SOFT2\MCHP\Kern_v6\Microchip\TCPIP Stack\NBNS.c
               snmpMsgBuf   0x000baa       data     static E:\Users\Pal\DEVICES\Kern_dev_\SOFT2\MCHP\Kern_v6\Microchip\TCPIP Stack\SNMP.c
                       dt   0x000bab       data     static E:\Users\Pal\DEVICES\Kern_dev_\SOFT2\MCHP\Kern_v6\Kern\Main.c
              ptrLocation   0x000bab       data     static E:\Users\Pal\DEVICES\Kern_dev_\SOFT2\MCHP\Kern_v6\Microchip\TCPIP Stack\TCP.c
              ptrLocation   0x000bab       data     static E:\Users\Pal\DEVICES\Kern_dev_\SOFT2\MCHP\Kern_v6\Microchip\TCPIP Stack\TCP.c
             currentOctet   0x000bab       data     static E:\Users\Pal\DEVICES\Kern_dev_\SOFT2\MCHP\Kern_v6\Microchip\TCPIP Stack\Helpers.c
             currentOctet   0x000bab       data     static E:\Users\Pal\DEVICES\Kern_dev_\SOFT2\MCHP\Kern_v6\Microchip\TCPIP Stack\Helpers.c
                      tmp   0x000bab       data     static E:\Users\Pal\DEVICES\Kern_dev_\SOFT2\MCHP\Kern_v6\Kern\CustomHTTPApp.c
                        i   0x000bab       data     static E:\Users\Pal\DEVICES\Kern_dev_\SOFT2\MCHP\Kern_v6\Microchip\TCPIP Stack\TCP.c
                        c   0x000bab       data     static E:\Users\Pal\DEVICES\Kern_dev_\SOFT2\MCHP\Kern_v6\Microchip\TCPIP Stack\HTTP2.c
                        i   0x000bab       data     static E:\Users\Pal\DEVICES\Kern_dev_\SOFT2\MCHP\Kern_v6\Kern\ParamsTable.c
                        k   0x000bac       data     static E:\Users\Pal\DEVICES\Kern_dev_\SOFT2\MCHP\Kern_v6\Kern\Main.c
                        i   0x000bac       data     static E:\Users\Pal\DEVICES\Kern_dev_\SOFT2\MCHP\Kern_v6\Kern\UdpSet.c
                 MySocket   0x000bac       data     static E:\Users\Pal\DEVICES\Kern_dev_\SOFT2\MCHP\Kern_v6\Kern\UdpSet.c
              dwTotalTime   0x000bac       data     static E:\Users\Pal\DEVICES\Kern_dev_\SOFT2\MCHP\Kern_v6\Microchip\TCPIP Stack\Helpers.c
                      hex   0x000bac       data     static E:\Users\Pal\DEVICES\Kern_dev_\SOFT2\MCHP\Kern_v6\Microchip\TCPIP Stack\HTTP2.c
                       dw   0x000bad       data     static E:\Users\Pal\DEVICES\Kern_dev_\SOFT2\MCHP\Kern_v6\Kern\CustomSNMPApp.c
                wLenStart   0x000bad       data     static E:\Users\Pal\DEVICES\Kern_dev_\SOFT2\MCHP\Kern_v6\Microchip\TCPIP Stack\TCP.c
                wLenStart   0x000bad       data     static E:\Users\Pal\DEVICES\Kern_dev_\SOFT2\MCHP\Kern_v6\Microchip\TCPIP Stack\TCP.c
                        i   0x000bad       data     static E:\Users\Pal\DEVICES\Kern_dev_\SOFT2\MCHP\Kern_v6\Kern\Main.c
                        s   0x000bad       data     static E:\Users\Pal\DEVICES\Kern_dev_\SOFT2\MCHP\Kern_v6\Microchip\TCPIP Stack\UDP.c
                        i   0x000bad       data     static E:\Users\Pal\DEVICES\Kern_dev_\SOFT2\MCHP\Kern_v6\Kern\UdpSet.c
             pseudoHeader   0x000bae       data     static E:\Users\Pal\DEVICES\Kern_dev_\SOFT2\MCHP\Kern_v6\Microchip\TCPIP Stack\UDP.c
          wBytesAvailable   0x000bae       data     static E:\Users\Pal\DEVICES\Kern_dev_\SOFT2\MCHP\Kern_v6\Microchip\TCPIP Stack\UDP.c
       DataAmountInSocket   0x000bae       data     static E:\Users\Pal\DEVICES\Kern_dev_\SOFT2\MCHP\Kern_v6\Kern\UdpSet.c
             strCommunity   0x000bae       data     static E:\Users\Pal\DEVICES\Kern_dev_\SOFT2\MCHP\Kern_v6\Kern\Main.c
          cFindArrayStart   0x000baf       data     static E:\Users\Pal\DEVICES\Kern_dev_\SOFT2\MCHP\Kern_v6\Microchip\TCPIP Stack\TCP.c
          cFindArrayStart   0x000baf       data     static E:\Users\Pal\DEVICES\Kern_dev_\SOFT2\MCHP\Kern_v6\Microchip\TCPIP Stack\TCP.c
         remHostIpAddrPtr   0x000baf       data     static E:\Users\Pal\DEVICES\Kern_dev_\SOFT2\MCHP\Kern_v6\Microchip\TCPIP Stack\SNMP.c
                        i   0x000bb0       data     static E:\Users\Pal\DEVICES\Kern_dev_\SOFT2\MCHP\Kern_v6\Microchip\TCPIP Stack\DHCP.c
             randomResult   0x000bb0       data     static E:\Users\Pal\DEVICES\Kern_dev_\SOFT2\MCHP\Kern_v6\Microchip\TCPIP Stack\Helpers.c
            ByteFromUdpRx   0x000bb0       data     static E:\Users\Pal\DEVICES\Kern_dev_\SOFT2\MCHP\Kern_v6\Kern\UdpSet.c
               snmpMsgLen   0x000bb1       data     static E:\Users\Pal\DEVICES\Kern_dev_\SOFT2\MCHP\Kern_v6\Microchip\TCPIP Stack\SNMP.c
                temp_char   0x000bb1       data     static E:\Users\Pal\DEVICES\Kern_dev_\SOFT2\MCHP\Kern_v6\Kern\PAL_pUART.c
                timeStamp   0x000bb1       data     static E:\Users\Pal\DEVICES\Kern_dev_\SOFT2\MCHP\Kern_v6\Kern\CustomSNMPApp.c
                   digits   0x000bb1       data     static E:\Users\Pal\DEVICES\Kern_dev_\SOFT2\MCHP\Kern_v6\Kern\CustomHTTPApp.c
                        i   0x000bb1       data     static E:\Users\Pal\DEVICES\Kern_dev_\SOFT2\MCHP\Kern_v6\Microchip\TCPIP Stack\TCP.c
                        i   0x000bb1       data     static E:\Users\Pal\DEVICES\Kern_dev_\SOFT2\MCHP\Kern_v6\Kern\ParamsTable.c
                   wvPROD   0x000bb1       data     static E:\Users\Pal\DEVICES\Kern_dev_\SOFT2\MCHP\Kern_v6\Microchip\TCPIP Stack\Reboot.c
            DiscoveryFlag   0x000bb1       data     static E:\Users\Pal\DEVICES\Kern_dev_\SOFT2\MCHP\Kern_v6\Kern\UdpSet.c
                        j   0x000bb2       data     static E:\Users\Pal\DEVICES\Kern_dev_\SOFT2\MCHP\Kern_v6\Microchip\TCPIP Stack\TCP.c
                    wTemp   0x000bb2       data     static E:\Users\Pal\DEVICES\Kern_dev_\SOFT2\MCHP\Kern_v6\Microchip\TCPIP Stack\UDP.c
                       r1   0x000bb2       data     static E:\Users\Pal\DEVICES\Kern_dev_\SOFT2\MCHP\Kern_v6\Kern\PAL_pUART.c
                    wTemp   0x000bb2       data     static E:\Users\Pal\DEVICES\Kern_dev_\SOFT2\MCHP\Kern_v6\Microchip\TCPIP Stack\UDP.c
                        i   0x000bb2       data     static E:\Users\Pal\DEVICES\Kern_dev_\SOFT2\MCHP\Kern_v6\Microchip\TCPIP Stack\TCP.c
                        k   0x000bb3       data     static E:\Users\Pal\DEVICES\Kern_dev_\SOFT2\MCHP\Kern_v6\Microchip\TCPIP Stack\TCP.c
             device_group   0x000bb3       data     static E:\Users\Pal\DEVICES\Kern_dev_\SOFT2\MCHP\Kern_v6\Kern\PAL_pUART.c
                   retlen   0x000bb3       data     static E:\Users\Pal\DEVICES\Kern_dev_\SOFT2\MCHP\Kern_v6\Microchip\TCPIP Stack\SNMP.c
                        j   0x000bb3       data     static E:\Users\Pal\DEVICES\Kern_dev_\SOFT2\MCHP\Kern_v6\Microchip\TCPIP Stack\TCP.c
                        k   0x000bb4       data     static E:\Users\Pal\DEVICES\Kern_dev_\SOFT2\MCHP\Kern_v6\Microchip\TCPIP Stack\TCP.c
               ADCON0Save   0x000bb4       data     static E:\Users\Pal\DEVICES\Kern_dev_\SOFT2\MCHP\Kern_v6\Microchip\TCPIP Stack\Helpers.c
                isFinding   0x000bb4       data     static E:\Users\Pal\DEVICES\Kern_dev_\SOFT2\MCHP\Kern_v6\Microchip\TCPIP Stack\TCP.c
               device_num   0x000bb4       data     static E:\Users\Pal\DEVICES\Kern_dev_\SOFT2\MCHP\Kern_v6\Kern\PAL_pUART.c
                   buffer   0x000bb5       data     static E:\Users\Pal\DEVICES\Kern_dev_\SOFT2\MCHP\Kern_v6\Microchip\TCPIP Stack\TCP.c
                 tempCntr   0x000bb5       data     static E:\Users\Pal\DEVICES\Kern_dev_\SOFT2\MCHP\Kern_v6\Microchip\TCPIP Stack\SNMP.c
                        i   0x000bb5       data     static E:\Users\Pal\DEVICES\Kern_dev_\SOFT2\MCHP\Kern_v6\Kern\CustomHTTPApp.c
               ADCON2Save   0x000bb5       data     static E:\Users\Pal\DEVICES\Kern_dev_\SOFT2\MCHP\Kern_v6\Microchip\TCPIP Stack\Helpers.c
                isFinding   0x000bb5       data     static E:\Users\Pal\DEVICES\Kern_dev_\SOFT2\MCHP\Kern_v6\Microchip\TCPIP Stack\TCP.c
             device_alarm   0x000bb5       data     static E:\Users\Pal\DEVICES\Kern_dev_\SOFT2\MCHP\Kern_v6\Kern\PAL_pUART.c
                       dw   0x000bb5       data     static E:\Users\Pal\DEVICES\Kern_dev_\SOFT2\MCHP\Kern_v6\Microchip\TCPIP Stack\Tick.c
                        w   0x000bb5       data     static E:\Users\Pal\DEVICES\Kern_dev_\SOFT2\MCHP\Kern_v6\Microchip\TCPIP Stack\TCP.c
                   OIDLen   0x000bb6       data     static E:\Users\Pal\DEVICES\Kern_dev_\SOFT2\MCHP\Kern_v6\Microchip\TCPIP Stack\SNMP.c
               NameString   0x000bb6       data     static E:\Users\Pal\DEVICES\Kern_dev_\SOFT2\MCHP\Kern_v6\Microchip\TCPIP Stack\NBNS.c
                   buffer   0x000bb6       data     static E:\Users\Pal\DEVICES\Kern_dev_\SOFT2\MCHP\Kern_v6\Microchip\TCPIP Stack\TCP.c
            trap_argument   0x000bb6       data     static E:\Users\Pal\DEVICES\Kern_dev_\SOFT2\MCHP\Kern_v6\Kern\PAL_pUART.c
                T0CONSave   0x000bb6       data     static E:\Users\Pal\DEVICES\Kern_dev_\SOFT2\MCHP\Kern_v6\Microchip\TCPIP Stack\Helpers.c
                 varIndex   0x000bb7       data     static E:\Users\Pal\DEVICES\Kern_dev_\SOFT2\MCHP\Kern_v6\Microchip\TCPIP Stack\SNMP.c
                      Tmp   0x000bb7       data     static E:\Users\Pal\DEVICES\Kern_dev_\SOFT2\MCHP\Kern_v6\Kern\CustomHTTPApp.c
                TMR0HSave   0x000bb7       data     static E:\Users\Pal\DEVICES\Kern_dev_\SOFT2\MCHP\Kern_v6\Microchip\TCPIP Stack\Helpers.c
                   OIDLen   0x000bb7       data     static E:\Users\Pal\DEVICES\Kern_dev_\SOFT2\MCHP\Kern_v6\Microchip\TCPIP Stack\SNMP.c
                        i   0x000bb7       data     static E:\Users\Pal\DEVICES\Kern_dev_\SOFT2\MCHP\Kern_v6\Kern\CustomHTTPApp.c
                  tempPtr   0x000bb7       data     static E:\Users\Pal\DEVICES\Kern_dev_\SOFT2\MCHP\Kern_v6\Microchip\TCPIP Stack\SNMP.c
               errorIndex   0x000bb8       data     static E:\Users\Pal\DEVICES\Kern_dev_\SOFT2\MCHP\Kern_v6\Microchip\TCPIP Stack\SNMP.c
                     temp   0x000bb8       data     static E:\Users\Pal\DEVICES\Kern_dev_\SOFT2\MCHP\Kern_v6\Kern\PAL_pUART.c
               agentIDLen   0x000bb8       data     static E:\Users\Pal\DEVICES\Kern_dev_\SOFT2\MCHP\Kern_v6\Microchip\TCPIP Stack\SNMP.c
                TMR0LSave   0x000bb8       data     static E:\Users\Pal\DEVICES\Kern_dev_\SOFT2\MCHP\Kern_v6\Microchip\TCPIP Stack\Helpers.c
                      Tmp   0x000bb8       data     static E:\Users\Pal\DEVICES\Kern_dev_\SOFT2\MCHP\Kern_v6\Kern\CustomHTTPApp.c
                        i   0x000bb9       data     static E:\Users\Pal\DEVICES\Kern_dev_\SOFT2\MCHP\Kern_v6\Kern\PAL_pUART.c
                        i   0x000bb9       data     static E:\Users\Pal\DEVICES\Kern_dev_\SOFT2\MCHP\Kern_v6\Microchip\TCPIP Stack\TCP.c
                pOIDValue   0x000bb9       data     static E:\Users\Pal\DEVICES\Kern_dev_\SOFT2\MCHP\Kern_v6\Microchip\TCPIP Stack\SNMP.c
             communityLen   0x000bb9       data     static E:\Users\Pal\DEVICES\Kern_dev_\SOFT2\MCHP\Kern_v6\Microchip\TCPIP Stack\SNMP.c
                 tempData   0x000bb9       data     static E:\Users\Pal\DEVICES\Kern_dev_\SOFT2\MCHP\Kern_v6\Microchip\TCPIP Stack\SNMP.c
             pseudoHeader   0x000bb9       data     static E:\Users\Pal\DEVICES\Kern_dev_\SOFT2\MCHP\Kern_v6\Microchip\TCPIP Stack\TCP.c
                 tempData   0x000bb9       data     static E:\Users\Pal\DEVICES\Kern_dev_\SOFT2\MCHP\Kern_v6\Microchip\TCPIP Stack\SNMP.c
                 tempData   0x000bb9       data     static E:\Users\Pal\DEVICES\Kern_dev_\SOFT2\MCHP\Kern_v6\Microchip\TCPIP Stack\SNMP.c
               commRetVal   0x000bba       data     static E:\Users\Pal\DEVICES\Kern_dev_\SOFT2\MCHP\Kern_v6\Microchip\TCPIP Stack\SNMP.c
                  tempLen   0x000bba       data     static E:\Users\Pal\DEVICES\Kern_dev_\SOFT2\MCHP\Kern_v6\Microchip\TCPIP Stack\SNMP.c
        vSocketsAllocated   0x000bba       data     static E:\Users\Pal\DEVICES\Kern_dev_\SOFT2\MCHP\Kern_v6\Microchip\TCPIP Stack\TCP.c
                    count   0x000bba       data     static E:\Users\Pal\DEVICES\Kern_dev_\SOFT2\MCHP\Kern_v6\Kern\PAL_pUART.c
                      ptr   0x000bba       data     static E:\Users\Pal\DEVICES\Kern_dev_\SOFT2\MCHP\Kern_v6\Microchip\TCPIP Stack\MPFS2.c
                  tempLen   0x000bba       data     static E:\Users\Pal\DEVICES\Kern_dev_\SOFT2\MCHP\Kern_v6\Microchip\TCPIP Stack\SNMP.c
                checksums   0x000bba       data     static E:\Users\Pal\DEVICES\Kern_dev_\SOFT2\MCHP\Kern_v6\Microchip\TCPIP Stack\UDP.c
                  wTXSize   0x000bbb       data     static E:\Users\Pal\DEVICES\Kern_dev_\SOFT2\MCHP\Kern_v6\Microchip\TCPIP Stack\TCP.c
                     temp   0x000bbb       data     static E:\Users\Pal\DEVICES\Kern_dev_\SOFT2\MCHP\Kern_v6\Microchip\TCPIP Stack\ETH97J60.c
            noOfOIDsInReq   0x000bbb       data     static E:\Users\Pal\DEVICES\Kern_dev_\SOFT2\MCHP\Kern_v6\Microchip\TCPIP Stack\SNMP.c
               tempOffset   0x000bbb       data     static E:\Users\Pal\DEVICES\Kern_dev_\SOFT2\MCHP\Kern_v6\Microchip\TCPIP Stack\SNMP.c
                        c   0x000bbc       data     static E:\Users\Pal\DEVICES\Kern_dev_\SOFT2\MCHP\Kern_v6\Microchip\TCPIP Stack\MPFS2.c
         tempNonRepeators   0x000bbc       data     static E:\Users\Pal\DEVICES\Kern_dev_\SOFT2\MCHP\Kern_v6\Microchip\TCPIP Stack\SNMP.c
                   RDSave   0x000bbd       data     static E:\Users\Pal\DEVICES\Kern_dev_\SOFT2\MCHP\Kern_v6\Microchip\TCPIP Stack\ETH97J60.c
                  wRXSize   0x000bbd       data     static E:\Users\Pal\DEVICES\Kern_dev_\SOFT2\MCHP\Kern_v6\Microchip\TCPIP Stack\TCP.c
    noOfVarToBeInResponse   0x000bbd       data     static E:\Users\Pal\DEVICES\Kern_dev_\SOFT2\MCHP\Kern_v6\Microchip\TCPIP Stack\SNMP.c
                  tempLen   0x000bbd       data     static E:\Users\Pal\DEVICES\Kern_dev_\SOFT2\MCHP\Kern_v6\Microchip\TCPIP Stack\SNMP.c
                      rec   0x000bbd       data     static E:\Users\Pal\DEVICES\Kern_dev_\SOFT2\MCHP\Kern_v6\Microchip\TCPIP Stack\SNMP.c
               repeatCntr   0x000bbe       data     static E:\Users\Pal\DEVICES\Kern_dev_\SOFT2\MCHP\Kern_v6\Microchip\TCPIP Stack\SNMP.c
                        s   0x000bbe       data     static E:\Users\Pal\DEVICES\Kern_dev_\SOFT2\MCHP\Kern_v6\Microchip\TCPIP Stack\UDP.c
           ptrBaseAddress   0x000bbf       data     static E:\Users\Pal\DEVICES\Kern_dev_\SOFT2\MCHP\Kern_v6\Microchip\TCPIP Stack\TCP.c
              varBindCntr   0x000bbf       data     static E:\Users\Pal\DEVICES\Kern_dev_\SOFT2\MCHP\Kern_v6\Microchip\TCPIP Stack\SNMP.c
             partialMatch   0x000bbf       data     static E:\Users\Pal\DEVICES\Kern_dev_\SOFT2\MCHP\Kern_v6\Microchip\TCPIP Stack\UDP.c
                        p   0x000bc0       data     static E:\Users\Pal\DEVICES\Kern_dev_\SOFT2\MCHP\Kern_v6\Microchip\TCPIP Stack\UDP.c
                Getbulk_N   0x000bc0       data     static E:\Users\Pal\DEVICES\Kern_dev_\SOFT2\MCHP\Kern_v6\Microchip\TCPIP Stack\SNMP.c
                  vMedium   0x000bc1       data     static E:\Users\Pal\DEVICES\Kern_dev_\SOFT2\MCHP\Kern_v6\Microchip\TCPIP Stack\TCP.c
                     hTCP   0x000bc1       data     static E:\Users\Pal\DEVICES\Kern_dev_\SOFT2\MCHP\Kern_v6\Microchip\TCPIP Stack\TCP.c
         remHostIpAddrPtr   0x000bc1       data     static E:\Users\Pal\DEVICES\Kern_dev_\SOFT2\MCHP\Kern_v6\Microchip\TCPIP Stack\SNMP.c
                Getbulk_M   0x000bc1       data     static E:\Users\Pal\DEVICES\Kern_dev_\SOFT2\MCHP\Kern_v6\Microchip\TCPIP Stack\SNMP.c
              bRetransmit   0x000bc2       data     static E:\Users\Pal\DEVICES\Kern_dev_\SOFT2\MCHP\Kern_v6\Microchip\TCPIP Stack\TCP.c
       wCurrentETHAddress   0x000bc2       data     static E:\Users\Pal\DEVICES\Kern_dev_\SOFT2\MCHP\Kern_v6\Microchip\TCPIP Stack\TCP.c
                Getbulk_R   0x000bc2       data     static E:\Users\Pal\DEVICES\Kern_dev_\SOFT2\MCHP\Kern_v6\Microchip\TCPIP Stack\SNMP.c
             oidLookUpRet   0x000bc3       data     static E:\Users\Pal\DEVICES\Kern_dev_\SOFT2\MCHP\Kern_v6\Microchip\TCPIP Stack\SNMP.c
             bCloseSocket   0x000bc3       data     static E:\Users\Pal\DEVICES\Kern_dev_\SOFT2\MCHP\Kern_v6\Microchip\TCPIP Stack\TCP.c
                  templen   0x000bc4       data     static E:\Users\Pal\DEVICES\Kern_dev_\SOFT2\MCHP\Kern_v6\Microchip\TCPIP Stack\SNMP.c
                   vFlags   0x000bc4       data     static E:\Users\Pal\DEVICES\Kern_dev_\SOFT2\MCHP\Kern_v6\Microchip\TCPIP Stack\TCP.c
                dwOldSeed   0x000bc4       data     static E:\Users\Pal\DEVICES\Kern_dev_\SOFT2\MCHP\Kern_v6\Microchip\TCPIP Stack\Helpers.c
                checksum1   0x000bc5       data     static E:\Users\Pal\DEVICES\Kern_dev_\SOFT2\MCHP\Kern_v6\Microchip\TCPIP Stack\TCP.c
                successor   0x000bc5       data     static E:\Users\Pal\DEVICES\Kern_dev_\SOFT2\MCHP\Kern_v6\Microchip\TCPIP Stack\SNMP.c
                        w   0x000bc5       data     static E:\Users\Pal\DEVICES\Kern_dev_\SOFT2\MCHP\Kern_v6\Microchip\TCPIP Stack\TCP.c
                        i   0x000bc6       data     static E:\Users\Pal\DEVICES\Kern_dev_\SOFT2\MCHP\Kern_v6\Microchip\TCPIP Stack\NBNS.c
                        i   0x000bc6       data     static E:\Users\Pal\DEVICES\Kern_dev_\SOFT2\MCHP\Kern_v6\Microchip\TCPIP Stack\NBNS.c
                    ptemp   0x000bc6       data     static E:\Users\Pal\DEVICES\Kern_dev_\SOFT2\MCHP\Kern_v6\Microchip\TCPIP Stack\SNMP.c
                        s   0x000bc6       data     static E:\Users\Pal\DEVICES\Kern_dev_\SOFT2\MCHP\Kern_v6\Microchip\TCPIP Stack\UDP.c
                        p   0x000bc7       data     static E:\Users\Pal\DEVICES\Kern_dev_\SOFT2\MCHP\Kern_v6\Microchip\TCPIP Stack\UDP.c
                checksum2   0x000bc7       data     static E:\Users\Pal\DEVICES\Kern_dev_\SOFT2\MCHP\Kern_v6\Microchip\TCPIP Stack\TCP.c
                        j   0x000bc7       data     static E:\Users\Pal\DEVICES\Kern_dev_\SOFT2\MCHP\Kern_v6\Microchip\TCPIP Stack\NBNS.c
                        j   0x000bc7       data     static E:\Users\Pal\DEVICES\Kern_dev_\SOFT2\MCHP\Kern_v6\Microchip\TCPIP Stack\NBNS.c
                   ptroid   0x000bc8       data     static E:\Users\Pal\DEVICES\Kern_dev_\SOFT2\MCHP\Kern_v6\Microchip\TCPIP Stack\SNMP.c
                        k   0x000bc8       data     static E:\Users\Pal\DEVICES\Kern_dev_\SOFT2\MCHP\Kern_v6\Microchip\TCPIP Stack\NBNS.c
                        i   0x000bc8       data     static E:\Users\Pal\DEVICES\Kern_dev_\SOFT2\MCHP\Kern_v6\Microchip\TCPIP Stack\Helpers.c
               wActualLen   0x000bc9       data     static E:\Users\Pal\DEVICES\Kern_dev_\SOFT2\MCHP\Kern_v6\Microchip\TCPIP Stack\TCP.c
              optionsSize   0x000bc9       data     static E:\Users\Pal\DEVICES\Kern_dev_\SOFT2\MCHP\Kern_v6\Microchip\TCPIP Stack\TCP.c
                   dwTemp   0x000bca       data     static E:\Users\Pal\DEVICES\Kern_dev_\SOFT2\MCHP\Kern_v6\Microchip\TCPIP Stack\TCP.c
          NewRXRDLocation   0x000bca       data     static E:\Users\Pal\DEVICES\Kern_dev_\SOFT2\MCHP\Kern_v6\Microchip\TCPIP Stack\ETH97J60.c
                     hTCP   0x000bca       data     static E:\Users\Pal\DEVICES\Kern_dev_\SOFT2\MCHP\Kern_v6\Microchip\TCPIP Stack\TCP.c
        rxedCommunityName   0x000bca       data     static E:\Users\Pal\DEVICES\Kern_dev_\SOFT2\MCHP\Kern_v6\Microchip\TCPIP Stack\SNMP.c
             partialMatch   0x000bcb       data     static E:\Users\Pal\DEVICES\Kern_dev_\SOFT2\MCHP\Kern_v6\Microchip\TCPIP Stack\TCP.c
             wFreeTXSpace   0x000bcb       data     static E:\Users\Pal\DEVICES\Kern_dev_\SOFT2\MCHP\Kern_v6\Microchip\TCPIP Stack\TCP.c
      varBindStructOffset   0x000bcc       data     static E:\Users\Pal\DEVICES\Kern_dev_\SOFT2\MCHP\Kern_v6\Microchip\TCPIP Stack\SNMP.c
                     hash   0x000bcc       data     static E:\Users\Pal\DEVICES\Kern_dev_\SOFT2\MCHP\Kern_v6\Microchip\TCPIP Stack\TCP.c
                wRightLen   0x000bcd       data     static E:\Users\Pal\DEVICES\Kern_dev_\SOFT2\MCHP\Kern_v6\Microchip\TCPIP Stack\TCP.c
             tempTxOffset   0x000bce       data     static E:\Users\Pal\DEVICES\Kern_dev_\SOFT2\MCHP\Kern_v6\Microchip\TCPIP Stack\SNMP.c
                    wTemp   0x000bce       data     static E:\Users\Pal\DEVICES\Kern_dev_\SOFT2\MCHP\Kern_v6\Microchip\TCPIP Stack\TCP.c
          wQueueInsertPos   0x000bce       data     static E:\Users\Pal\DEVICES\Kern_dev_\SOFT2\MCHP\Kern_v6\Microchip\TCPIP Stack\TCP.c
            lMissingBytes   0x000bd0       data     static E:\Users\Pal\DEVICES\Kern_dev_\SOFT2\MCHP\Kern_v6\Microchip\TCPIP Stack\TCP.c
                oidOffset   0x000bd0       data     static E:\Users\Pal\DEVICES\Kern_dev_\SOFT2\MCHP\Kern_v6\Microchip\TCPIP Stack\SNMP.c
               prevOffset   0x000bd2       data     static E:\Users\Pal\DEVICES\Kern_dev_\SOFT2\MCHP\Kern_v6\Microchip\TCPIP Stack\SNMP.c
    packetStructLenOffset   0x000bd4       data     static E:\Users\Pal\DEVICES\Kern_dev_\SOFT2\MCHP\Kern_v6\Microchip\TCPIP Stack\SNMP.c
            wMissingBytes   0x000bd4       data     static E:\Users\Pal\DEVICES\Kern_dev_\SOFT2\MCHP\Kern_v6\Microchip\TCPIP Stack\TCP.c
             dataTypeInfo   0x000bd5       data     static E:\Users\Pal\DEVICES\Kern_dev_\SOFT2\MCHP\Kern_v6\Microchip\TCPIP Stack\SNMP.c
                 filename   0x000bd5       data     static E:\Users\Pal\DEVICES\Kern_dev_\SOFT2\MCHP\Kern_v6\Kern\CustomHTTPApp.c
             pduLenOffset   0x000bd6       data     static E:\Users\Pal\DEVICES\Kern_dev_\SOFT2\MCHP\Kern_v6\Microchip\TCPIP Stack\SNMP.c
               wFreeSpace   0x000bd6       data     static E:\Users\Pal\DEVICES\Kern_dev_\SOFT2\MCHP\Kern_v6\Microchip\TCPIP Stack\TCP.c
                      len   0x000bd6       data     static E:\Users\Pal\DEVICES\Kern_dev_\SOFT2\MCHP\Kern_v6\Microchip\TCPIP Stack\HTTP2.c
            snmptrap_oids   0x000bd7       data     static E:\Users\Pal\DEVICES\Kern_dev_\SOFT2\MCHP\Kern_v6\Microchip\TCPIP Stack\SNMP.c
                      buf   0x000bd8       data     static E:\Users\Pal\DEVICES\Kern_dev_\SOFT2\MCHP\Kern_v6\Microchip\TCPIP Stack\HTTP2.c
         localHeaderFlags   0x000bd8       data     static E:\Users\Pal\DEVICES\Kern_dev_\SOFT2\MCHP\Kern_v6\Microchip\TCPIP Stack\TCP.c
        errorStatusOffset   0x000bd8       data     static E:\Users\Pal\DEVICES\Kern_dev_\SOFT2\MCHP\Kern_v6\Microchip\TCPIP Stack\SNMP.c
           localAckNumber   0x000bd9       data     static E:\Users\Pal\DEVICES\Kern_dev_\SOFT2\MCHP\Kern_v6\Microchip\TCPIP Stack\TCP.c
         errorIndexOffset   0x000bda       data     static E:\Users\Pal\DEVICES\Kern_dev_\SOFT2\MCHP\Kern_v6\Microchip\TCPIP Stack\SNMP.c
       varStructLenOffset   0x000bdc       data     static E:\Users\Pal\DEVICES\Kern_dev_\SOFT2\MCHP\Kern_v6\Microchip\TCPIP Stack\SNMP.c
           localSeqNumber   0x000bdd       data     static E:\Users\Pal\DEVICES\Kern_dev_\SOFT2\MCHP\Kern_v6\Microchip\TCPIP Stack\TCP.c
         prevSnmpRxOffset   0x000bde       data     static E:\Users\Pal\DEVICES\Kern_dev_\SOFT2\MCHP\Kern_v6\Microchip\TCPIP Stack\SNMP.c
            varBindingLen   0x000be0       data     static E:\Users\Pal\DEVICES\Kern_dev_\SOFT2\MCHP\Kern_v6\Microchip\TCPIP Stack\SNMP.c
           sysUpTime_oids   0x000be0       data     static E:\Users\Pal\DEVICES\Kern_dev_\SOFT2\MCHP\Kern_v6\Microchip\TCPIP Stack\SNMP.c
           wSegmentLength   0x000be1       data     static E:\Users\Pal\DEVICES\Kern_dev_\SOFT2\MCHP\Kern_v6\Microchip\TCPIP Stack\TCP.c
                  tempLen   0x000be2       data     static E:\Users\Pal\DEVICES\Kern_dev_\SOFT2\MCHP\Kern_v6\Microchip\TCPIP Stack\SNMP.c
       bSegmentAcceptable   0x000be3       data     static E:\Users\Pal\DEVICES\Kern_dev_\SOFT2\MCHP\Kern_v6\Microchip\TCPIP Stack\TCP.c
               wNewWindow   0x000be4       data     static E:\Users\Pal\DEVICES\Kern_dev_\SOFT2\MCHP\Kern_v6\Microchip\TCPIP Stack\TCP.c
               varPairLen   0x000be4       data     static E:\Users\Pal\DEVICES\Kern_dev_\SOFT2\MCHP\Kern_v6\Microchip\TCPIP Stack\SNMP.c
                  OIDInfo   0x000be6       data     static E:\Users\Pal\DEVICES\Kern_dev_\SOFT2\MCHP\Kern_v6\Microchip\TCPIP Stack\SNMP.c
                        i   0x000be6       data     static E:\Users\Pal\DEVICES\Kern_dev_\SOFT2\MCHP\Kern_v6\Microchip\TCPIP Stack\Helpers.c
            vOptionsBytes   0x000be6       data     static E:\Users\Pal\DEVICES\Kern_dev_\SOFT2\MCHP\Kern_v6\Microchip\TCPIP Stack\TCP.c
           trapVarBindLen   0x000be7       data     static E:\Users\Pal\DEVICES\Kern_dev_\SOFT2\MCHP\Kern_v6\Microchip\TCPIP Stack\SNMP.c
                  vOption   0x000be7       data     static E:\Users\Pal\DEVICES\Kern_dev_\SOFT2\MCHP\Kern_v6\Microchip\TCPIP Stack\TCP.c
                     wMSS   0x000be8       data     static E:\Users\Pal\DEVICES\Kern_dev_\SOFT2\MCHP\Kern_v6\Microchip\TCPIP Stack\TCP.c
                      ptr   0x000be9       data     static E:\Users\Pal\DEVICES\Kern_dev_\SOFT2\MCHP\Kern_v6\Kern\CustomHTTPApp.c
                        i   0x000be9       data     static E:\Users\Pal\DEVICES\Kern_dev_\SOFT2\MCHP\Kern_v6\Microchip\TCPIP Stack\SNMP.c
                       fp   0x000be9       data     static E:\Users\Pal\DEVICES\Kern_dev_\SOFT2\MCHP\Kern_v6\Microchip\TCPIP Stack\HTTP2.c
                        i   0x000bea       data     static E:\Users\Pal\DEVICES\Kern_dev_\SOFT2\MCHP\Kern_v6\Microchip\TCPIP Stack\TCP.c
                     wVal   0x000bea       data     static E:\Users\Pal\DEVICES\Kern_dev_\SOFT2\MCHP\Kern_v6\Microchip\TCPIP Stack\TCP.c
                    hMPFS   0x000bea       data     static E:\Users\Pal\DEVICES\Kern_dev_\SOFT2\MCHP\Kern_v6\Microchip\TCPIP Stack\MPFS2.c
                        c   0x000beb       data     static E:\Users\Pal\DEVICES\Kern_dev_\SOFT2\MCHP\Kern_v6\Microchip\TCPIP Stack\SNMP.c
                        i   0x000beb       data     static E:\Users\Pal\DEVICES\Kern_dev_\SOFT2\MCHP\Kern_v6\Kern\CustomHTTPApp.c
                        w   0x000bec       data     static E:\Users\Pal\DEVICES\Kern_dev_\SOFT2\MCHP\Kern_v6\Kern\CustomHTTPApp.c
                   header   0x000bec       data     static E:\Users\Pal\DEVICES\Kern_dev_\SOFT2\MCHP\Kern_v6\Microchip\TCPIP Stack\TCP.c
                        c   0x000bec       data     static E:\Users\Pal\DEVICES\Kern_dev_\SOFT2\MCHP\Kern_v6\Microchip\TCPIP Stack\SNMP.c
                 asciiStr   0x000bed       data     static E:\Users\Pal\DEVICES\Kern_dev_\SOFT2\MCHP\Kern_v6\Microchip\TCPIP Stack\SNMP.c
                        i   0x000bee       data     static E:\Users\Pal\DEVICES\Kern_dev_\SOFT2\MCHP\Kern_v6\Kern\CustomHTTPApp.c
                       dw   0x000bef       data     static E:\Users\Pal\DEVICES\Kern_dev_\SOFT2\MCHP\Kern_v6\Microchip\TCPIP Stack\Tick.c
                        k   0x000bef       data     static E:\Users\Pal\DEVICES\Kern_dev_\SOFT2\MCHP\Kern_v6\Microchip\TCPIP Stack\SNMP.c
         remHostIPAddress   0x000bf1       data     static E:\Users\Pal\DEVICES\Kern_dev_\SOFT2\MCHP\Kern_v6\Kern\CustomSNMPApp.c
                   status   0x000bf3       data     static E:\Users\Pal\DEVICES\Kern_dev_\SOFT2\MCHP\Kern_v6\Microchip\TCPIP Stack\HTTP2.c
                     wPos   0x000bf4       data     static E:\Users\Pal\DEVICES\Kern_dev_\SOFT2\MCHP\Kern_v6\Microchip\TCPIP Stack\HTTP2.c
         remHostIpAddrPtr   0x000bf5       data     static E:\Users\Pal\DEVICES\Kern_dev_\SOFT2\MCHP\Kern_v6\Kern\CustomSNMPApp.c
                   status   0x000bf6       data     static E:\Users\Pal\DEVICES\Kern_dev_\SOFT2\MCHP\Kern_v6\Microchip\TCPIP Stack\HTTP2.c
                   status   0x000bf6       data     static E:\Users\Pal\DEVICES\Kern_dev_\SOFT2\MCHP\Kern_v6\Microchip\TCPIP Stack\HTTP2.c
               remHostTmp   0x000bf7       data     static E:\Users\Pal\DEVICES\Kern_dev_\SOFT2\MCHP\Kern_v6\Kern\CustomSNMPApp.c
                      val   0x000bfb       data     static E:\Users\Pal\DEVICES\Kern_dev_\SOFT2\MCHP\Kern_v6\Kern\CustomSNMPApp.c
              errorStatus   0x000bfe       data     static E:\Users\Pal\DEVICES\Kern_dev_\SOFT2\MCHP\Kern_v6\Microchip\TCPIP Stack\SNMP.c
                  tmpMess   0x000bff       data     static E:\Users\Pal\DEVICES\Kern_dev_\SOFT2\MCHP\Kern_v6\Kern\CustomSNMPApp.c
           bytesAdded2Pdu   0x000bff       data     static E:\Users\Pal\DEVICES\Kern_dev_\SOFT2\MCHP\Kern_v6\Microchip\TCPIP Stack\SNMP.c
                  options   0x000c00       data     static E:\Users\Pal\DEVICES\Kern_dev_\SOFT2\MCHP\Kern_v6\Microchip\TCPIP Stack\TCP.c
                        i   0x000c01       data     static E:\Users\Pal\DEVICES\Kern_dev_\SOFT2\MCHP\Kern_v6\Kern\CustomSNMPApp.c
                      cnt   0x000c01       data     static E:\Users\Pal\DEVICES\Kern_dev_\SOFT2\MCHP\Kern_v6\Microchip\TCPIP Stack\SNMP.c
               prevOffset   0x000c01       data     static E:\Users\Pal\DEVICES\Kern_dev_\SOFT2\MCHP\Kern_v6\Microchip\TCPIP Stack\SNMP.c
                 varCount   0x000c01       data     static E:\Users\Pal\DEVICES\Kern_dev_\SOFT2\MCHP\Kern_v6\Microchip\TCPIP Stack\SNMP.c
                  tempLen   0x000c01       data     static E:\Users\Pal\DEVICES\Kern_dev_\SOFT2\MCHP\Kern_v6\Microchip\TCPIP Stack\SNMP.c
                     temp   0x000c01       data     static E:\Users\Pal\DEVICES\Kern_dev_\SOFT2\MCHP\Kern_v6\Microchip\TCPIP Stack\SNMP.c
                        i   0x000c01       data     static E:\Users\Pal\DEVICES\Kern_dev_\SOFT2\MCHP\Kern_v6\Kern\PAL_pUART.c
                      ref   0x000c01       data     static E:\Users\Pal\DEVICES\Kern_dev_\SOFT2\MCHP\Kern_v6\Microchip\TCPIP Stack\SNMP.c
                 savedOID   0x000c01       data     static E:\Users\Pal\DEVICES\Kern_dev_\SOFT2\MCHP\Kern_v6\Microchip\TCPIP Stack\SNMP.c
             tmpAppConfig   0x000c01       data     static E:\Users\Pal\DEVICES\Kern_dev_\SOFT2\MCHP\Kern_v6\Kern\Main.c
                        a   0x000c01       data     static E:\Users\Pal\DEVICES\Kern_dev_\SOFT2\MCHP\Kern_v6\Microchip\TCPIP Stack\SNMP.c
          prevUDPRxOffset   0x000c02       data     static E:\Users\Pal\DEVICES\Kern_dev_\SOFT2\MCHP\Kern_v6\Microchip\TCPIP Stack\SNMP.c
                        t   0x000c02       data     static E:\Users\Pal\DEVICES\Kern_dev_\SOFT2\MCHP\Kern_v6\Kern\PAL_pUART.c
                      ptr   0x000c02       data     static E:\Users\Pal\DEVICES\Kern_dev_\SOFT2\MCHP\Kern_v6\Kern\CustomSNMPApp.c
                 putBytes   0x000c02       data     static E:\Users\Pal\DEVICES\Kern_dev_\SOFT2\MCHP\Kern_v6\Microchip\TCPIP Stack\SNMP.c
         pvtObjIdentifier   0x000c02       data     static E:\Users\Pal\DEVICES\Kern_dev_\SOFT2\MCHP\Kern_v6\Microchip\TCPIP Stack\SNMP.c
             tempSavedOID   0x000c02       data     static E:\Users\Pal\DEVICES\Kern_dev_\SOFT2\MCHP\Kern_v6\Microchip\TCPIP Stack\SNMP.c
                     UOB0   0x000c03       data     static E:\Users\Pal\DEVICES\Kern_dev_\SOFT2\MCHP\Kern_v6\Kern\PAL_pUART.c
                 putBytes   0x000c03       data     static E:\Users\Pal\DEVICES\Kern_dev_\SOFT2\MCHP\Kern_v6\Microchip\TCPIP Stack\SNMP.c
                     cntr   0x000c03       data     static E:\Users\Pal\DEVICES\Kern_dev_\SOFT2\MCHP\Kern_v6\Microchip\TCPIP Stack\SNMP.c
             matchedCount   0x000c03       data     static E:\Users\Pal\DEVICES\Kern_dev_\SOFT2\MCHP\Kern_v6\Microchip\TCPIP Stack\SNMP.c
             pseudoHeader   0x000c04       data     static E:\Users\Pal\DEVICES\Kern_dev_\SOFT2\MCHP\Kern_v6\Microchip\TCPIP Stack\TCP.c
                   OIDLen   0x000c04       data     static E:\Users\Pal\DEVICES\Kern_dev_\SOFT2\MCHP\Kern_v6\Microchip\TCPIP Stack\SNMP.c
               varBindLen   0x000c04       data     static E:\Users\Pal\DEVICES\Kern_dev_\SOFT2\MCHP\Kern_v6\Microchip\TCPIP Stack\SNMP.c
                  snmpVer   0x000c04       data     static E:\Users\Pal\DEVICES\Kern_dev_\SOFT2\MCHP\Kern_v6\Microchip\TCPIP Stack\SNMP.c
                 indexRec   0x000c04       data     static E:\Users\Pal\DEVICES\Kern_dev_\SOFT2\MCHP\Kern_v6\Microchip\TCPIP Stack\SNMP.c
              sequenceCnt   0x000c05       data     static E:\Users\Pal\DEVICES\Kern_dev_\SOFT2\MCHP\Kern_v6\Microchip\TCPIP Stack\SNMP.c
              snmpReqType   0x000c05       data     static E:\Users\Pal\DEVICES\Kern_dev_\SOFT2\MCHP\Kern_v6\Microchip\TCPIP Stack\SNMP.c
        sequenceRepeatCnt   0x000c06       data     static E:\Users\Pal\DEVICES\Kern_dev_\SOFT2\MCHP\Kern_v6\Microchip\TCPIP Stack\SNMP.c
                  tempLen   0x000c06       data     static E:\Users\Pal\DEVICES\Kern_dev_\SOFT2\MCHP\Kern_v6\Microchip\TCPIP Stack\SNMP.c
               snmpPduLen   0x000c06       data     static E:\Users\Pal\DEVICES\Kern_dev_\SOFT2\MCHP\Kern_v6\Microchip\TCPIP Stack\SNMP.c
                reqOidPtr   0x000c07       data     static E:\Users\Pal\DEVICES\Kern_dev_\SOFT2\MCHP\Kern_v6\Microchip\TCPIP Stack\SNMP.c
               lbNextLeaf   0x000c07       data     static E:\Users\Pal\DEVICES\Kern_dev_\SOFT2\MCHP\Kern_v6\Microchip\TCPIP Stack\SNMP.c
                  tempLen   0x000c08       data     static E:\Users\Pal\DEVICES\Kern_dev_\SOFT2\MCHP\Kern_v6\Microchip\TCPIP Stack\SNMP.c
                    varID   0x000c08       data     static E:\Users\Pal\DEVICES\Kern_dev_\SOFT2\MCHP\Kern_v6\Microchip\TCPIP Stack\SNMP.c
    comapreOidWithSibling   0x000c09       data     static E:\Users\Pal\DEVICES\Kern_dev_\SOFT2\MCHP\Kern_v6\Microchip\TCPIP Stack\SNMP.c
                 indexRec   0x000c09       data     static E:\Users\Pal\DEVICES\Kern_dev_\SOFT2\MCHP\Kern_v6\Microchip\TCPIP Stack\SNMP.c
                 tempData   0x000c0a       data     static E:\Users\Pal\DEVICES\Kern_dev_\SOFT2\MCHP\Kern_v6\Microchip\TCPIP Stack\SNMP.c
                    hNode   0x000c0c       data     static E:\Users\Pal\DEVICES\Kern_dev_\SOFT2\MCHP\Kern_v6\Microchip\TCPIP Stack\SNMP.c
              headerBytes   0x000c0c       data     static E:\Users\Pal\DEVICES\Kern_dev_\SOFT2\MCHP\Kern_v6\Microchip\TCPIP Stack\SNMP.c
                 tempData   0x000c0d       data     static E:\Users\Pal\DEVICES\Kern_dev_\SOFT2\MCHP\Kern_v6\Microchip\TCPIP Stack\SNMP.c
                  tempLen   0x000c0e       data     static E:\Users\Pal\DEVICES\Kern_dev_\SOFT2\MCHP\Kern_v6\Microchip\TCPIP Stack\SNMP.c
              lengthBytes   0x000c10       data     static E:\Users\Pal\DEVICES\Kern_dev_\SOFT2\MCHP\Kern_v6\Microchip\TCPIP Stack\SNMP.c
                      len   0x000c10       data     static E:\Users\Pal\DEVICES\Kern_dev_\SOFT2\MCHP\Kern_v6\Microchip\TCPIP Stack\TCP.c
                tempHNode   0x000c10       data     static E:\Users\Pal\DEVICES\Kern_dev_\SOFT2\MCHP\Kern_v6\Microchip\TCPIP Stack\SNMP.c
                        v   0x000c11       data     static E:\Users\Pal\DEVICES\Kern_dev_\SOFT2\MCHP\Kern_v6\Microchip\TCPIP Stack\SNMP.c
               wActualLen   0x000c12       data     static E:\Users\Pal\DEVICES\Kern_dev_\SOFT2\MCHP\Kern_v6\Microchip\TCPIP Stack\TCP.c
                dataCount   0x000c12       data     static E:\Users\Pal\DEVICES\Kern_dev_\SOFT2\MCHP\Kern_v6\Microchip\TCPIP Stack\StackTsk.c
              tempLocalIP   0x000c14       data     static E:\Users\Pal\DEVICES\Kern_dev_\SOFT2\MCHP\Kern_v6\Microchip\TCPIP Stack\StackTsk.c
             wFreeTXSpace   0x000c14       data     static E:\Users\Pal\DEVICES\Kern_dev_\SOFT2\MCHP\Kern_v6\Microchip\TCPIP Stack\TCP.c
                wRightLen   0x000c16       data     static E:\Users\Pal\DEVICES\Kern_dev_\SOFT2\MCHP\Kern_v6\Microchip\TCPIP Stack\TCP.c
               cFrameType   0x000c18       data     static E:\Users\Pal\DEVICES\Kern_dev_\SOFT2\MCHP\Kern_v6\Microchip\TCPIP Stack\StackTsk.c
             cIPFrameType   0x000c19       data     static E:\Users\Pal\DEVICES\Kern_dev_\SOFT2\MCHP\Kern_v6\Microchip\TCPIP Stack\StackTsk.c
        bCurrentLinkState   0x000c1a       data     static E:\Users\Pal\DEVICES\Kern_dev_\SOFT2\MCHP\Kern_v6\Microchip\TCPIP Stack\StackTsk.c
                   ReadPT   0x000c1b       data     static E:\Users\Pal\DEVICES\Kern_dev_\SOFT2\MCHP\Kern_v6\Microchip\TCPIP Stack\ETH97J60.c
                 ReadSave   0x000c1b       data     static E:\Users\Pal\DEVICES\Kern_dev_\SOFT2\MCHP\Kern_v6\Microchip\TCPIP Stack\ETH97J60.c
                   ReadPT   0x000c1b       data     static E:\Users\Pal\DEVICES\Kern_dev_\SOFT2\MCHP\Kern_v6\Microchip\TCPIP Stack\ETH97J60.c
                pOIDValue   0x000c1c       data     static E:\Users\Pal\DEVICES\Kern_dev_\SOFT2\MCHP\Kern_v6\Microchip\TCPIP Stack\SNMP.c
                WriteSave   0x000c1d       data     static E:\Users\Pal\DEVICES\Kern_dev_\SOFT2\MCHP\Kern_v6\Microchip\TCPIP Stack\ETH97J60.c
                  WritePT   0x000c1d       data     static E:\Users\Pal\DEVICES\Kern_dev_\SOFT2\MCHP\Kern_v6\Microchip\TCPIP Stack\ETH97J60.c
                 OIDValue   0x000c1e       data     static E:\Users\Pal\DEVICES\Kern_dev_\SOFT2\MCHP\Kern_v6\Microchip\TCPIP Stack\SNMP.c
       UpdateWritePointer   0x000c1f       data     static E:\Users\Pal\DEVICES\Kern_dev_\SOFT2\MCHP\Kern_v6\Microchip\TCPIP Stack\ETH97J60.c
        UpdateReadPointer   0x000c20       data     static E:\Users\Pal\DEVICES\Kern_dev_\SOFT2\MCHP\Kern_v6\Microchip\TCPIP Stack\ETH97J60.c
                indexInfo   0x000c21       data     static E:\Users\Pal\DEVICES\Kern_dev_\SOFT2\MCHP\Kern_v6\Microchip\TCPIP Stack\SNMP.c
              varNodeInfo   0x000c22       data     static E:\Users\Pal\DEVICES\Kern_dev_\SOFT2\MCHP\Kern_v6\Microchip\TCPIP Stack\SNMP.c
             OIDValOffset   0x000c23       data     static E:\Users\Pal\DEVICES\Kern_dev_\SOFT2\MCHP\Kern_v6\Microchip\TCPIP Stack\SNMP.c
            varBindOffset   0x000c25       data     static E:\Users\Pal\DEVICES\Kern_dev_\SOFT2\MCHP\Kern_v6\Microchip\TCPIP Stack\SNMP.c
               prevOffset   0x000c27       data     static E:\Users\Pal\DEVICES\Kern_dev_\SOFT2\MCHP\Kern_v6\Microchip\TCPIP Stack\SNMP.c
                     temp   0x000c29       data     static E:\Users\Pal\DEVICES\Kern_dev_\SOFT2\MCHP\Kern_v6\Microchip\TCPIP Stack\SNMP.c
                   OIDLen   0x000c2d       data     static E:\Users\Pal\DEVICES\Kern_dev_\SOFT2\MCHP\Kern_v6\Microchip\TCPIP Stack\SNMP.c
                indexInfo   0x000c2e       data     static E:\Users\Pal\DEVICES\Kern_dev_\SOFT2\MCHP\Kern_v6\Microchip\TCPIP Stack\SNMP.c
              varNodeInfo   0x000c2f       data     static E:\Users\Pal\DEVICES\Kern_dev_\SOFT2\MCHP\Kern_v6\Microchip\TCPIP Stack\SNMP.c
                    varID   0x000c30       data     static E:\Users\Pal\DEVICES\Kern_dev_\SOFT2\MCHP\Kern_v6\Microchip\TCPIP Stack\SNMP.c
             OIDValOffset   0x000c31       data     static E:\Users\Pal\DEVICES\Kern_dev_\SOFT2\MCHP\Kern_v6\Microchip\TCPIP Stack\SNMP.c
               prevOffset   0x000c33       data     static E:\Users\Pal\DEVICES\Kern_dev_\SOFT2\MCHP\Kern_v6\Microchip\TCPIP Stack\SNMP.c
               lbNextLeaf   0x000c35       data     static E:\Users\Pal\DEVICES\Kern_dev_\SOFT2\MCHP\Kern_v6\Microchip\TCPIP Stack\SNMP.c
                      ref   0x000c36       data     static E:\Users\Pal\DEVICES\Kern_dev_\SOFT2\MCHP\Kern_v6\Microchip\TCPIP Stack\SNMP.c
                        i   0x000c37       data     static E:\Users\Pal\DEVICES\Kern_dev_\SOFT2\MCHP\Kern_v6\Kern\CustomSNMPApp.c
                      ref   0x000c37       data     static E:\Users\Pal\DEVICES\Kern_dev_\SOFT2\MCHP\Kern_v6\Microchip\TCPIP Stack\SNMP.c
                     temp   0x000c37       data     static E:\Users\Pal\DEVICES\Kern_dev_\SOFT2\MCHP\Kern_v6\Microchip\TCPIP Stack\SNMP.c
                     temp   0x000c38       data     static E:\Users\Pal\DEVICES\Kern_dev_\SOFT2\MCHP\Kern_v6\Microchip\TCPIP Stack\SNMP.c
                   varLen   0x000c39       data     static E:\Users\Pal\DEVICES\Kern_dev_\SOFT2\MCHP\Kern_v6\Microchip\TCPIP Stack\SNMP.c
                        j   0x000c39       data     static E:\Users\Pal\DEVICES\Kern_dev_\SOFT2\MCHP\Kern_v6\Kern\CustomSNMPApp.c
                 dataType   0x000c3a       data     static E:\Users\Pal\DEVICES\Kern_dev_\SOFT2\MCHP\Kern_v6\Microchip\TCPIP Stack\SNMP.c
                    Start   0x000c3b       data     static E:\Users\Pal\DEVICES\Kern_dev_\SOFT2\MCHP\Kern_v6\Microchip\TCPIP Stack\ETH97J60.c
                    hMPFS   0x000c3b       data     static E:\Users\Pal\DEVICES\Kern_dev_\SOFT2\MCHP\Kern_v6\Microchip\TCPIP Stack\MPFS2.c
                      len   0x000c3b       data     static E:\Users\Pal\DEVICES\Kern_dev_\SOFT2\MCHP\Kern_v6\Kern\CustomSNMPApp.c
                   oldVal   0x000c3b       data     static E:\Users\Pal\DEVICES\Kern_dev_\SOFT2\MCHP\Kern_v6\Microchip\TCPIP Stack\ETH97J60.c
                        i   0x000c3b       data     static E:\Users\Pal\DEVICES\Kern_dev_\SOFT2\MCHP\Kern_v6\Microchip\TCPIP Stack\ETH97J60.c
                   offset   0x000c3b       data     static E:\Users\Pal\DEVICES\Kern_dev_\SOFT2\MCHP\Kern_v6\Microchip\TCPIP Stack\SNMP.c
                  hTarget   0x000c3b       data     static E:\Users\Pal\DEVICES\Kern_dev_\SOFT2\MCHP\Kern_v6\Microchip\TCPIP Stack\SNMP.c
                   header   0x000c3b       data     static E:\Users\Pal\DEVICES\Kern_dev_\SOFT2\MCHP\Kern_v6\Microchip\TCPIP Stack\IP.c
                 nameHash   0x000c3c       data     static E:\Users\Pal\DEVICES\Kern_dev_\SOFT2\MCHP\Kern_v6\Microchip\TCPIP Stack\MPFS2.c
               prevOffset   0x000c3d       data     static E:\Users\Pal\DEVICES\Kern_dev_\SOFT2\MCHP\Kern_v6\Microchip\TCPIP Stack\SNMP.c
                     flag   0x000c3d       data     static E:\Users\Pal\DEVICES\Kern_dev_\SOFT2\MCHP\Kern_v6\Kern\CustomSNMPApp.c
                 Checksum   0x000c3d       data     static E:\Users\Pal\DEVICES\Kern_dev_\SOFT2\MCHP\Kern_v6\Microchip\TCPIP Stack\ETH97J60.c
                     size   0x000c3e       data     static E:\Users\Pal\DEVICES\Kern_dev_\SOFT2\MCHP\Kern_v6\Kern\CustomSNMPApp.c
                        i   0x000c3e       data     static E:\Users\Pal\DEVICES\Kern_dev_\SOFT2\MCHP\Kern_v6\Microchip\TCPIP Stack\MPFS2.c
                 hCurrent   0x000c3f       data     static E:\Users\Pal\DEVICES\Kern_dev_\SOFT2\MCHP\Kern_v6\Microchip\TCPIP Stack\SNMP.c
                        v   0x000c3f       data     static E:\Users\Pal\DEVICES\Kern_dev_\SOFT2\MCHP\Kern_v6\Microchip\TCPIP Stack\SNMP.c
                hashCache   0x000c40       data     static E:\Users\Pal\DEVICES\Kern_dev_\SOFT2\MCHP\Kern_v6\Microchip\TCPIP Stack\MPFS2.c
                 ChunkLen   0x000c41       data     static E:\Users\Pal\DEVICES\Kern_dev_\SOFT2\MCHP\Kern_v6\Microchip\TCPIP Stack\ETH97J60.c
             dataTypeInfo   0x000c43       data     static E:\Users\Pal\DEVICES\Kern_dev_\SOFT2\MCHP\Kern_v6\Microchip\TCPIP Stack\SNMP.c
                    hNext   0x000c43       data     static E:\Users\Pal\DEVICES\Kern_dev_\SOFT2\MCHP\Kern_v6\Microchip\TCPIP Stack\SNMP.c
               DataBuffer   0x000c43       data     static E:\Users\Pal\DEVICES\Kern_dev_\SOFT2\MCHP\Kern_v6\Microchip\TCPIP Stack\ETH97J60.c
                        c   0x000c45       data     static E:\Users\Pal\DEVICES\Kern_dev_\SOFT2\MCHP\Kern_v6\Microchip\TCPIP Stack\SNMP.c
                    myRef   0x000c46       data     static E:\Users\Pal\DEVICES\Kern_dev_\SOFT2\MCHP\Kern_v6\Kern\CustomSNMPApp.c
                   oldVal   0x000c46       data     static E:\Users\Pal\DEVICES\Kern_dev_\SOFT2\MCHP\Kern_v6\Microchip\TCPIP Stack\ETH97J60.c
               currentMIB   0x000c47       data     static E:\Users\Pal\DEVICES\Kern_dev_\SOFT2\MCHP\Kern_v6\Microchip\TCPIP Stack\SNMP.c
                        t   0x000c4f       data     static E:\Users\Pal\DEVICES\Kern_dev_\SOFT2\MCHP\Kern_v6\Microchip\TCPIP Stack\Helpers.c
                      ptr   0x000c50       data     static E:\Users\Pal\DEVICES\Kern_dev_\SOFT2\MCHP\Kern_v6\Microchip\TCPIP Stack\MPFS2.c
                        b   0x000c51       data     static E:\Users\Pal\DEVICES\Kern_dev_\SOFT2\MCHP\Kern_v6\Microchip\TCPIP Stack\Helpers.c
                        c   0x000c53       data     static E:\Users\Pal\DEVICES\Kern_dev_\SOFT2\MCHP\Kern_v6\Microchip\TCPIP Stack\MPFS2.c
                  DataPtr   0x000c57       data     static E:\Users\Pal\DEVICES\Kern_dev_\SOFT2\MCHP\Kern_v6\Microchip\TCPIP Stack\ETH97J60.c
                        h   0x000c59       data     static E:\Users\Pal\DEVICES\Kern_dev_\SOFT2\MCHP\Kern_v6\Microchip\TCPIP Stack\UDP.c
                     lenA   0x000c5a       data     static E:\Users\Pal\DEVICES\Kern_dev_\SOFT2\MCHP\Kern_v6\Microchip\TCPIP Stack\HTTP2.c
             newAppConfig   0x000c5a       data     static E:\Users\Pal\DEVICES\Kern_dev_\SOFT2\MCHP\Kern_v6\Kern\CustomSNMPApp.c
                     lenB   0x000c5c       data     static E:\Users\Pal\DEVICES\Kern_dev_\SOFT2\MCHP\Kern_v6\Microchip\TCPIP Stack\HTTP2.c
                        c   0x000c5e       data     static E:\Users\Pal\DEVICES\Kern_dev_\SOFT2\MCHP\Kern_v6\Microchip\TCPIP Stack\HTTP2.c
                        i   0x000c5f       data     static E:\Users\Pal\DEVICES\Kern_dev_\SOFT2\MCHP\Kern_v6\Microchip\TCPIP Stack\HTTP2.c
                    index   0x000c5f       data     static E:\Users\Pal\DEVICES\Kern_dev_\SOFT2\MCHP\Kern_v6\Microchip\TCPIP Stack\SNMP.c
                   isDone   0x000c60       data     static E:\Users\Pal\DEVICES\Kern_dev_\SOFT2\MCHP\Kern_v6\Microchip\TCPIP Stack\HTTP2.c
                    state   0x000c60       data     static E:\Users\Pal\DEVICES\Kern_dev_\SOFT2\MCHP\Kern_v6\Microchip\TCPIP Stack\SNMP.c
                 hCurrent   0x000c61       data     static E:\Users\Pal\DEVICES\Kern_dev_\SOFT2\MCHP\Kern_v6\Microchip\TCPIP Stack\SNMP.c
                      ext   0x000c61       data     static E:\Users\Pal\DEVICES\Kern_dev_\SOFT2\MCHP\Kern_v6\Microchip\TCPIP Stack\HTTP2.c
                        p   0x000c61       data     static E:\Users\Pal\DEVICES\Kern_dev_\SOFT2\MCHP\Kern_v6\Microchip\TCPIP Stack\UDP.c
               wUDPLength   0x000c63       data     static E:\Users\Pal\DEVICES\Kern_dev_\SOFT2\MCHP\Kern_v6\Microchip\TCPIP Stack\UDP.c
                   buffer   0x000c63       data     static E:\Users\Pal\DEVICES\Kern_dev_\SOFT2\MCHP\Kern_v6\Microchip\TCPIP Stack\HTTP2.c
                     temp   0x000c65       data     static E:\Users\Pal\DEVICES\Kern_dev_\SOFT2\MCHP\Kern_v6\Microchip\TCPIP Stack\MPFS2.c
             pseudoHeader   0x000c65       data     static E:\Users\Pal\DEVICES\Kern_dev_\SOFT2\MCHP\Kern_v6\Microchip\TCPIP Stack\UDP.c
                 nodeInfo   0x000c69       data     static E:\Users\Pal\DEVICES\Kern_dev_\SOFT2\MCHP\Kern_v6\Microchip\TCPIP Stack\SNMP.c
                  tempVal   0x000c6a       data     static E:\Users\Pal\DEVICES\Kern_dev_\SOFT2\MCHP\Kern_v6\Microchip\TCPIP Stack\SNMP.c
             wReadPtrSave   0x000c71       data     static E:\Users\Pal\DEVICES\Kern_dev_\SOFT2\MCHP\Kern_v6\Microchip\TCPIP Stack\UDP.c
                wChecksum   0x000c73       data     static E:\Users\Pal\DEVICES\Kern_dev_\SOFT2\MCHP\Kern_v6\Microchip\TCPIP Stack\UDP.c
       dwHITECHWorkaround   0x000c73       data     static E:\Users\Pal\DEVICES\Kern_dev_\SOFT2\MCHP\Kern_v6\Microchip\TCPIP Stack\MPFS2.c
       dwHITECHWorkaround   0x000c73       data     static E:\Users\Pal\DEVICES\Kern_dev_\SOFT2\MCHP\Kern_v6\Microchip\TCPIP Stack\MPFS2.c
                        w   0x000c75       data     static E:\Users\Pal\DEVICES\Kern_dev_\SOFT2\MCHP\Kern_v6\Microchip\TCPIP Stack\ETH97J60.c
                        i   0x000c77       data     static E:\Users\Pal\DEVICES\Kern_dev_\SOFT2\MCHP\Kern_v6\Microchip\TCPIP Stack\ETH97J60.c
                     conn   0x000c78       data     static E:\Users\Pal\DEVICES\Kern_dev_\SOFT2\MCHP\Kern_v6\Microchip\TCPIP Stack\HTTP2.c
                community   0x000cb3       data     static E:\Users\Pal\DEVICES\Kern_dev_\SOFT2\MCHP\Kern_v6\Microchip\TCPIP Stack\SNMP.c
             communityLen   0x000cc3       data     static E:\Users\Pal\DEVICES\Kern_dev_\SOFT2\MCHP\Kern_v6\Microchip\TCPIP Stack\SNMP.c
                pduInfoDB   0x000cc4       data     static E:\Users\Pal\DEVICES\Kern_dev_\SOFT2\MCHP\Kern_v6\Microchip\TCPIP Stack\SNMP.c
                 lbReturn   0x000cd0       data     static E:\Users\Pal\DEVICES\Kern_dev_\SOFT2\MCHP\Kern_v6\Microchip\TCPIP Stack\SNMP.c
                      ref   0x000cd1       data     static E:\Users\Pal\DEVICES\Kern_dev_\SOFT2\MCHP\Kern_v6\Microchip\TCPIP Stack\SNMP.c
                     temp   0x000cd2       data     static E:\Users\Pal\DEVICES\Kern_dev_\SOFT2\MCHP\Kern_v6\Microchip\TCPIP Stack\SNMP.c
                 dataType   0x000cd3       data     static E:\Users\Pal\DEVICES\Kern_dev_\SOFT2\MCHP\Kern_v6\Microchip\TCPIP Stack\SNMP.c
                  dataLen   0x000cd4       data     static E:\Users\Pal\DEVICES\Kern_dev_\SOFT2\MCHP\Kern_v6\Microchip\TCPIP Stack\SNMP.c
              copiedBytes   0x000cd5       data     static E:\Users\Pal\DEVICES\Kern_dev_\SOFT2\MCHP\Kern_v6\Microchip\TCPIP Stack\SNMP.c
                errorCode   0x000cd6       data     static E:\Users\Pal\DEVICES\Kern_dev_\SOFT2\MCHP\Kern_v6\Microchip\TCPIP Stack\SNMP.c
       actualDataTypeInfo   0x000cd7       data     static E:\Users\Pal\DEVICES\Kern_dev_\SOFT2\MCHP\Kern_v6\Microchip\TCPIP Stack\SNMP.c
                dataValue   0x000cd9       data     static E:\Users\Pal\DEVICES\Kern_dev_\SOFT2\MCHP\Kern_v6\Microchip\TCPIP Stack\SNMP.c
                        t   0x000cdd       data     static E:\Users\Pal\DEVICES\Kern_dev_\SOFT2\MCHP\Kern_v6\Kern\Main.c
                        i   0x000cdd       data     static E:\Users\Pal\DEVICES\Kern_dev_\SOFT2\MCHP\Kern_v6\Microchip\TCPIP Stack\Helpers.c
                      val   0x000cdf       data     static E:\Users\Pal\DEVICES\Kern_dev_\SOFT2\MCHP\Kern_v6\Microchip\TCPIP Stack\Helpers.c
                      sum   0x000ce1       data     static E:\Users\Pal\DEVICES\Kern_dev_\SOFT2\MCHP\Kern_v6\Microchip\TCPIP Stack\Helpers.c
                        j   0x000ce1       data     static E:\Users\Pal\DEVICES\Kern_dev_\SOFT2\MCHP\Kern_v6\Kern\Main.c
                        i   0x000ce2       data     static E:\Users\Pal\DEVICES\Kern_dev_\SOFT2\MCHP\Kern_v6\Kern\ParamsTable.c
                        i   0x000ce2       data     static E:\Users\Pal\DEVICES\Kern_dev_\SOFT2\MCHP\Kern_v6\Kern\I2cEEPROM.c
                 testcell   0x000ce3       data     static E:\Users\Pal\DEVICES\Kern_dev_\SOFT2\MCHP\Kern_v6\Kern\ParamsTable.c
                     Byte   0x000ce4       data     static E:\Users\Pal\DEVICES\Kern_dev_\SOFT2\MCHP\Kern_v6\Kern\I2cEEPROM.c
                      crc   0x000ce5       data     static E:\Users\Pal\DEVICES\Kern_dev_\SOFT2\MCHP\Kern_v6\Kern\ParamsTable.c
                        i   0x000ce7       data     static E:\Users\Pal\DEVICES\Kern_dev_\SOFT2\MCHP\Kern_v6\Kern\ParamsTable.c
                 testcell   0x000ce9       data     static E:\Users\Pal\DEVICES\Kern_dev_\SOFT2\MCHP\Kern_v6\Kern\ParamsTable.c
                        t   0x000cea       data     static E:\Users\Pal\DEVICES\Kern_dev_\SOFT2\MCHP\Kern_v6\Kern\I2cEEPROM.c
                 pin_temp   0x000cee       data     static E:\Users\Pal\DEVICES\Kern_dev_\SOFT2\MCHP\Kern_v6\Kern\Main.c
                        i   0x000cef       data     static E:\Users\Pal\DEVICES\Kern_dev_\SOFT2\MCHP\Kern_v6\Kern\I2cEEPROM.c
            gSendTrapFlag   0x000e00       data     extern E:\Users\Pal\DEVICES\Kern_dev_\SOFT2\MCHP\Kern_v6\Kern\CustomSNMPApp.c
gOIDCorrespondingSnmpMibID   0x000e01       data     extern E:\Users\Pal\DEVICES\Kern_dev_\SOFT2\MCHP\Kern_v6\Kern\CustomSNMPApp.c
 gGenericTrapNotification   0x000e02       data     extern E:\Users\Pal\DEVICES\Kern_dev_\SOFT2\MCHP\Kern_v6\Kern\CustomSNMPApp.c
gSpecificTrapNotification   0x000e03       data     extern E:\Users\Pal\DEVICES\Kern_dev_\SOFT2\MCHP\Kern_v6\Kern\CustomSNMPApp.c
         gSetTrapSendFlag   0x000e04       data     extern E:\Users\Pal\DEVICES\Kern_dev_\SOFT2\MCHP\Kern_v6\Kern\CustomSNMPApp.c
                 trapInfo   0x000e05       data     extern E:\Users\Pal\DEVICES\Kern_dev_\SOFT2\MCHP\Kern_v6\Kern\CustomSNMPApp.c
                TXHeadPtr   0x000e74       data     static E:\Users\Pal\DEVICES\Kern_dev_\SOFT2\MCHP\Kern_v6\Kern\CustomSNMPApp.c
                TXTailPtr   0x000e75       data     static E:\Users\Pal\DEVICES\Kern_dev_\SOFT2\MCHP\Kern_v6\Kern\CustomSNMPApp.c
SNMPNeedRefreshNetworkSett   0x000e76       data     extern E:\Users\Pal\DEVICES\Kern_dev_\SOFT2\MCHP\Kern_v6\Kern\CustomSNMPApp.c
                 timeLock   0x000e77       data     static E:\Users\Pal\DEVICES\Kern_dev_\SOFT2\MCHP\Kern_v6\Kern\CustomSNMPApp.c
                    retry   0x000e78       data     static E:\Users\Pal\DEVICES\Kern_dev_\SOFT2\MCHP\Kern_v6\Kern\CustomSNMPApp.c
                  smState   0x000e79       data     static E:\Users\Pal\DEVICES\Kern_dev_\SOFT2\MCHP\Kern_v6\Kern\CustomSNMPApp.c
      ArrayStartIndexFlag   0x000e7a       data     static E:\Users\Pal\DEVICES\Kern_dev_\SOFT2\MCHP\Kern_v6\Kern\CustomSNMPApp.c
                 MySocket   0x000e7b       data     static E:\Users\Pal\DEVICES\Kern_dev_\SOFT2\MCHP\Kern_v6\Microchip\TCPIP Stack\NBNS.c
          __NBNSPutName:0   0x000e7c       data     static E:\Users\Pal\DEVICES\Kern_dev_\SOFT2\MCHP\Kern_v6\Microchip\TCPIP Stack\NBNS.c
                   String   0x000e7c       data     static E:\Users\Pal\DEVICES\Kern_dev_\SOFT2\MCHP\Kern_v6\Microchip\TCPIP Stack\NBNS.c
          __NBNSGetName:0   0x000e7e       data     static E:\Users\Pal\DEVICES\Kern_dev_\SOFT2\MCHP\Kern_v6\Microchip\TCPIP Stack\NBNS.c
                   String   0x000e7e       data     static E:\Users\Pal\DEVICES\Kern_dev_\SOFT2\MCHP\Kern_v6\Microchip\TCPIP Stack\NBNS.c
                   MAADR5   0x000e80       data     extern C:\MCC18\src\traditional\proc\p18F67J60.asm
                   MAADR6   0x000e81       data     extern C:\MCC18\src\traditional\proc\p18F67J60.asm
                   MAADR3   0x000e82       data     extern C:\MCC18\src\traditional\proc\p18F67J60.asm
                   MAADR4   0x000e83       data     extern C:\MCC18\src\traditional\proc\p18F67J60.asm
                   MAADR1   0x000e84       data     extern C:\MCC18\src\traditional\proc\p18F67J60.asm
                   MAADR2   0x000e85       data     extern C:\MCC18\src\traditional\proc\p18F67J60.asm
                   MISTAT   0x000e8a       data     extern C:\MCC18\src\traditional\proc\p18F67J60.asm
               MISTATbits   0x000e8a       data     extern C:\MCC18\src\traditional\proc\p18F67J60.asm
              EFLOCONbits   0x000e97       data     extern C:\MCC18\src\traditional\proc\p18F67J60.asm
                  EFLOCON   0x000e97       data     extern C:\MCC18\src\traditional\proc\p18F67J60.asm
                    EPAUS   0x000e98       data     extern C:\MCC18\src\traditional\proc\p18F67J60.asm
                   EPAUSL   0x000e98       data     extern C:\MCC18\src\traditional\proc\p18F67J60.asm
                   EPAUSH   0x000e99       data     extern C:\MCC18\src\traditional\proc\p18F67J60.asm
                   MACON1   0x000ea0       data     extern C:\MCC18\src\traditional\proc\p18F67J60.asm
               MACON1bits   0x000ea0       data     extern C:\MCC18\src\traditional\proc\p18F67J60.asm
               MACON3bits   0x000ea2       data     extern C:\MCC18\src\traditional\proc\p18F67J60.asm
                   MACON3   0x000ea2       data     extern C:\MCC18\src\traditional\proc\p18F67J60.asm
                   MACON4   0x000ea3       data     extern C:\MCC18\src\traditional\proc\p18F67J60.asm
               MACON4bits   0x000ea3       data     extern C:\MCC18\src\traditional\proc\p18F67J60.asm
                  MABBIPG   0x000ea4       data     extern C:\MCC18\src\traditional\proc\p18F67J60.asm
              MABBIPGbits   0x000ea4       data     extern C:\MCC18\src\traditional\proc\p18F67J60.asm
                    MAIPG   0x000ea6       data     extern C:\MCC18\src\traditional\proc\p18F67J60.asm
                   MAIPGL   0x000ea6       data     extern C:\MCC18\src\traditional\proc\p18F67J60.asm
                   MAIPGH   0x000ea7       data     extern C:\MCC18\src\traditional\proc\p18F67J60.asm
                   MAMXFL   0x000eaa       data     extern C:\MCC18\src\traditional\proc\p18F67J60.asm
                  MAMXFLL   0x000eaa       data     extern C:\MCC18\src\traditional\proc\p18F67J60.asm
                  MAMXFLH   0x000eab       data     extern C:\MCC18\src\traditional\proc\p18F67J60.asm
                    MICMD   0x000eb2       data     extern C:\MCC18\src\traditional\proc\p18F67J60.asm
                MICMDbits   0x000eb2       data     extern C:\MCC18\src\traditional\proc\p18F67J60.asm
                 MIREGADR   0x000eb4       data     extern C:\MCC18\src\traditional\proc\p18F67J60.asm
                    MIWRL   0x000eb6       data     extern C:\MCC18\src\traditional\proc\p18F67J60.asm
                     MIWR   0x000eb6       data     extern C:\MCC18\src\traditional\proc\p18F67J60.asm
                    MIWRH   0x000eb7       data     extern C:\MCC18\src\traditional\proc\p18F67J60.asm
                    MIRDL   0x000eb8       data     extern C:\MCC18\src\traditional\proc\p18F67J60.asm
                     MIRD   0x000eb8       data     extern C:\MCC18\src\traditional\proc\p18F67J60.asm
                    MIRDH   0x000eb9       data     extern C:\MCC18\src\traditional\proc\p18F67J60.asm
                     EHT0   0x000ec0       data     extern C:\MCC18\src\traditional\proc\p18F67J60.asm
                     EHT1   0x000ec1       data     extern C:\MCC18\src\traditional\proc\p18F67J60.asm
                     EHT2   0x000ec2       data     extern C:\MCC18\src\traditional\proc\p18F67J60.asm
                     EHT3   0x000ec3       data     extern C:\MCC18\src\traditional\proc\p18F67J60.asm
                     EHT4   0x000ec4       data     extern C:\MCC18\src\traditional\proc\p18F67J60.asm
                     EHT5   0x000ec5       data     extern C:\MCC18\src\traditional\proc\p18F67J60.asm
                     EHT6   0x000ec6       data     extern C:\MCC18\src\traditional\proc\p18F67J60.asm
                     EHT7   0x000ec7       data     extern C:\MCC18\src\traditional\proc\p18F67J60.asm
                    EPMM0   0x000ec8       data     extern C:\MCC18\src\traditional\proc\p18F67J60.asm
                    EPMM1   0x000ec9       data     extern C:\MCC18\src\traditional\proc\p18F67J60.asm
                    EPMM2   0x000eca       data     extern C:\MCC18\src\traditional\proc\p18F67J60.asm
                    EPMM3   0x000ecb       data     extern C:\MCC18\src\traditional\proc\p18F67J60.asm
                    EPMM4   0x000ecc       data     extern C:\MCC18\src\traditional\proc\p18F67J60.asm
                    EPMM5   0x000ecd       data     extern C:\MCC18\src\traditional\proc\p18F67J60.asm
                    EPMM6   0x000ece       data     extern C:\MCC18\src\traditional\proc\p18F67J60.asm
                    EPMM7   0x000ecf       data     extern C:\MCC18\src\traditional\proc\p18F67J60.asm
                    EPMCS   0x000ed0       data     extern C:\MCC18\src\traditional\proc\p18F67J60.asm
                   EPMCSL   0x000ed0       data     extern C:\MCC18\src\traditional\proc\p18F67J60.asm
                   EPMCSH   0x000ed1       data     extern C:\MCC18\src\traditional\proc\p18F67J60.asm
                    EPMOL   0x000ed4       data     extern C:\MCC18\src\traditional\proc\p18F67J60.asm
                     EPMO   0x000ed4       data     extern C:\MCC18\src\traditional\proc\p18F67J60.asm
                    EPMOH   0x000ed5       data     extern C:\MCC18\src\traditional\proc\p18F67J60.asm
                  ERXFCON   0x000ed8       data     extern C:\MCC18\src\traditional\proc\p18F67J60.asm
              ERXFCONbits   0x000ed8       data     extern C:\MCC18\src\traditional\proc\p18F67J60.asm
                  EPKTCNT   0x000ed9       data     extern C:\MCC18\src\traditional\proc\p18F67J60.asm
                    EWRPT   0x000ee2       data     extern C:\MCC18\src\traditional\proc\p18F67J60.asm
                   EWRPTL   0x000ee2       data     extern C:\MCC18\src\traditional\proc\p18F67J60.asm
                   EWRPTH   0x000ee3       data     extern C:\MCC18\src\traditional\proc\p18F67J60.asm
                    ETXST   0x000ee4       data     extern C:\MCC18\src\traditional\proc\p18F67J60.asm
                   ETXSTL   0x000ee4       data     extern C:\MCC18\src\traditional\proc\p18F67J60.asm
                   ETXSTH   0x000ee5       data     extern C:\MCC18\src\traditional\proc\p18F67J60.asm
                    ETXND   0x000ee6       data     extern C:\MCC18\src\traditional\proc\p18F67J60.asm
                   ETXNDL   0x000ee6       data     extern C:\MCC18\src\traditional\proc\p18F67J60.asm
                   ETXNDH   0x000ee7       data     extern C:\MCC18\src\traditional\proc\p18F67J60.asm
                    ERXST   0x000ee8       data     extern C:\MCC18\src\traditional\proc\p18F67J60.asm
                   ERXSTL   0x000ee8       data     extern C:\MCC18\src\traditional\proc\p18F67J60.asm
                   ERXSTH   0x000ee9       data     extern C:\MCC18\src\traditional\proc\p18F67J60.asm
                    ERXND   0x000eea       data     extern C:\MCC18\src\traditional\proc\p18F67J60.asm
                   ERXNDL   0x000eea       data     extern C:\MCC18\src\traditional\proc\p18F67J60.asm
                   ERXNDH   0x000eeb       data     extern C:\MCC18\src\traditional\proc\p18F67J60.asm
                  ERXRDPT   0x000eec       data     extern C:\MCC18\src\traditional\proc\p18F67J60.asm
                 ERXRDPTL   0x000eec       data     extern C:\MCC18\src\traditional\proc\p18F67J60.asm
                 ERXRDPTH   0x000eed       data     extern C:\MCC18\src\traditional\proc\p18F67J60.asm
                  ERXWRPT   0x000eee       data     extern C:\MCC18\src\traditional\proc\p18F67J60.asm
                 ERXWRPTL   0x000eee       data     extern C:\MCC18\src\traditional\proc\p18F67J60.asm
                 ERXWRPTH   0x000eef       data     extern C:\MCC18\src\traditional\proc\p18F67J60.asm
                   EDMAST   0x000ef0       data     extern C:\MCC18\src\traditional\proc\p18F67J60.asm
                  EDMASTL   0x000ef0       data     extern C:\MCC18\src\traditional\proc\p18F67J60.asm
                  EDMASTH   0x000ef1       data     extern C:\MCC18\src\traditional\proc\p18F67J60.asm
                  EDMANDL   0x000ef2       data     extern C:\MCC18\src\traditional\proc\p18F67J60.asm
                   EDMAND   0x000ef2       data     extern C:\MCC18\src\traditional\proc\p18F67J60.asm
                  EDMANDH   0x000ef3       data     extern C:\MCC18\src\traditional\proc\p18F67J60.asm
                 EDMADSTL   0x000ef4       data     extern C:\MCC18\src\traditional\proc\p18F67J60.asm
                  EDMADST   0x000ef4       data     extern C:\MCC18\src\traditional\proc\p18F67J60.asm
                 EDMADSTH   0x000ef5       data     extern C:\MCC18\src\traditional\proc\p18F67J60.asm
                  EDMACSL   0x000ef6       data     extern C:\MCC18\src\traditional\proc\p18F67J60.asm
                   EDMACS   0x000ef6       data     extern C:\MCC18\src\traditional\proc\p18F67J60.asm
                  EDMACSH   0x000ef7       data     extern C:\MCC18\src\traditional\proc\p18F67J60.asm
                  EIEbits   0x000efb       data     extern C:\MCC18\src\traditional\proc\p18F67J60.asm
                      EIE   0x000efb       data     extern C:\MCC18\src\traditional\proc\p18F67J60.asm
                    ESTAT   0x000efd       data     extern C:\MCC18\src\traditional\proc\p18F67J60.asm
                ESTATbits   0x000efd       data     extern C:\MCC18\src\traditional\proc\p18F67J60.asm
                    ECON2   0x000efe       data     extern C:\MCC18\src\traditional\proc\p18F67J60.asm
                ECON2bits   0x000efe       data     extern C:\MCC18\src\traditional\proc\p18F67J60.asm
      ArrayDeviceLocation   0x000f00       data     extern E:\Users\Pal\DEVICES\Kern_dev_\SOFT2\MCHP\Kern_v6\Kern\DeviceData.c
        ArraySpecTrapMess   0x000f20       data     extern E:\Users\Pal\DEVICES\Kern_dev_\SOFT2\MCHP\Kern_v6\Kern\DeviceData.c
             ArrayCommand   0x000f40       data     extern E:\Users\Pal\DEVICES\Kern_dev_\SOFT2\MCHP\Kern_v6\Kern\DeviceData.c
                  EIRbits   0x000f60       data     extern C:\MCC18\src\traditional\proc\p18F67J60.asm
                      EIR   0x000f60       data     extern C:\MCC18\src\traditional\proc\p18F67J60.asm
                    EDATA   0x000f61       data     extern C:\MCC18\src\traditional\proc\p18F67J60.asm
                EDATAbits   0x000f61       data     extern C:\MCC18\src\traditional\proc\p18F67J60.asm
             ECCP2DELbits   0x000f67       data     extern C:\MCC18\src\traditional\proc\p18F67J60.asm
                 ECCP2DEL   0x000f67       data     extern C:\MCC18\src\traditional\proc\p18F67J60.asm
              ECCP2ASbits   0x000f68       data     extern C:\MCC18\src\traditional\proc\p18F67J60.asm
                  ECCP2AS   0x000f68       data     extern C:\MCC18\src\traditional\proc\p18F67J60.asm
             ECCP3DELbits   0x000f69       data     extern C:\MCC18\src\traditional\proc\p18F67J60.asm
                 ECCP3DEL   0x000f69       data     extern C:\MCC18\src\traditional\proc\p18F67J60.asm
              ECCP3ASbits   0x000f6a       data     extern C:\MCC18\src\traditional\proc\p18F67J60.asm
                  ECCP3AS   0x000f6a       data     extern C:\MCC18\src\traditional\proc\p18F67J60.asm
                  CCP5CON   0x000f70       data     extern C:\MCC18\src\traditional\proc\p18F67J60.asm
              CCP5CONbits   0x000f70       data     extern C:\MCC18\src\traditional\proc\p18F67J60.asm
                    CCPR5   0x000f71       data     extern C:\MCC18\src\traditional\proc\p18F67J60.asm
                   CCPR5L   0x000f71       data     extern C:\MCC18\src\traditional\proc\p18F67J60.asm
                   CCPR5H   0x000f72       data     extern C:\MCC18\src\traditional\proc\p18F67J60.asm
                  CCP4CON   0x000f73       data     extern C:\MCC18\src\traditional\proc\p18F67J60.asm
              CCP4CONbits   0x000f73       data     extern C:\MCC18\src\traditional\proc\p18F67J60.asm
                   CCPR4L   0x000f74       data     extern C:\MCC18\src\traditional\proc\p18F67J60.asm
                    CCPR4   0x000f74       data     extern C:\MCC18\src\traditional\proc\p18F67J60.asm
                   CCPR4H   0x000f75       data     extern C:\MCC18\src\traditional\proc\p18F67J60.asm
                    T4CON   0x000f76       data     extern C:\MCC18\src\traditional\proc\p18F67J60.asm
                T4CONbits   0x000f76       data     extern C:\MCC18\src\traditional\proc\p18F67J60.asm
                      PR4   0x000f77       data     extern C:\MCC18\src\traditional\proc\p18F67J60.asm
                     TMR4   0x000f78       data     extern C:\MCC18\src\traditional\proc\p18F67J60.asm
             ECCP1DELbits   0x000f79       data     extern C:\MCC18\src\traditional\proc\p18F67J60.asm
                 ECCP1DEL   0x000f79       data     extern C:\MCC18\src\traditional\proc\p18F67J60.asm
                   ERDPTL   0x000f7a       data     extern C:\MCC18\src\traditional\proc\p18F67J60.asm
                    ERDPT   0x000f7a       data     extern C:\MCC18\src\traditional\proc\p18F67J60.asm
                   ERDPTH   0x000f7b       data     extern C:\MCC18\src\traditional\proc\p18F67J60.asm
              BAUDCTLbits   0x000f7e       data     extern C:\MCC18\src\traditional\proc\p18F67J60.asm
             BAUDCTL1bits   0x000f7e       data     extern C:\MCC18\src\traditional\proc\p18F67J60.asm
                 BAUDCTL1   0x000f7e       data     extern C:\MCC18\src\traditional\proc\p18F67J60.asm
                  BAUDCTL   0x000f7e       data     extern C:\MCC18\src\traditional\proc\p18F67J60.asm
              BAUDCONbits   0x000f7e       data     extern C:\MCC18\src\traditional\proc\p18F67J60.asm
             BAUDCON1bits   0x000f7e       data     extern C:\MCC18\src\traditional\proc\p18F67J60.asm
                 BAUDCON1   0x000f7e       data     extern C:\MCC18\src\traditional\proc\p18F67J60.asm
                  BAUDCON   0x000f7e       data     extern C:\MCC18\src\traditional\proc\p18F67J60.asm
                  SPBRGH1   0x000f7f       data     extern C:\MCC18\src\traditional\proc\p18F67J60.asm
                   SPBRGH   0x000f7f       data     extern C:\MCC18\src\traditional\proc\p18F67J60.asm
                PORTAbits   0x000f80       data     extern C:\MCC18\src\traditional\proc\p18F67J60.asm
                    PORTA   0x000f80       data     extern C:\MCC18\src\traditional\proc\p18F67J60.asm
                PORTBbits   0x000f81       data     extern C:\MCC18\src\traditional\proc\p18F67J60.asm
                    PORTB   0x000f81       data     extern C:\MCC18\src\traditional\proc\p18F67J60.asm
                PORTCbits   0x000f82       data     extern C:\MCC18\src\traditional\proc\p18F67J60.asm
                    PORTC   0x000f82       data     extern C:\MCC18\src\traditional\proc\p18F67J60.asm
                PORTDbits   0x000f83       data     extern C:\MCC18\src\traditional\proc\p18F67J60.asm
                    PORTD   0x000f83       data     extern C:\MCC18\src\traditional\proc\p18F67J60.asm
                    PORTE   0x000f84       data     extern C:\MCC18\src\traditional\proc\p18F67J60.asm
                PORTEbits   0x000f84       data     extern C:\MCC18\src\traditional\proc\p18F67J60.asm
                    PORTF   0x000f85       data     extern C:\MCC18\src\traditional\proc\p18F67J60.asm
                PORTFbits   0x000f85       data     extern C:\MCC18\src\traditional\proc\p18F67J60.asm
                    PORTG   0x000f86       data     extern C:\MCC18\src\traditional\proc\p18F67J60.asm
                PORTGbits   0x000f86       data     extern C:\MCC18\src\traditional\proc\p18F67J60.asm
                     LATA   0x000f89       data     extern C:\MCC18\src\traditional\proc\p18F67J60.asm
                 LATAbits   0x000f89       data     extern C:\MCC18\src\traditional\proc\p18F67J60.asm
                 LATBbits   0x000f8a       data     extern C:\MCC18\src\traditional\proc\p18F67J60.asm
                     LATB   0x000f8a       data     extern C:\MCC18\src\traditional\proc\p18F67J60.asm
                 LATCbits   0x000f8b       data     extern C:\MCC18\src\traditional\proc\p18F67J60.asm
                     LATC   0x000f8b       data     extern C:\MCC18\src\traditional\proc\p18F67J60.asm
                 LATDbits   0x000f8c       data     extern C:\MCC18\src\traditional\proc\p18F67J60.asm
                     LATD   0x000f8c       data     extern C:\MCC18\src\traditional\proc\p18F67J60.asm
                     LATE   0x000f8d       data     extern C:\MCC18\src\traditional\proc\p18F67J60.asm
                 LATEbits   0x000f8d       data     extern C:\MCC18\src\traditional\proc\p18F67J60.asm
                     LATF   0x000f8e       data     extern C:\MCC18\src\traditional\proc\p18F67J60.asm
                 LATFbits   0x000f8e       data     extern C:\MCC18\src\traditional\proc\p18F67J60.asm
                     LATG   0x000f8f       data     extern C:\MCC18\src\traditional\proc\p18F67J60.asm
                 LATGbits   0x000f8f       data     extern C:\MCC18\src\traditional\proc\p18F67J60.asm
                     DDRA   0x000f92       data     extern C:\MCC18\src\traditional\proc\p18F67J60.asm
                 DDRAbits   0x000f92       data     extern C:\MCC18\src\traditional\proc\p18F67J60.asm
                    TRISA   0x000f92       data     extern C:\MCC18\src\traditional\proc\p18F67J60.asm
                TRISAbits   0x000f92       data     extern C:\MCC18\src\traditional\proc\p18F67J60.asm
                     DDRB   0x000f93       data     extern C:\MCC18\src\traditional\proc\p18F67J60.asm
                 DDRBbits   0x000f93       data     extern C:\MCC18\src\traditional\proc\p18F67J60.asm
                    TRISB   0x000f93       data     extern C:\MCC18\src\traditional\proc\p18F67J60.asm
                TRISBbits   0x000f93       data     extern C:\MCC18\src\traditional\proc\p18F67J60.asm
                 DDRCbits   0x000f94       data     extern C:\MCC18\src\traditional\proc\p18F67J60.asm
                TRISCbits   0x000f94       data     extern C:\MCC18\src\traditional\proc\p18F67J60.asm
                     DDRC   0x000f94       data     extern C:\MCC18\src\traditional\proc\p18F67J60.asm
                    TRISC   0x000f94       data     extern C:\MCC18\src\traditional\proc\p18F67J60.asm
                     DDRD   0x000f95       data     extern C:\MCC18\src\traditional\proc\p18F67J60.asm
                 DDRDbits   0x000f95       data     extern C:\MCC18\src\traditional\proc\p18F67J60.asm
                    TRISD   0x000f95       data     extern C:\MCC18\src\traditional\proc\p18F67J60.asm
                TRISDbits   0x000f95       data     extern C:\MCC18\src\traditional\proc\p18F67J60.asm
                TRISEbits   0x000f96       data     extern C:\MCC18\src\traditional\proc\p18F67J60.asm
                 DDREbits   0x000f96       data     extern C:\MCC18\src\traditional\proc\p18F67J60.asm
                     DDRE   0x000f96       data     extern C:\MCC18\src\traditional\proc\p18F67J60.asm
                    TRISE   0x000f96       data     extern C:\MCC18\src\traditional\proc\p18F67J60.asm
                TRISFbits   0x000f97       data     extern C:\MCC18\src\traditional\proc\p18F67J60.asm
                    TRISF   0x000f97       data     extern C:\MCC18\src\traditional\proc\p18F67J60.asm
                 DDRFbits   0x000f97       data     extern C:\MCC18\src\traditional\proc\p18F67J60.asm
                     DDRF   0x000f97       data     extern C:\MCC18\src\traditional\proc\p18F67J60.asm
                    TRISG   0x000f98       data     extern C:\MCC18\src\traditional\proc\p18F67J60.asm
                TRISGbits   0x000f98       data     extern C:\MCC18\src\traditional\proc\p18F67J60.asm
                 DDRGbits   0x000f98       data     extern C:\MCC18\src\traditional\proc\p18F67J60.asm
                     DDRG   0x000f98       data     extern C:\MCC18\src\traditional\proc\p18F67J60.asm
                  OSCTUNE   0x000f9b       data     extern C:\MCC18\src\traditional\proc\p18F67J60.asm
              OSCTUNEbits   0x000f9b       data     extern C:\MCC18\src\traditional\proc\p18F67J60.asm
                 PIE1bits   0x000f9d       data     extern C:\MCC18\src\traditional\proc\p18F67J60.asm
                     PIE1   0x000f9d       data     extern C:\MCC18\src\traditional\proc\p18F67J60.asm
                     PIR1   0x000f9e       data     extern C:\MCC18\src\traditional\proc\p18F67J60.asm
                 PIR1bits   0x000f9e       data     extern C:\MCC18\src\traditional\proc\p18F67J60.asm
                 IPR1bits   0x000f9f       data     extern C:\MCC18\src\traditional\proc\p18F67J60.asm
                     IPR1   0x000f9f       data     extern C:\MCC18\src\traditional\proc\p18F67J60.asm
                 PIE2bits   0x000fa0       data     extern C:\MCC18\src\traditional\proc\p18F67J60.asm
                     PIE2   0x000fa0       data     extern C:\MCC18\src\traditional\proc\p18F67J60.asm
                     PIR2   0x000fa1       data     extern C:\MCC18\src\traditional\proc\p18F67J60.asm
                 PIR2bits   0x000fa1       data     extern C:\MCC18\src\traditional\proc\p18F67J60.asm
                 IPR2bits   0x000fa2       data     extern C:\MCC18\src\traditional\proc\p18F67J60.asm
                     IPR2   0x000fa2       data     extern C:\MCC18\src\traditional\proc\p18F67J60.asm
                 PIE3bits   0x000fa3       data     extern C:\MCC18\src\traditional\proc\p18F67J60.asm
                     PIE3   0x000fa3       data     extern C:\MCC18\src\traditional\proc\p18F67J60.asm
                     PIR3   0x000fa4       data     extern C:\MCC18\src\traditional\proc\p18F67J60.asm
                 PIR3bits   0x000fa4       data     extern C:\MCC18\src\traditional\proc\p18F67J60.asm
                 IPR3bits   0x000fa5       data     extern C:\MCC18\src\traditional\proc\p18F67J60.asm
                     IPR3   0x000fa5       data     extern C:\MCC18\src\traditional\proc\p18F67J60.asm
               EECON1bits   0x000fa6       data     extern C:\MCC18\src\traditional\proc\p18F67J60.asm
                   EECON1   0x000fa6       data     extern C:\MCC18\src\traditional\proc\p18F67J60.asm
                   EECON2   0x000fa7       data     extern C:\MCC18\src\traditional\proc\p18F67J60.asm
                   RCSTA1   0x000fab       data     extern C:\MCC18\src\traditional\proc\p18F67J60.asm
               RCSTA1bits   0x000fab       data     extern C:\MCC18\src\traditional\proc\p18F67J60.asm
                    RCSTA   0x000fab       data     extern C:\MCC18\src\traditional\proc\p18F67J60.asm
                RCSTAbits   0x000fab       data     extern C:\MCC18\src\traditional\proc\p18F67J60.asm
               TXSTA1bits   0x000fac       data     extern C:\MCC18\src\traditional\proc\p18F67J60.asm
                    TXSTA   0x000fac       data     extern C:\MCC18\src\traditional\proc\p18F67J60.asm
                TXSTAbits   0x000fac       data     extern C:\MCC18\src\traditional\proc\p18F67J60.asm
                   TXSTA1   0x000fac       data     extern C:\MCC18\src\traditional\proc\p18F67J60.asm
                   TXREG1   0x000fad       data     extern C:\MCC18\src\traditional\proc\p18F67J60.asm
                    TXREG   0x000fad       data     extern C:\MCC18\src\traditional\proc\p18F67J60.asm
                   RCREG1   0x000fae       data     extern C:\MCC18\src\traditional\proc\p18F67J60.asm
                    RCREG   0x000fae       data     extern C:\MCC18\src\traditional\proc\p18F67J60.asm
                    SPBRG   0x000faf       data     extern C:\MCC18\src\traditional\proc\p18F67J60.asm
                   SPBRG1   0x000faf       data     extern C:\MCC18\src\traditional\proc\p18F67J60.asm
                    T3CON   0x000fb1       data     extern C:\MCC18\src\traditional\proc\p18F67J60.asm
                T3CONbits   0x000fb1       data     extern C:\MCC18\src\traditional\proc\p18F67J60.asm
                    TMR3L   0x000fb2       data     extern C:\MCC18\src\traditional\proc\p18F67J60.asm
                    TMR3H   0x000fb3       data     extern C:\MCC18\src\traditional\proc\p18F67J60.asm
                CMCONbits   0x000fb4       data     extern C:\MCC18\src\traditional\proc\p18F67J60.asm
                    CMCON   0x000fb4       data     extern C:\MCC18\src\traditional\proc\p18F67J60.asm
               CVRCONbits   0x000fb5       data     extern C:\MCC18\src\traditional\proc\p18F67J60.asm
                   CVRCON   0x000fb5       data     extern C:\MCC18\src\traditional\proc\p18F67J60.asm
              ECCP1ASbits   0x000fb6       data     extern C:\MCC18\src\traditional\proc\p18F67J60.asm
                  ECCP1AS   0x000fb6       data     extern C:\MCC18\src\traditional\proc\p18F67J60.asm
                 ECCP3CON   0x000fb7       data     extern C:\MCC18\src\traditional\proc\p18F67J60.asm
             ECCP3CONbits   0x000fb7       data     extern C:\MCC18\src\traditional\proc\p18F67J60.asm
              CCP3CONbits   0x000fb7       data     extern C:\MCC18\src\traditional\proc\p18F67J60.asm
                  CCP3CON   0x000fb7       data     extern C:\MCC18\src\traditional\proc\p18F67J60.asm
                   CCPR3L   0x000fb8       data     extern C:\MCC18\src\traditional\proc\p18F67J60.asm
                    CCPR3   0x000fb8       data     extern C:\MCC18\src\traditional\proc\p18F67J60.asm
                   CCPR3H   0x000fb9       data     extern C:\MCC18\src\traditional\proc\p18F67J60.asm
              CCP2CONbits   0x000fba       data     extern C:\MCC18\src\traditional\proc\p18F67J60.asm
                  CCP2CON   0x000fba       data     extern C:\MCC18\src\traditional\proc\p18F67J60.asm
                 ECCP2CON   0x000fba       data     extern C:\MCC18\src\traditional\proc\p18F67J60.asm
             ECCP2CONbits   0x000fba       data     extern C:\MCC18\src\traditional\proc\p18F67J60.asm
                   CCPR2L   0x000fbb       data     extern C:\MCC18\src\traditional\proc\p18F67J60.asm
                    CCPR2   0x000fbb       data     extern C:\MCC18\src\traditional\proc\p18F67J60.asm
                   CCPR2H   0x000fbc       data     extern C:\MCC18\src\traditional\proc\p18F67J60.asm
             ECCP1CONbits   0x000fbd       data     extern C:\MCC18\src\traditional\proc\p18F67J60.asm
                 ECCP1CON   0x000fbd       data     extern C:\MCC18\src\traditional\proc\p18F67J60.asm
              CCP1CONbits   0x000fbd       data     extern C:\MCC18\src\traditional\proc\p18F67J60.asm
                  CCP1CON   0x000fbd       data     extern C:\MCC18\src\traditional\proc\p18F67J60.asm
                   CCPR1L   0x000fbe       data     extern C:\MCC18\src\traditional\proc\p18F67J60.asm
                    CCPR1   0x000fbe       data     extern C:\MCC18\src\traditional\proc\p18F67J60.asm
                   CCPR1H   0x000fbf       data     extern C:\MCC18\src\traditional\proc\p18F67J60.asm
                   ADCON2   0x000fc0       data     extern C:\MCC18\src\traditional\proc\p18F67J60.asm
               ADCON2bits   0x000fc0       data     extern C:\MCC18\src\traditional\proc\p18F67J60.asm
                   ADCON1   0x000fc1       data     extern C:\MCC18\src\traditional\proc\p18F67J60.asm
               ADCON1bits   0x000fc1       data     extern C:\MCC18\src\traditional\proc\p18F67J60.asm
               ADCON0bits   0x000fc2       data     extern C:\MCC18\src\traditional\proc\p18F67J60.asm
                   ADCON0   0x000fc2       data     extern C:\MCC18\src\traditional\proc\p18F67J60.asm
                   ADRESL   0x000fc3       data     extern C:\MCC18\src\traditional\proc\p18F67J60.asm
                    ADRES   0x000fc3       data     extern C:\MCC18\src\traditional\proc\p18F67J60.asm
                   ADRESH   0x000fc4       data     extern C:\MCC18\src\traditional\proc\p18F67J60.asm
                 SSP1CON2   0x000fc5       data     extern C:\MCC18\src\traditional\proc\p18F67J60.asm
             SSP1CON2bits   0x000fc5       data     extern C:\MCC18\src\traditional\proc\p18F67J60.asm
              SSPCON2bits   0x000fc5       data     extern C:\MCC18\src\traditional\proc\p18F67J60.asm
                  SSPCON2   0x000fc5       data     extern C:\MCC18\src\traditional\proc\p18F67J60.asm
              SSPCON1bits   0x000fc6       data     extern C:\MCC18\src\traditional\proc\p18F67J60.asm
                 SSP1CON1   0x000fc6       data     extern C:\MCC18\src\traditional\proc\p18F67J60.asm
             SSP1CON1bits   0x000fc6       data     extern C:\MCC18\src\traditional\proc\p18F67J60.asm
                  SSPCON1   0x000fc6       data     extern C:\MCC18\src\traditional\proc\p18F67J60.asm
                  SSPSTAT   0x000fc7       data     extern C:\MCC18\src\traditional\proc\p18F67J60.asm
              SSPSTATbits   0x000fc7       data     extern C:\MCC18\src\traditional\proc\p18F67J60.asm
             SSP1STATbits   0x000fc7       data     extern C:\MCC18\src\traditional\proc\p18F67J60.asm
                 SSP1STAT   0x000fc7       data     extern C:\MCC18\src\traditional\proc\p18F67J60.asm
                   SSPADD   0x000fc8       data     extern C:\MCC18\src\traditional\proc\p18F67J60.asm
                  SSP1ADD   0x000fc8       data     extern C:\MCC18\src\traditional\proc\p18F67J60.asm
                   SSPBUF   0x000fc9       data     extern C:\MCC18\src\traditional\proc\p18F67J60.asm
                  SSP1BUF   0x000fc9       data     extern C:\MCC18\src\traditional\proc\p18F67J60.asm
                    T2CON   0x000fca       data     extern C:\MCC18\src\traditional\proc\p18F67J60.asm
                T2CONbits   0x000fca       data     extern C:\MCC18\src\traditional\proc\p18F67J60.asm
                      PR2   0x000fcb       data     extern C:\MCC18\src\traditional\proc\p18F67J60.asm
                     TMR2   0x000fcc       data     extern C:\MCC18\src\traditional\proc\p18F67J60.asm
                T1CONbits   0x000fcd       data     extern C:\MCC18\src\traditional\proc\p18F67J60.asm
                    T1CON   0x000fcd       data     extern C:\MCC18\src\traditional\proc\p18F67J60.asm
                    TMR1L   0x000fce       data     extern C:\MCC18\src\traditional\proc\p18F67J60.asm
                    TMR1H   0x000fcf       data     extern C:\MCC18\src\traditional\proc\p18F67J60.asm
                 RCONbits   0x000fd0       data     extern C:\MCC18\src\traditional\proc\p18F67J60.asm
                     RCON   0x000fd0       data     extern C:\MCC18\src\traditional\proc\p18F67J60.asm
                   WDTCON   0x000fd1       data     extern C:\MCC18\src\traditional\proc\p18F67J60.asm
               WDTCONbits   0x000fd1       data     extern C:\MCC18\src\traditional\proc\p18F67J60.asm
                ECON1bits   0x000fd2       data     extern C:\MCC18\src\traditional\proc\p18F67J60.asm
                    ECON1   0x000fd2       data     extern C:\MCC18\src\traditional\proc\p18F67J60.asm
                   OSCCON   0x000fd3       data     extern C:\MCC18\src\traditional\proc\p18F67J60.asm
               OSCCONbits   0x000fd3       data     extern C:\MCC18\src\traditional\proc\p18F67J60.asm
                    T0CON   0x000fd5       data     extern C:\MCC18\src\traditional\proc\p18F67J60.asm
                T0CONbits   0x000fd5       data     extern C:\MCC18\src\traditional\proc\p18F67J60.asm
                    TMR0L   0x000fd6       data     extern C:\MCC18\src\traditional\proc\p18F67J60.asm
                    TMR0H   0x000fd7       data     extern C:\MCC18\src\traditional\proc\p18F67J60.asm
                   STATUS   0x000fd8       data     extern C:\MCC18\src\traditional\proc\p18F67J60.asm
               STATUSbits   0x000fd8       data     extern C:\MCC18\src\traditional\proc\p18F67J60.asm
                     FSR2   0x000fd9       data     extern C:\MCC18\src\traditional\proc\p18F67J60.asm
                    FSR2L   0x000fd9       data     extern C:\MCC18\src\traditional\proc\p18F67J60.asm
                    FSR2H   0x000fda       data     extern C:\MCC18\src\traditional\proc\p18F67J60.asm
                   PLUSW2   0x000fdb       data     extern C:\MCC18\src\traditional\proc\p18F67J60.asm
                  PREINC2   0x000fdc       data     extern C:\MCC18\src\traditional\proc\p18F67J60.asm
                 POSTDEC2   0x000fdd       data     extern C:\MCC18\src\traditional\proc\p18F67J60.asm
                 POSTINC2   0x000fde       data     extern C:\MCC18\src\traditional\proc\p18F67J60.asm
                    INDF2   0x000fdf       data     extern C:\MCC18\src\traditional\proc\p18F67J60.asm
                      BSR   0x000fe0       data     extern C:\MCC18\src\traditional\proc\p18F67J60.asm
                    FSR1L   0x000fe1       data     extern C:\MCC18\src\traditional\proc\p18F67J60.asm
                     FSR1   0x000fe1       data     extern C:\MCC18\src\traditional\proc\p18F67J60.asm
                    FSR1H   0x000fe2       data     extern C:\MCC18\src\traditional\proc\p18F67J60.asm
                   PLUSW1   0x000fe3       data     extern C:\MCC18\src\traditional\proc\p18F67J60.asm
                  PREINC1   0x000fe4       data     extern C:\MCC18\src\traditional\proc\p18F67J60.asm
                 POSTDEC1   0x000fe5       data     extern C:\MCC18\src\traditional\proc\p18F67J60.asm
                 POSTINC1   0x000fe6       data     extern C:\MCC18\src\traditional\proc\p18F67J60.asm
                    INDF1   0x000fe7       data     extern C:\MCC18\src\traditional\proc\p18F67J60.asm
                     WREG   0x000fe8       data     extern C:\MCC18\src\traditional\proc\p18F67J60.asm
                    FSR0L   0x000fe9       data     extern C:\MCC18\src\traditional\proc\p18F67J60.asm
                     FSR0   0x000fe9       data     extern C:\MCC18\src\traditional\proc\p18F67J60.asm
                    FSR0H   0x000fea       data     extern C:\MCC18\src\traditional\proc\p18F67J60.asm
                   PLUSW0   0x000feb       data     extern C:\MCC18\src\traditional\proc\p18F67J60.asm
                  PREINC0   0x000fec       data     extern C:\MCC18\src\traditional\proc\p18F67J60.asm
                 POSTDEC0   0x000fed       data     extern C:\MCC18\src\traditional\proc\p18F67J60.asm
                 POSTINC0   0x000fee       data     extern C:\MCC18\src\traditional\proc\p18F67J60.asm
                    INDF0   0x000fef       data     extern C:\MCC18\src\traditional\proc\p18F67J60.asm
                  INTCON3   0x000ff0       data     extern C:\MCC18\src\traditional\proc\p18F67J60.asm
              INTCON3bits   0x000ff0       data     extern C:\MCC18\src\traditional\proc\p18F67J60.asm
              INTCON2bits   0x000ff1       data     extern C:\MCC18\src\traditional\proc\p18F67J60.asm
                  INTCON2   0x000ff1       data     extern C:\MCC18\src\traditional\proc\p18F67J60.asm
               INTCONbits   0x000ff2       data     extern C:\MCC18\src\traditional\proc\p18F67J60.asm
                   INTCON   0x000ff2       data     extern C:\MCC18\src\traditional\proc\p18F67J60.asm
                    PRODL   0x000ff3       data     extern C:\MCC18\src\traditional\proc\p18F67J60.asm
                     PROD   0x000ff3       data     extern C:\MCC18\src\traditional\proc\p18F67J60.asm
                    PRODH   0x000ff4       data     extern C:\MCC18\src\traditional\proc\p18F67J60.asm
                   TABLAT   0x000ff5       data     extern C:\MCC18\src\traditional\proc\p18F67J60.asm
                   TBLPTR   0x000ff6       data     extern C:\MCC18\src\traditional\proc\p18F67J60.asm
                  TBLPTRL   0x000ff6       data     extern C:\MCC18\src\traditional\proc\p18F67J60.asm
                  TBLPTRH   0x000ff7       data     extern C:\MCC18\src\traditional\proc\p18F67J60.asm
                  TBLPTRU   0x000ff8       data     extern C:\MCC18\src\traditional\proc\p18F67J60.asm
                      PCL   0x000ff9       data     extern C:\MCC18\src\traditional\proc\p18F67J60.asm
                       PC   0x000ff9       data     extern C:\MCC18\src\traditional\proc\p18F67J60.asm
                   PCLATH   0x000ffa       data     extern C:\MCC18\src\traditional\proc\p18F67J60.asm
                   PCLATU   0x000ffb       data     extern C:\MCC18\src\traditional\proc\p18F67J60.asm
                   STKPTR   0x000ffc       data     extern C:\MCC18\src\traditional\proc\p18F67J60.asm
               STKPTRbits   0x000ffc       data     extern C:\MCC18\src\traditional\proc\p18F67J60.asm
                      TOS   0x000ffd       data     extern C:\MCC18\src\traditional\proc\p18F67J60.asm
                     TOSL   0x000ffd       data     extern C:\MCC18\src\traditional\proc\p18F67J60.asm
                     TOSH   0x000ffe       data     extern C:\MCC18\src\traditional\proc\p18F67J60.asm
                     TOSU   0x000fff       data     extern C:\MCC18\src\traditional\proc\p18F67J60.asm


